
out.elf:     file format elf32-tradlittlemips


Disassembly of section .config_BFC02FF0:

bfc02ff0 <__config_BFC02FF0>:
bfc02ff0:	ff ff fe fa                                         ....

Disassembly of section .config_BFC02FF4:

bfc02ff4 <__config_BFC02FF4>:
bfc02ff4:	d9 79 f8 ff                                         .y..

Disassembly of section .config_BFC02FF8:

bfc02ff8 <__config_BFC02FF8>:
bfc02ff8:	db ce 6c ff                                         ..l.

Disassembly of section .config_BFC02FFC:

bfc02ffc <__config_BFC02FFC>:
bfc02ffc:	ff ff ff 7e                                         ...~

Disassembly of section .reset:

bd001970 <_reset>:
bd001970:	0f40065e 	jal	bd001978 <_startup>
bd001974:	00000000 	nop

bd001978 <_startup>:
bd001978:	401a6000 	mfc0	k0,c0_status
bd00197c:	7f5a04c0 	ext	k0,k0,0x13,0x1
bd001980:	13400005 	beqz	k0,bd001998 <_no_nmi>
bd001984:	00000000 	nop
bd001988:	3c1a9d01 	lui	k0,0x9d01
bd00198c:	275ac4e8 	addiu	k0,k0,-15128
bd001990:	03400008 	jr	k0
bd001994:	00000000 	nop

bd001998 <_no_nmi>:
bd001998:	3c1da002 	lui	sp,0xa002
bd00199c:	27bdfff0 	addiu	sp,sp,-16
bd0019a0:	3c1ca000 	lui	gp,0xa000
bd0019a4:	279c7ff0 	addiu	gp,gp,32752
bd0019a8:	40096002 	mfc0	t1,c0_srsctl
bd0019ac:	01205820 	add	t3,t1,zero
bd0019b0:	7d2a1e80 	ext	t2,t1,0x1a,0x4
bd0019b4:	7d494984 	ins	t1,t2,0x6,0x4
bd0019b8:	40896002 	mtc0	t1,c0_srsctl
bd0019bc:	000000c0 	ehb
bd0019c0:	41dce000 	wrpgpr	gp,gp
bd0019c4:	408b6002 	mtc0	t3,c0_srsctl
bd0019c8:	000000c0 	ehb
bd0019cc:	3c089d01 	lui	t0,0x9d01
bd0019d0:	2508c584 	addiu	t0,t0,-14972
bd0019d4:	0100f809 	jalr	t0
bd0019d8:	00000000 	nop
bd0019dc:	3c08a000 	lui	t0,0xa000
bd0019e0:	25080018 	addiu	t0,t0,24
bd0019e4:	3c09a000 	lui	t1,0xa000
bd0019e8:	25290048 	addiu	t1,t1,72
bd0019ec:	10000006 	b	bd001a08 <_bss_check>
bd0019f0:	00000000 	nop

bd0019f4 <_bss_init>:
bd0019f4:	ad000000 	sw	zero,0(t0)
bd0019f8:	ad000004 	sw	zero,4(t0)
bd0019fc:	ad000008 	sw	zero,8(t0)
bd001a00:	ad00000c 	sw	zero,12(t0)
bd001a04:	25080010 	addiu	t0,t0,16

bd001a08 <_bss_check>:
bd001a08:	0109082b 	sltu	at,t0,t1
bd001a0c:	1420fff9 	bnez	at,bd0019f4 <_bss_init>
bd001a10:	00000000 	nop

bd001a14 <_dinit_init>:
bd001a14:	3c089d00 	lui	t0,0x9d00
bd001a18:	250851a4 	addiu	t0,t0,20900
bd001a1c:	8d090000 	lw	t1,0(t0)
bd001a20:	11200018 	beqz	t1,bd001a84 <_dinit_end+0x18>
bd001a24:	25080004 	addiu	t0,t0,4
bd001a28:	8d0a0000 	lw	t2,0(t0)
bd001a2c:	25080004 	addiu	t0,t0,4
bd001a30:	8d0b0000 	lw	t3,0(t0)
bd001a34:	11600009 	beqz	t3,bd001a5c <_dinit_clear>
bd001a38:	25080004 	addiu	t0,t0,4

bd001a3c <_dinit_copy>:
bd001a3c:	910c0000 	lbu	t4,0(t0)
bd001a40:	254affff 	addiu	t2,t2,-1
bd001a44:	25080001 	addiu	t0,t0,1
bd001a48:	a12c0000 	sb	t4,0(t1)
bd001a4c:	1540fffb 	bnez	t2,bd001a3c <_dinit_copy>
bd001a50:	25290001 	addiu	t1,t1,1
bd001a54:	10000005 	b	bd001a6c <_dinit_end>
bd001a58:	00000000 	nop

bd001a5c <_dinit_clear>:
bd001a5c:	a1200000 	sb	zero,0(t1)
bd001a60:	254affff 	addiu	t2,t2,-1
bd001a64:	1540fffd 	bnez	t2,bd001a5c <_dinit_clear>
bd001a68:	25290001 	addiu	t1,t1,1

bd001a6c <_dinit_end>:
bd001a6c:	25080003 	addiu	t0,t0,3
bd001a70:	240afffc 	li	t2,-4
bd001a74:	01484024 	and	t0,t2,t0
bd001a78:	8d090000 	lw	t1,0(t0)
bd001a7c:	1520ffe7 	bnez	t1,bd001a1c <_dinit_init+0x8>
bd001a80:	00000000 	nop
bd001a84:	3c090000 	lui	t1,0x0
bd001a88:	25290000 	addiu	t1,t1,0
bd001a8c:	11200010 	beqz	t1,bd001ad0 <_ramfunc_done>
bd001a90:	00000000 	nop
bd001a94:	3c090002 	lui	t1,0x2
bd001a98:	25290000 	addiu	t1,t1,0
bd001a9c:	3c0abf88 	lui	t2,0xbf88
bd001aa0:	254a2010 	addiu	t2,t2,8208
bd001aa4:	ad490000 	sw	t1,0(t2)
bd001aa8:	3c090002 	lui	t1,0x2
bd001aac:	25290000 	addiu	t1,t1,0
bd001ab0:	3c0abf88 	lui	t2,0xbf88
bd001ab4:	254a2020 	addiu	t2,t2,8224
bd001ab8:	ad490000 	sw	t1,0(t2)
bd001abc:	3c090002 	lui	t1,0x2
bd001ac0:	25290000 	addiu	t1,t1,0
bd001ac4:	3c0abf88 	lui	t2,0xbf88
bd001ac8:	254a2030 	addiu	t2,t2,8240
bd001acc:	ad490000 	sw	t1,0(t2)

bd001ad0 <_ramfunc_done>:
bd001ad0:	40804800 	mtc0	zero,c0_count
bd001ad4:	240affff 	li	t2,-1
bd001ad8:	408a5800 	mtc0	t2,c0_compare
bd001adc:	3c080040 	lui	t0,0x40
bd001ae0:	400a6000 	mfc0	t2,c0_status
bd001ae4:	010a5025 	or	t2,t0,t2
bd001ae8:	408a6000 	mtc0	t2,c0_status
bd001aec:	3c099d00 	lui	t1,0x9d00
bd001af0:	25290000 	addiu	t1,t1,0
bd001af4:	000000c0 	ehb
bd001af8:	40897801 	mtc0	t1,c0_ebase
bd001afc:	3c090000 	lui	t1,0x0
bd001b00:	25290001 	addiu	t1,t1,1
bd001b04:	240a0000 	li	t2,0
bd001b08:	7d2a4944 	ins	t2,t1,0x5,0x5
bd001b0c:	408a6001 	mtc0	t2,c0_intctl
bd001b10:	3c090080 	lui	t1,0x80
bd001b14:	40896800 	mtc0	t1,c0_cause
bd001b18:	40088000 	mfc0	t0,c0_config
bd001b1c:	7d090580 	ext	t1,t0,0x16,0x1
bd001b20:	00094c40 	sll	t1,t1,0x11
bd001b24:	40086000 	mfc0	t0,c0_status
bd001b28:	3c010058 	lui	at,0x58
bd001b2c:	01014024 	and	t0,t0,at
bd001b30:	01284025 	or	t0,t1,t0
bd001b34:	40886000 	mtc0	t0,c0_status
bd001b38:	000000c0 	ehb
bd001b3c:	3c089d01 	lui	t0,0x9d01
bd001b40:	2508c58c 	addiu	t0,t0,-14964
bd001b44:	0100f809 	jalr	t0
bd001b48:	00000000 	nop
bd001b4c:	40086000 	mfc0	t0,c0_status
bd001b50:	3c01ffbf 	lui	at,0xffbf
bd001b54:	3421ffff 	ori	at,at,0xffff
bd001b58:	01014024 	and	t0,t0,at
bd001b5c:	40886000 	mtc0	t0,c0_status
bd001b60:	30840000 	andi	a0,a0,0x0
bd001b64:	30a50000 	andi	a1,a1,0x0
bd001b68:	3c089d01 	lui	t0,0x9d01
bd001b6c:	2508be28 	addiu	t0,t0,-16856
bd001b70:	01000008 	jr	t0
bd001b74:	00000000 	nop

Disassembly of section .bev_excpt:

bd001cf0 <_bev_exception>:
bd001cf0:	3c1a9d01 	lui	k0,0x9d01
bd001cf4:	275ac008 	addiu	k0,k0,-16376
bd001cf8:	03400008 	jr	k0
bd001cfc:	00000000 	nop

Disassembly of section .app_excpt:

9d000180 <_gen_exception>:
9d000180:	3c1a9d01 	lui	k0,0x9d01
9d000184:	275aae7c 	addiu	k0,k0,-20868
9d000188:	03400008 	jr	k0
9d00018c:	00000000 	nop

Disassembly of section .vector_0:

9d000200 <__vector_dispatch_0>:
9d000200:	0b403026 	j	9d00c098 <.LFE0>
9d000204:	00000000 	nop

Disassembly of section .vector_1:

9d000220 <__vector_dispatch_1>:
9d000220:	0b403026 	j	9d00c098 <.LFE0>
9d000224:	00000000 	nop

Disassembly of section .vector_2:

9d000240 <__vector_dispatch_2>:
9d000240:	0b403026 	j	9d00c098 <.LFE0>
9d000244:	00000000 	nop

Disassembly of section .vector_3:

9d000260 <__vector_dispatch_3>:
9d000260:	0b403026 	j	9d00c098 <.LFE0>
9d000264:	00000000 	nop

Disassembly of section .vector_4:

9d000280 <__vector_dispatch_4>:
9d000280:	0b403026 	j	9d00c098 <.LFE0>
9d000284:	00000000 	nop

Disassembly of section .vector_5:

9d0002a0 <__vector_dispatch_5>:
9d0002a0:	0b403026 	j	9d00c098 <.LFE0>
9d0002a4:	00000000 	nop

Disassembly of section .vector_6:

9d0002c0 <__vector_dispatch_6>:
9d0002c0:	0b403026 	j	9d00c098 <.LFE0>
9d0002c4:	00000000 	nop

Disassembly of section .vector_7:

9d0002e0 <__vector_dispatch_7>:
9d0002e0:	0b403026 	j	9d00c098 <.LFE0>
9d0002e4:	00000000 	nop

Disassembly of section .vector_8:

9d000300 <__vector_dispatch_8>:
9d000300:	0b400780 	j	9d001e00 <CurrentController>
9d000304:	00000000 	nop

Disassembly of section .vector_9:

9d000320 <__vector_dispatch_9>:
9d000320:	0b403026 	j	9d00c098 <.LFE0>
9d000324:	00000000 	nop

Disassembly of section .vector_10:

9d000340 <__vector_dispatch_10>:
9d000340:	0b403026 	j	9d00c098 <.LFE0>
9d000344:	00000000 	nop

Disassembly of section .vector_11:

9d000360 <__vector_dispatch_11>:
9d000360:	0b403026 	j	9d00c098 <.LFE0>
9d000364:	00000000 	nop

Disassembly of section .vector_12:

9d000380 <__vector_dispatch_12>:
9d000380:	0b403026 	j	9d00c098 <.LFE0>
9d000384:	00000000 	nop

Disassembly of section .vector_13:

9d0003a0 <__vector_dispatch_13>:
9d0003a0:	0b403026 	j	9d00c098 <.LFE0>
9d0003a4:	00000000 	nop

Disassembly of section .vector_14:

9d0003c0 <__vector_dispatch_14>:
9d0003c0:	0b403026 	j	9d00c098 <.LFE0>
9d0003c4:	00000000 	nop

Disassembly of section .vector_15:

9d0003e0 <__vector_dispatch_15>:
9d0003e0:	0b403026 	j	9d00c098 <.LFE0>
9d0003e4:	00000000 	nop

Disassembly of section .vector_16:

9d000400 <__vector_dispatch_16>:
9d000400:	0b400959 	j	9d002564 <PositionController>
9d000404:	00000000 	nop

Disassembly of section .vector_17:

9d000420 <__vector_dispatch_17>:
9d000420:	0b403026 	j	9d00c098 <.LFE0>
9d000424:	00000000 	nop

Disassembly of section .vector_18:

9d000440 <__vector_dispatch_18>:
9d000440:	0b403026 	j	9d00c098 <.LFE0>
9d000444:	00000000 	nop

Disassembly of section .vector_19:

9d000460 <__vector_dispatch_19>:
9d000460:	0b403026 	j	9d00c098 <.LFE0>
9d000464:	00000000 	nop

Disassembly of section .vector_20:

9d000480 <__vector_dispatch_20>:
9d000480:	0b403026 	j	9d00c098 <.LFE0>
9d000484:	00000000 	nop

Disassembly of section .vector_21:

9d0004a0 <__vector_dispatch_21>:
9d0004a0:	0b403026 	j	9d00c098 <.LFE0>
9d0004a4:	00000000 	nop

Disassembly of section .vector_22:

9d0004c0 <__vector_dispatch_22>:
9d0004c0:	0b403026 	j	9d00c098 <.LFE0>
9d0004c4:	00000000 	nop

Disassembly of section .vector_23:

9d0004e0 <__vector_dispatch_23>:
9d0004e0:	0b403026 	j	9d00c098 <.LFE0>
9d0004e4:	00000000 	nop

Disassembly of section .vector_24:

9d000500 <__vector_dispatch_24>:
9d000500:	0b403026 	j	9d00c098 <.LFE0>
9d000504:	00000000 	nop

Disassembly of section .vector_25:

9d000520 <__vector_dispatch_25>:
9d000520:	0b403026 	j	9d00c098 <.LFE0>
9d000524:	00000000 	nop

Disassembly of section .vector_26:

9d000540 <__vector_dispatch_26>:
9d000540:	0b403026 	j	9d00c098 <.LFE0>
9d000544:	00000000 	nop

Disassembly of section .vector_27:

9d000560 <__vector_dispatch_27>:
9d000560:	0b403026 	j	9d00c098 <.LFE0>
9d000564:	00000000 	nop

Disassembly of section .vector_28:

9d000580 <__vector_dispatch_28>:
9d000580:	0b403026 	j	9d00c098 <.LFE0>
9d000584:	00000000 	nop

Disassembly of section .vector_29:

9d0005a0 <__vector_dispatch_29>:
9d0005a0:	0b403026 	j	9d00c098 <.LFE0>
9d0005a4:	00000000 	nop

Disassembly of section .vector_30:

9d0005c0 <__vector_dispatch_30>:
9d0005c0:	0b403026 	j	9d00c098 <.LFE0>
9d0005c4:	00000000 	nop

Disassembly of section .vector_31:

9d0005e0 <__vector_dispatch_31>:
9d0005e0:	0b403026 	j	9d00c098 <.LFE0>
9d0005e4:	00000000 	nop

Disassembly of section .vector_32:

9d000600 <__vector_dispatch_32>:
9d000600:	0b403026 	j	9d00c098 <.LFE0>
9d000604:	00000000 	nop

Disassembly of section .vector_33:

9d000620 <__vector_dispatch_33>:
9d000620:	0b403026 	j	9d00c098 <.LFE0>
9d000624:	00000000 	nop

Disassembly of section .vector_34:

9d000640 <__vector_dispatch_34>:
9d000640:	0b403026 	j	9d00c098 <.LFE0>
9d000644:	00000000 	nop

Disassembly of section .vector_35:

9d000660 <__vector_dispatch_35>:
9d000660:	0b403026 	j	9d00c098 <.LFE0>
9d000664:	00000000 	nop

Disassembly of section .vector_36:

9d000680 <__vector_dispatch_36>:
9d000680:	0b403026 	j	9d00c098 <.LFE0>
9d000684:	00000000 	nop

Disassembly of section .vector_37:

9d0006a0 <__vector_dispatch_37>:
9d0006a0:	0b403026 	j	9d00c098 <.LFE0>
9d0006a4:	00000000 	nop

Disassembly of section .vector_38:

9d0006c0 <__vector_dispatch_38>:
9d0006c0:	0b403026 	j	9d00c098 <.LFE0>
9d0006c4:	00000000 	nop

Disassembly of section .vector_39:

9d0006e0 <__vector_dispatch_39>:
9d0006e0:	0b403026 	j	9d00c098 <.LFE0>
9d0006e4:	00000000 	nop

Disassembly of section .vector_40:

9d000700 <__vector_dispatch_40>:
9d000700:	0b403026 	j	9d00c098 <.LFE0>
9d000704:	00000000 	nop

Disassembly of section .vector_41:

9d000720 <__vector_dispatch_41>:
9d000720:	0b403026 	j	9d00c098 <.LFE0>
9d000724:	00000000 	nop

Disassembly of section .vector_42:

9d000740 <__vector_dispatch_42>:
9d000740:	0b403026 	j	9d00c098 <.LFE0>
9d000744:	00000000 	nop

Disassembly of section .vector_43:

9d000760 <__vector_dispatch_43>:
9d000760:	0b403026 	j	9d00c098 <.LFE0>
9d000764:	00000000 	nop

Disassembly of section .vector_44:

9d000780 <__vector_dispatch_44>:
9d000780:	0b403026 	j	9d00c098 <.LFE0>
9d000784:	00000000 	nop

Disassembly of section .vector_45:

9d0007a0 <__vector_dispatch_45>:
9d0007a0:	0b403026 	j	9d00c098 <.LFE0>
9d0007a4:	00000000 	nop

Disassembly of section .vector_46:

9d0007c0 <__vector_dispatch_46>:
9d0007c0:	0b403026 	j	9d00c098 <.LFE0>
9d0007c4:	00000000 	nop

Disassembly of section .vector_47:

9d0007e0 <__vector_dispatch_47>:
9d0007e0:	0b403026 	j	9d00c098 <.LFE0>
9d0007e4:	00000000 	nop

Disassembly of section .vector_48:

9d000800 <__vector_dispatch_48>:
9d000800:	0b403026 	j	9d00c098 <.LFE0>
9d000804:	00000000 	nop

Disassembly of section .vector_49:

9d000820 <__vector_dispatch_49>:
9d000820:	0b403026 	j	9d00c098 <.LFE0>
9d000824:	00000000 	nop

Disassembly of section .vector_50:

9d000840 <__vector_dispatch_50>:
9d000840:	0b403026 	j	9d00c098 <.LFE0>
9d000844:	00000000 	nop

Disassembly of section .vector_51:

9d000860 <__vector_dispatch_51>:
9d000860:	0b403026 	j	9d00c098 <.LFE0>
9d000864:	00000000 	nop

Disassembly of section ._debug_exception:

bfc00480 <__DbgExecReturn>:
bfc00480:	409bf800 	mtc0	k1,c0_desave
bfc00484:	000000c0 	ehb
bfc00488:	3c1b9d01 	lui	k1,0x9d01
bfc0048c:	277bc128 	addiu	k1,k1,-16088
bfc00490:	13600002 	beqz	k1,bfc0049c <__DbgExecReturn+0x1c>
bfc00494:	00000000 	nop
bfc00498:	409bc000 	mtc0	k1,c0_depc
bfc0049c:	401bf800 	mfc0	k1,c0_desave
bfc004a0:	000000c0 	ehb
bfc004a4:	4200001f 	deret
bfc004a8:	00000000 	nop

Disassembly of section .text:

9d001e00 <CurrentController>:
static volatile int SENtraj[MAXSAMPS];                      // measured trajectory for position control

////////////////////////////////
// Interrupt Service Routines //
////////////////////////////////
void __ISR(_TIMER_2_VECTOR, IPL5SOFT) CurrentController(void){
9d001e00:	415de800 	rdpgpr	sp,sp
9d001e04:	401a7000 	mfc0	k0,c0_epc
9d001e08:	401b6000 	mfc0	k1,c0_status
9d001e0c:	27bdff70 	addiu	sp,sp,-144
9d001e10:	afba008c 	sw	k0,140(sp)
9d001e14:	401a6002 	mfc0	k0,c0_srsctl
9d001e18:	afbb0088 	sw	k1,136(sp)
9d001e1c:	afba0084 	sw	k0,132(sp)
9d001e20:	7c1b7844 	ins	k1,zero,0x1,0xf
9d001e24:	377b1400 	ori	k1,k1,0x1400
9d001e28:	409b6000 	mtc0	k1,c0_status
9d001e2c:	afbf0074 	sw	ra,116(sp)
9d001e30:	afbe0070 	sw	s8,112(sp)
9d001e34:	afb9006c 	sw	t9,108(sp)
9d001e38:	afb80068 	sw	t8,104(sp)
9d001e3c:	afb00064 	sw	s0,100(sp)
9d001e40:	afaf0060 	sw	t7,96(sp)
9d001e44:	afae005c 	sw	t6,92(sp)
9d001e48:	afad0058 	sw	t5,88(sp)
9d001e4c:	afac0054 	sw	t4,84(sp)
9d001e50:	afab0050 	sw	t3,80(sp)
9d001e54:	afaa004c 	sw	t2,76(sp)
9d001e58:	afa90048 	sw	t1,72(sp)
9d001e5c:	afa80044 	sw	t0,68(sp)
9d001e60:	afa70040 	sw	a3,64(sp)
9d001e64:	afa6003c 	sw	a2,60(sp)
9d001e68:	afa50038 	sw	a1,56(sp)
9d001e6c:	afa40034 	sw	a0,52(sp)
9d001e70:	afa30030 	sw	v1,48(sp)
9d001e74:	afa2002c 	sw	v0,44(sp)
9d001e78:	afa10028 	sw	at,40(sp)
9d001e7c:	00001012 	mflo	v0
9d001e80:	afa2007c 	sw	v0,124(sp)
9d001e84:	00001810 	mfhi	v1
9d001e88:	afa30078 	sw	v1,120(sp)
9d001e8c:	03a0f021 	move	s8,sp
  static int counter = 0;   // initialize counter once
  int sensed_cur;           // sensed current in mA
  int e, u, unew;

  switch (get_mode()) {
9d001e90:	0f402fbf 	jal	9d00befc <get_mode>
9d001e94:	00000000 	nop
9d001e98:	2c430005 	sltiu	v1,v0,5
9d001e9c:	10600184 	beqz	v1,9d0024b0 <.LBE2+0x2e0>
9d001ea0:	00000000 	nop
9d001ea4:	00021880 	sll	v1,v0,0x2
9d001ea8:	3c029d00 	lui	v0,0x9d00
9d001eac:	24421ec0 	addiu	v0,v0,7872
9d001eb0:	00621021 	addu	v0,v1,v0
9d001eb4:	8c420000 	lw	v0,0(v0)
9d001eb8:	00400008 	jr	v0
9d001ebc:	00000000 	nop
9d001ec0:	9d001ed4 	0x9d001ed4
9d001ec4:	9d001eec 	0x9d001eec
9d001ec8:	9d001fd0 	0x9d001fd0
9d001ecc:	9d0021d0 	0x9d0021d0
9d001ed0:	9d002340 	0x9d002340
    case IDLE:
    {
      EIint = 0;
9d001ed4:	af808038 	sw	zero,-32712(gp)
      dutycycle = 0;
9d001ed8:	af808028 	sw	zero,-32728(gp)
      OC1RS = 0;            // 0 duty cycle => H-bridge in brake mode
9d001edc:	3c02bf80 	lui	v0,0xbf80
9d001ee0:	ac403020 	sw	zero,12320(v0)
      break;
9d001ee4:	0b400931 	j	9d0024c4 <.LBE2+0x2f4>
9d001ee8:	00000000 	nop
    }

    case PWM:
    {
      if (dutycycle < 0){
9d001eec:	8f828028 	lw	v0,-32728(gp)
9d001ef0:	04410008 	bgez	v0,9d001f14 <CurrentController+0x114>
9d001ef4:	00000000 	nop
        LATDbits.LATD8 = 1;    // output = high => motor in reverse
9d001ef8:	3c03bf88 	lui	v1,0xbf88
9d001efc:	946260e0 	lhu	v0,24800(v1)
9d001f00:	24040001 	li	a0,1
9d001f04:	7c824204 	ins	v0,a0,0x8,0x1
9d001f08:	a46260e0 	sh	v0,24800(v1)
9d001f0c:	0b4007c9 	j	9d001f24 <CurrentController+0x124>
9d001f10:	00000000 	nop
      }
      else{
        LATDbits.LATD8 = 0;    // output = low => motor in forward
9d001f14:	3c03bf88 	lui	v1,0xbf88
9d001f18:	946260e0 	lhu	v0,24800(v1)
9d001f1c:	7c024204 	ins	v0,zero,0x8,0x1
9d001f20:	a46260e0 	sh	v0,24800(v1)
      }

      // Cap to 100% if user input magnitude greater than a threshold:
      if (dutycycle > 98){
9d001f24:	8f828028 	lw	v0,-32728(gp)
9d001f28:	28420063 	slti	v0,v0,99
9d001f2c:	14400003 	bnez	v0,9d001f3c <CurrentController+0x13c>
9d001f30:	00000000 	nop
        dutycycle = 98;
9d001f34:	24020062 	li	v0,98
9d001f38:	af828028 	sw	v0,-32728(gp)
      }
	  if (dutycycle < -98){
9d001f3c:	8f828028 	lw	v0,-32728(gp)
9d001f40:	2842ff9e 	slti	v0,v0,-98
9d001f44:	10400003 	beqz	v0,9d001f54 <CurrentController+0x154>
9d001f48:	00000000 	nop
		  dutycycle = -98;
9d001f4c:	2402ff9e 	li	v0,-98
9d001f50:	af828028 	sw	v0,-32728(gp)
	  }
      
      OC1RS = (unsigned int)((abs(dutycycle)/100.0)*PR3);
9d001f54:	8f828028 	lw	v0,-32728(gp)
9d001f58:	00021fc3 	sra	v1,v0,0x1f
9d001f5c:	00621026 	xor	v0,v1,v0
9d001f60:	00431023 	subu	v0,v0,v1
9d001f64:	00402021 	move	a0,v0
9d001f68:	0f402f72 	jal	9d00bdc8 <__floatsisf>
9d001f6c:	00000000 	nop
9d001f70:	00401821 	move	v1,v0
9d001f74:	3c029d01 	lui	v0,0x9d01
9d001f78:	00602021 	move	a0,v1
9d001f7c:	8c45c294 	lw	a1,-15724(v0)
9d001f80:	0f4026d2 	jal	9d009b48 <.LFE6>
9d001f84:	00000000 	nop
9d001f88:	00408021 	move	s0,v0
9d001f8c:	3c02bf80 	lui	v0,0xbf80
9d001f90:	8c420a20 	lw	v0,2592(v0)
9d001f94:	00402021 	move	a0,v0
9d001f98:	0f402fdc 	jal	9d00bf70 <.LFE4>
9d001f9c:	00000000 	nop
9d001fa0:	02002021 	move	a0,s0
9d001fa4:	00402821 	move	a1,v0
9d001fa8:	0f40275e 	jal	9d009d78 <__mulsf3>
9d001fac:	00000000 	nop
9d001fb0:	00402021 	move	a0,v0
9d001fb4:	0f402e5f 	jal	9d00b97c <__fixunssfsi>
9d001fb8:	00000000 	nop
9d001fbc:	00401821 	move	v1,v0
9d001fc0:	3c02bf80 	lui	v0,0xbf80
9d001fc4:	ac433020 	sw	v1,12320(v0)
      break; 
9d001fc8:	0b400931 	j	9d0024c4 <.LBE2+0x2f4>
9d001fcc:	00000000 	nop

9d001fd0 <.LBB2>:

    case ITEST:
    {
      // Reference signal:
      int ref;
      if (counter < 25){ref = 200;}
9d001fd0:	8f828048 	lw	v0,-32696(gp)
9d001fd4:	28420019 	slti	v0,v0,25
9d001fd8:	10400005 	beqz	v0,9d001ff0 <.LBB2+0x20>
9d001fdc:	00000000 	nop
9d001fe0:	240200c8 	li	v0,200
9d001fe4:	afc20014 	sw	v0,20(s8)
9d001fe8:	0b40080e 	j	9d002038 <.LBB2+0x68>
9d001fec:	00000000 	nop
      else if (counter < 50){ref = -200;}
9d001ff0:	8f828048 	lw	v0,-32696(gp)
9d001ff4:	28420032 	slti	v0,v0,50
9d001ff8:	10400005 	beqz	v0,9d002010 <.LBB2+0x40>
9d001ffc:	00000000 	nop
9d002000:	2402ff38 	li	v0,-200
9d002004:	afc20014 	sw	v0,20(s8)
9d002008:	0b40080e 	j	9d002038 <.LBB2+0x68>
9d00200c:	00000000 	nop
      else if (counter < 75){ref = 200;}
9d002010:	8f828048 	lw	v0,-32696(gp)
9d002014:	2842004b 	slti	v0,v0,75
9d002018:	10400005 	beqz	v0,9d002030 <.LBB2+0x60>
9d00201c:	00000000 	nop
9d002020:	240200c8 	li	v0,200
9d002024:	afc20014 	sw	v0,20(s8)
9d002028:	0b40080e 	j	9d002038 <.LBB2+0x68>
9d00202c:	00000000 	nop
      else{ref = 200;}
9d002030:	240200c8 	li	v0,200
9d002034:	afc20014 	sw	v0,20(s8)
      
      // PI current control signal:
      sensed_cur = read_cur_amps();
9d002038:	0f4028d8 	jal	9d00a360 <read_cur_amps>
9d00203c:	00000000 	nop
9d002040:	afc20018 	sw	v0,24(s8)
      e = ref - sensed_cur;
9d002044:	8fc30014 	lw	v1,20(s8)
9d002048:	8fc20018 	lw	v0,24(s8)
9d00204c:	00621023 	subu	v0,v1,v0
9d002050:	afc2001c 	sw	v0,28(s8)

      // if (EIint < 800){
      //   EIint = EIint + e;
      // }

      EIint = EIint + e;
9d002054:	8f838038 	lw	v1,-32712(gp)
9d002058:	8fc2001c 	lw	v0,28(s8)
9d00205c:	00621021 	addu	v0,v1,v0
9d002060:	af828038 	sw	v0,-32712(gp)
      u = KpI*e + KiI*EIint;
9d002064:	8fc4001c 	lw	a0,28(s8)
9d002068:	0f402f72 	jal	9d00bdc8 <__floatsisf>
9d00206c:	00000000 	nop
9d002070:	00401821 	move	v1,v0
9d002074:	8f828010 	lw	v0,-32752(gp)
9d002078:	00602021 	move	a0,v1
9d00207c:	00402821 	move	a1,v0
9d002080:	0f40275e 	jal	9d009d78 <__mulsf3>
9d002084:	00000000 	nop
9d002088:	00408021 	move	s0,v0
9d00208c:	8f828038 	lw	v0,-32712(gp)
9d002090:	00402021 	move	a0,v0
9d002094:	0f402f72 	jal	9d00bdc8 <__floatsisf>
9d002098:	00000000 	nop
9d00209c:	00401821 	move	v1,v0
9d0020a0:	8f828014 	lw	v0,-32748(gp)
9d0020a4:	00602021 	move	a0,v1
9d0020a8:	00402821 	move	a1,v0
9d0020ac:	0f40275e 	jal	9d009d78 <__mulsf3>
9d0020b0:	00000000 	nop
9d0020b4:	02002021 	move	a0,s0
9d0020b8:	00402821 	move	a1,v0
9d0020bc:	0f40259b 	jal	9d00966c <__addsf3>
9d0020c0:	00000000 	nop
9d0020c4:	00402021 	move	a0,v0
9d0020c8:	0f402dff 	jal	9d00b7fc <__fixsfsi>
9d0020cc:	00000000 	nop
9d0020d0:	afc20020 	sw	v0,32(s8)
      if (u < 0){
9d0020d4:	8fc20020 	lw	v0,32(s8)
9d0020d8:	04410008 	bgez	v0,9d0020fc <.LBB2+0x12c>
9d0020dc:	00000000 	nop
        LATDbits.LATD8 = 1;    // output = high => motor in reverse
9d0020e0:	3c03bf88 	lui	v1,0xbf88
9d0020e4:	946260e0 	lhu	v0,24800(v1)
9d0020e8:	24040001 	li	a0,1
9d0020ec:	7c824204 	ins	v0,a0,0x8,0x1
9d0020f0:	a46260e0 	sh	v0,24800(v1)
9d0020f4:	0b400843 	j	9d00210c <.LBB2+0x13c>
9d0020f8:	00000000 	nop
      }
      else{
        LATDbits.LATD8 = 0;    // output = low => motor in forward
9d0020fc:	3c03bf88 	lui	v1,0xbf88
9d002100:	946260e0 	lhu	v0,24800(v1)
9d002104:	7c024204 	ins	v0,zero,0x8,0x1
9d002108:	a46260e0 	sh	v0,24800(v1)
      }
      unew = abs(u);
9d00210c:	8fc20020 	lw	v0,32(s8)
9d002110:	000217c3 	sra	v0,v0,0x1f
9d002114:	8fc30020 	lw	v1,32(s8)
9d002118:	00431826 	xor	v1,v0,v1
9d00211c:	00621023 	subu	v0,v1,v0
9d002120:	afc20010 	sw	v0,16(s8)
      
      if (unew > 98){unew = 98;}   
9d002124:	8fc20010 	lw	v0,16(s8)
9d002128:	28420063 	slti	v0,v0,99
9d00212c:	14400003 	bnez	v0,9d00213c <.LBB2+0x16c>
9d002130:	00000000 	nop
9d002134:	24020062 	li	v0,98
9d002138:	afc20010 	sw	v0,16(s8)
      OC1RS = unew * 40;
9d00213c:	8fc20010 	lw	v0,16(s8)
9d002140:	000210c0 	sll	v0,v0,0x3
9d002144:	00021880 	sll	v1,v0,0x2
9d002148:	00431021 	addu	v0,v0,v1
9d00214c:	00401821 	move	v1,v0
9d002150:	3c02bf80 	lui	v0,0xbf80
9d002154:	ac433020 	sw	v1,12320(v0)

      // if (unew > 600){unew = 600;}
      // OC1RS = (unsigned int)((unew/600.0)*PR3);

      // Store data for MATLAB:
      SENarray[counter] = sensed_cur;
9d002158:	8f838048 	lw	v1,-32696(gp)
9d00215c:	3c02a000 	lui	v0,0xa000
9d002160:	00031880 	sll	v1,v1,0x2
9d002164:	24420048 	addiu	v0,v0,72
9d002168:	00621021 	addu	v0,v1,v0
9d00216c:	8fc30018 	lw	v1,24(s8)
9d002170:	ac430000 	sw	v1,0(v0)
      REFarray[counter] = ref;
9d002174:	8f838048 	lw	v1,-32696(gp)
9d002178:	3c02a000 	lui	v0,0xa000
9d00217c:	00031880 	sll	v1,v1,0x2
9d002180:	244201d8 	addiu	v0,v0,472
9d002184:	00621021 	addu	v0,v1,v0
9d002188:	8fc30014 	lw	v1,20(s8)
9d00218c:	ac430000 	sw	v1,0(v0)

      counter++;
9d002190:	8f828048 	lw	v0,-32696(gp)
9d002194:	24420001 	addiu	v0,v0,1
9d002198:	af828048 	sw	v0,-32696(gp)
      if (counter == 100){
9d00219c:	8f838048 	lw	v1,-32696(gp)
9d0021a0:	24020064 	li	v0,100
9d0021a4:	14620008 	bne	v1,v0,9d0021c8 <.LBB2+0x1f8>
9d0021a8:	00000000 	nop
        EIint = 0;     // reset integral of control error
9d0021ac:	af808038 	sw	zero,-32712(gp)
        counter = 0;   // reset counter
9d0021b0:	af808048 	sw	zero,-32696(gp)
        set_mode(IDLE);
9d0021b4:	00002021 	move	a0,zero
9d0021b8:	0f402fb4 	jal	9d00bed0 <set_mode>
9d0021bc:	00000000 	nop
      }
      break;
9d0021c0:	0b400931 	j	9d0024c4 <.LBE2+0x2f4>
9d0021c4:	00000000 	nop
9d0021c8:	0b400931 	j	9d0024c4 <.LBE2+0x2f4>
9d0021cc:	00000000 	nop

9d0021d0 <.LBE2>:
    }

    case HOLD:
    {
      // PI current control signal:
      sensed_cur = read_cur_amps();
9d0021d0:	0f4028d8 	jal	9d00a360 <read_cur_amps>
9d0021d4:	00000000 	nop
9d0021d8:	afc20018 	sw	v0,24(s8)
      e = u_pos - sensed_cur;
9d0021dc:	8f838030 	lw	v1,-32720(gp)
9d0021e0:	8fc20018 	lw	v0,24(s8)
9d0021e4:	00621023 	subu	v0,v1,v0
9d0021e8:	afc2001c 	sw	v0,28(s8)

      EIint = EIint + e;
9d0021ec:	8f838038 	lw	v1,-32712(gp)
9d0021f0:	8fc2001c 	lw	v0,28(s8)
9d0021f4:	00621021 	addu	v0,v1,v0
9d0021f8:	af828038 	sw	v0,-32712(gp)
      
      // if (EIint < 1000){
      //   EIint = EIint + e;
      // }

      u = KpI*e + KiI*EIint;
9d0021fc:	8fc4001c 	lw	a0,28(s8)
9d002200:	0f402f72 	jal	9d00bdc8 <__floatsisf>
9d002204:	00000000 	nop
9d002208:	00401821 	move	v1,v0
9d00220c:	8f828010 	lw	v0,-32752(gp)
9d002210:	00602021 	move	a0,v1
9d002214:	00402821 	move	a1,v0
9d002218:	0f40275e 	jal	9d009d78 <__mulsf3>
9d00221c:	00000000 	nop
9d002220:	00408021 	move	s0,v0
9d002224:	8f828038 	lw	v0,-32712(gp)
9d002228:	00402021 	move	a0,v0
9d00222c:	0f402f72 	jal	9d00bdc8 <__floatsisf>
9d002230:	00000000 	nop
9d002234:	00401821 	move	v1,v0
9d002238:	8f828014 	lw	v0,-32748(gp)
9d00223c:	00602021 	move	a0,v1
9d002240:	00402821 	move	a1,v0
9d002244:	0f40275e 	jal	9d009d78 <__mulsf3>
9d002248:	00000000 	nop
9d00224c:	02002021 	move	a0,s0
9d002250:	00402821 	move	a1,v0
9d002254:	0f40259b 	jal	9d00966c <__addsf3>
9d002258:	00000000 	nop
9d00225c:	00402021 	move	a0,v0
9d002260:	0f402dff 	jal	9d00b7fc <__fixsfsi>
9d002264:	00000000 	nop
9d002268:	afc20020 	sw	v0,32(s8)
      if (u < 0){
9d00226c:	8fc20020 	lw	v0,32(s8)
9d002270:	04410008 	bgez	v0,9d002294 <.LBE2+0xc4>
9d002274:	00000000 	nop
        LATDbits.LATD8 = 1;    // output = high => motor in reverse
9d002278:	3c03bf88 	lui	v1,0xbf88
9d00227c:	946260e0 	lhu	v0,24800(v1)
9d002280:	24040001 	li	a0,1
9d002284:	7c824204 	ins	v0,a0,0x8,0x1
9d002288:	a46260e0 	sh	v0,24800(v1)
9d00228c:	0b4008a9 	j	9d0022a4 <.LBE2+0xd4>
9d002290:	00000000 	nop
      }
      else{
        LATDbits.LATD8 = 0;    // output = low => motor in forward
9d002294:	3c03bf88 	lui	v1,0xbf88
9d002298:	946260e0 	lhu	v0,24800(v1)
9d00229c:	7c024204 	ins	v0,zero,0x8,0x1
9d0022a0:	a46260e0 	sh	v0,24800(v1)
      }
      unew = abs(u);
9d0022a4:	8fc20020 	lw	v0,32(s8)
9d0022a8:	000217c3 	sra	v0,v0,0x1f
9d0022ac:	8fc30020 	lw	v1,32(s8)
9d0022b0:	00431826 	xor	v1,v0,v1
9d0022b4:	00621023 	subu	v0,v1,v0
9d0022b8:	afc20010 	sw	v0,16(s8)
      if (unew > 98){unew = 98;}
9d0022bc:	8fc20010 	lw	v0,16(s8)
9d0022c0:	28420063 	slti	v0,v0,99
9d0022c4:	14400003 	bnez	v0,9d0022d4 <.LBE2+0x104>
9d0022c8:	00000000 	nop
9d0022cc:	24020062 	li	v0,98
9d0022d0:	afc20010 	sw	v0,16(s8)
      
      OC1RS = (unsigned int)(((float)(unew)/100.0)*PR3);
9d0022d4:	8fc40010 	lw	a0,16(s8)
9d0022d8:	0f402f72 	jal	9d00bdc8 <__floatsisf>
9d0022dc:	00000000 	nop
9d0022e0:	00401821 	move	v1,v0
9d0022e4:	3c029d01 	lui	v0,0x9d01
9d0022e8:	00602021 	move	a0,v1
9d0022ec:	8c45c294 	lw	a1,-15724(v0)
9d0022f0:	0f4026d2 	jal	9d009b48 <.LFE6>
9d0022f4:	00000000 	nop
9d0022f8:	00408021 	move	s0,v0
9d0022fc:	3c02bf80 	lui	v0,0xbf80
9d002300:	8c420a20 	lw	v0,2592(v0)
9d002304:	00402021 	move	a0,v0
9d002308:	0f402fdc 	jal	9d00bf70 <.LFE4>
9d00230c:	00000000 	nop
9d002310:	02002021 	move	a0,s0
9d002314:	00402821 	move	a1,v0
9d002318:	0f40275e 	jal	9d009d78 <__mulsf3>
9d00231c:	00000000 	nop
9d002320:	00402021 	move	a0,v0
9d002324:	0f402e5f 	jal	9d00b97c <__fixunssfsi>
9d002328:	00000000 	nop
9d00232c:	00401821 	move	v1,v0
9d002330:	3c02bf80 	lui	v0,0xbf80
9d002334:	ac433020 	sw	v1,12320(v0)
      break;
9d002338:	0b400931 	j	9d0024c4 <.LBE2+0x2f4>
9d00233c:	00000000 	nop
    }

    case TRACK:
    {
      // PI current control signal:
      sensed_cur = read_cur_amps();
9d002340:	0f4028d8 	jal	9d00a360 <read_cur_amps>
9d002344:	00000000 	nop
9d002348:	afc20018 	sw	v0,24(s8)
      e = u_pos - sensed_cur;
9d00234c:	8f838030 	lw	v1,-32720(gp)
9d002350:	8fc20018 	lw	v0,24(s8)
9d002354:	00621023 	subu	v0,v1,v0
9d002358:	afc2001c 	sw	v0,28(s8)

      EIint = EIint + e;
9d00235c:	8f838038 	lw	v1,-32712(gp)
9d002360:	8fc2001c 	lw	v0,28(s8)
9d002364:	00621021 	addu	v0,v1,v0
9d002368:	af828038 	sw	v0,-32712(gp)
      
      // if EIint < 1000{
      //   EIint = EIint + e;
      // }

      u = KpI*e + KiI*EIint;
9d00236c:	8fc4001c 	lw	a0,28(s8)
9d002370:	0f402f72 	jal	9d00bdc8 <__floatsisf>
9d002374:	00000000 	nop
9d002378:	00401821 	move	v1,v0
9d00237c:	8f828010 	lw	v0,-32752(gp)
9d002380:	00602021 	move	a0,v1
9d002384:	00402821 	move	a1,v0
9d002388:	0f40275e 	jal	9d009d78 <__mulsf3>
9d00238c:	00000000 	nop
9d002390:	00408021 	move	s0,v0
9d002394:	8f828038 	lw	v0,-32712(gp)
9d002398:	00402021 	move	a0,v0
9d00239c:	0f402f72 	jal	9d00bdc8 <__floatsisf>
9d0023a0:	00000000 	nop
9d0023a4:	00401821 	move	v1,v0
9d0023a8:	8f828014 	lw	v0,-32748(gp)
9d0023ac:	00602021 	move	a0,v1
9d0023b0:	00402821 	move	a1,v0
9d0023b4:	0f40275e 	jal	9d009d78 <__mulsf3>
9d0023b8:	00000000 	nop
9d0023bc:	02002021 	move	a0,s0
9d0023c0:	00402821 	move	a1,v0
9d0023c4:	0f40259b 	jal	9d00966c <__addsf3>
9d0023c8:	00000000 	nop
9d0023cc:	00402021 	move	a0,v0
9d0023d0:	0f402dff 	jal	9d00b7fc <__fixsfsi>
9d0023d4:	00000000 	nop
9d0023d8:	afc20020 	sw	v0,32(s8)
      if (u < 0){
9d0023dc:	8fc20020 	lw	v0,32(s8)
9d0023e0:	04410008 	bgez	v0,9d002404 <.LBE2+0x234>
9d0023e4:	00000000 	nop
        LATDbits.LATD8 = 1;    // output = high => motor in reverse
9d0023e8:	3c03bf88 	lui	v1,0xbf88
9d0023ec:	946260e0 	lhu	v0,24800(v1)
9d0023f0:	24040001 	li	a0,1
9d0023f4:	7c824204 	ins	v0,a0,0x8,0x1
9d0023f8:	a46260e0 	sh	v0,24800(v1)
9d0023fc:	0b400905 	j	9d002414 <.LBE2+0x244>
9d002400:	00000000 	nop
      }
      else{
        LATDbits.LATD8 = 0;    // output = low => motor in forward
9d002404:	3c03bf88 	lui	v1,0xbf88
9d002408:	946260e0 	lhu	v0,24800(v1)
9d00240c:	7c024204 	ins	v0,zero,0x8,0x1
9d002410:	a46260e0 	sh	v0,24800(v1)
      }
      unew = abs(u);
9d002414:	8fc20020 	lw	v0,32(s8)
9d002418:	000217c3 	sra	v0,v0,0x1f
9d00241c:	8fc30020 	lw	v1,32(s8)
9d002420:	00431826 	xor	v1,v0,v1
9d002424:	00621023 	subu	v0,v1,v0
9d002428:	afc20010 	sw	v0,16(s8)
      if (unew > 98){unew = 98;}
9d00242c:	8fc20010 	lw	v0,16(s8)
9d002430:	28420063 	slti	v0,v0,99
9d002434:	14400003 	bnez	v0,9d002444 <.LBE2+0x274>
9d002438:	00000000 	nop
9d00243c:	24020062 	li	v0,98
9d002440:	afc20010 	sw	v0,16(s8)
      
      OC1RS = (unsigned int)(((float)(unew)/100.0)*PR3);
9d002444:	8fc40010 	lw	a0,16(s8)
9d002448:	0f402f72 	jal	9d00bdc8 <__floatsisf>
9d00244c:	00000000 	nop
9d002450:	00401821 	move	v1,v0
9d002454:	3c029d01 	lui	v0,0x9d01
9d002458:	00602021 	move	a0,v1
9d00245c:	8c45c294 	lw	a1,-15724(v0)
9d002460:	0f4026d2 	jal	9d009b48 <.LFE6>
9d002464:	00000000 	nop
9d002468:	00408021 	move	s0,v0
9d00246c:	3c02bf80 	lui	v0,0xbf80
9d002470:	8c420a20 	lw	v0,2592(v0)
9d002474:	00402021 	move	a0,v0
9d002478:	0f402fdc 	jal	9d00bf70 <.LFE4>
9d00247c:	00000000 	nop
9d002480:	02002021 	move	a0,s0
9d002484:	00402821 	move	a1,v0
9d002488:	0f40275e 	jal	9d009d78 <__mulsf3>
9d00248c:	00000000 	nop
9d002490:	00402021 	move	a0,v0
9d002494:	0f402e5f 	jal	9d00b97c <__fixunssfsi>
9d002498:	00000000 	nop
9d00249c:	00401821 	move	v1,v0
9d0024a0:	3c02bf80 	lui	v0,0xbf80
9d0024a4:	ac433020 	sw	v1,12320(v0)
      break;
9d0024a8:	0b400931 	j	9d0024c4 <.LBE2+0x2f4>
9d0024ac:	00000000 	nop
    }

    default:
    {
      NU32_LED2 = 0;  // turn on LED2 to indicate an error
9d0024b0:	3c03bf88 	lui	v1,0xbf88
9d0024b4:	90626160 	lbu	v0,24928(v1)
9d0024b8:	7c020844 	ins	v0,zero,0x1,0x1
9d0024bc:	a0626160 	sb	v0,24928(v1)
      break;
9d0024c0:	00000000 	nop
    }

  }
  IFS0bits.T2IF = 0;    // clear interrupt flag
9d0024c4:	3c03bf88 	lui	v1,0xbf88
9d0024c8:	8c621030 	lw	v0,4144(v1)
9d0024cc:	7c024204 	ins	v0,zero,0x8,0x1
9d0024d0:	ac621030 	sw	v0,4144(v1)
}
9d0024d4:	03c0e821 	move	sp,s8
9d0024d8:	8fa2007c 	lw	v0,124(sp)
9d0024dc:	00400013 	mtlo	v0
9d0024e0:	8fa30078 	lw	v1,120(sp)
9d0024e4:	00600011 	mthi	v1
9d0024e8:	8fbf0074 	lw	ra,116(sp)
9d0024ec:	8fbe0070 	lw	s8,112(sp)
9d0024f0:	8fb9006c 	lw	t9,108(sp)
9d0024f4:	8fb80068 	lw	t8,104(sp)
9d0024f8:	8fb00064 	lw	s0,100(sp)
9d0024fc:	8faf0060 	lw	t7,96(sp)
9d002500:	8fae005c 	lw	t6,92(sp)
9d002504:	8fad0058 	lw	t5,88(sp)
9d002508:	8fac0054 	lw	t4,84(sp)
9d00250c:	8fab0050 	lw	t3,80(sp)
9d002510:	8faa004c 	lw	t2,76(sp)
9d002514:	8fa90048 	lw	t1,72(sp)
9d002518:	8fa80044 	lw	t0,68(sp)
9d00251c:	8fa70040 	lw	a3,64(sp)
9d002520:	8fa6003c 	lw	a2,60(sp)
9d002524:	8fa50038 	lw	a1,56(sp)
9d002528:	8fa40034 	lw	a0,52(sp)
9d00252c:	8fa30030 	lw	v1,48(sp)
9d002530:	8fa2002c 	lw	v0,44(sp)
9d002534:	8fa10028 	lw	at,40(sp)
9d002538:	41606000 	di
9d00253c:	000000c0 	ehb
9d002540:	8fba008c 	lw	k0,140(sp)
9d002544:	8fbb0088 	lw	k1,136(sp)
9d002548:	409a7000 	mtc0	k0,c0_epc
9d00254c:	8fba0084 	lw	k0,132(sp)
9d002550:	27bd0090 	addiu	sp,sp,144
9d002554:	409a6002 	mtc0	k0,c0_srsctl
9d002558:	41dde800 	wrpgpr	sp,sp
9d00255c:	409b6000 	mtc0	k1,c0_status
9d002560:	42000018 	eret

9d002564 <PositionController>:

void __ISR(_TIMER_4_VECTOR, IPL7SOFT) PositionController(void){
9d002564:	415de800 	rdpgpr	sp,sp
9d002568:	401a7000 	mfc0	k0,c0_epc
9d00256c:	401b6000 	mfc0	k1,c0_status
9d002570:	27bdff78 	addiu	sp,sp,-136
9d002574:	afbb0084 	sw	k1,132(sp)
9d002578:	7c1b7844 	ins	k1,zero,0x1,0xf
9d00257c:	377b1c00 	ori	k1,k1,0x1c00
9d002580:	409b6000 	mtc0	k1,c0_status
9d002584:	afbf006c 	sw	ra,108(sp)
9d002588:	afbe0068 	sw	s8,104(sp)
9d00258c:	afb90064 	sw	t9,100(sp)
9d002590:	afb80060 	sw	t8,96(sp)
9d002594:	afb0005c 	sw	s0,92(sp)
9d002598:	afaf0058 	sw	t7,88(sp)
9d00259c:	afae0054 	sw	t6,84(sp)
9d0025a0:	afad0050 	sw	t5,80(sp)
9d0025a4:	afac004c 	sw	t4,76(sp)
9d0025a8:	afab0048 	sw	t3,72(sp)
9d0025ac:	afaa0044 	sw	t2,68(sp)
9d0025b0:	afa90040 	sw	t1,64(sp)
9d0025b4:	afa8003c 	sw	t0,60(sp)
9d0025b8:	afa70038 	sw	a3,56(sp)
9d0025bc:	afa60034 	sw	a2,52(sp)
9d0025c0:	afa50030 	sw	a1,48(sp)
9d0025c4:	afa4002c 	sw	a0,44(sp)
9d0025c8:	afa30028 	sw	v1,40(sp)
9d0025cc:	afa20024 	sw	v0,36(sp)
9d0025d0:	afa10020 	sw	at,32(sp)
9d0025d4:	00001012 	mflo	v0
9d0025d8:	afa20074 	sw	v0,116(sp)
9d0025dc:	00001810 	mfhi	v1
9d0025e0:	afa30070 	sw	v1,112(sp)
9d0025e4:	03a0f021 	move	s8,sp
  static int ctr = 0;          // initialize counter once
  int sensed_ang, ref_ang;     // angles in deg
  int e_pos, u_pos_proto;

  switch (get_mode()) {
9d0025e8:	0f402fbf 	jal	9d00befc <get_mode>
9d0025ec:	00000000 	nop
9d0025f0:	2c430005 	sltiu	v1,v0,5
9d0025f4:	106000ce 	beqz	v1,9d002930 <.LBE4>
9d0025f8:	00000000 	nop
9d0025fc:	00021880 	sll	v1,v0,0x2
9d002600:	3c029d00 	lui	v0,0x9d00
9d002604:	24422618 	addiu	v0,v0,9752
9d002608:	00621021 	addu	v0,v1,v0
9d00260c:	8c420000 	lw	v0,0(v0)
9d002610:	00400008 	jr	v0
9d002614:	00000000 	nop
9d002618:	9d002948 	0x9d002948
9d00261c:	9d002948 	0x9d002948
9d002620:	9d002948 	0x9d002948
9d002624:	9d00262c 	0x9d00262c
9d002628:	9d00276c 	0x9d00276c

9d00262c <.LBB3>:
      break;
    }
    
    case HOLD:
    {
      sensed_ang = encoder_degs();
9d00262c:	0f402666 	jal	9d009998 <encoder_degs>
9d002630:	00000000 	nop
9d002634:	afc20010 	sw	v0,16(s8)
      ref_ang = ang_target;
9d002638:	8f82802c 	lw	v0,-32724(gp)
9d00263c:	afc20014 	sw	v0,20(s8)
      e_pos = ref_ang - sensed_ang;
9d002640:	8fc30014 	lw	v1,20(s8)
9d002644:	8fc20010 	lw	v0,16(s8)
9d002648:	00621023 	subu	v0,v1,v0
9d00264c:	afc20018 	sw	v0,24(s8)
      EPint = EPint + e_pos;
9d002650:	8f83803c 	lw	v1,-32708(gp)
9d002654:	8fc20018 	lw	v0,24(s8)
9d002658:	00621021 	addu	v0,v1,v0
9d00265c:	af82803c 	sw	v0,-32708(gp)

      // position control signal:
      u_pos_proto = KpP*e_pos + KiP*EPint + KdP*(e_pos - e_pos_prev);
9d002660:	8fc40018 	lw	a0,24(s8)
9d002664:	0f402f72 	jal	9d00bdc8 <__floatsisf>
9d002668:	00000000 	nop
9d00266c:	00401821 	move	v1,v0
9d002670:	8f828018 	lw	v0,-32744(gp)
9d002674:	00602021 	move	a0,v1
9d002678:	00402821 	move	a1,v0
9d00267c:	0f40275e 	jal	9d009d78 <__mulsf3>
9d002680:	00000000 	nop
9d002684:	00408021 	move	s0,v0
9d002688:	8f82803c 	lw	v0,-32708(gp)
9d00268c:	00402021 	move	a0,v0
9d002690:	0f402f72 	jal	9d00bdc8 <__floatsisf>
9d002694:	00000000 	nop
9d002698:	00401821 	move	v1,v0
9d00269c:	8f828034 	lw	v0,-32716(gp)
9d0026a0:	00602021 	move	a0,v1
9d0026a4:	00402821 	move	a1,v0
9d0026a8:	0f40275e 	jal	9d009d78 <__mulsf3>
9d0026ac:	00000000 	nop
9d0026b0:	02002021 	move	a0,s0
9d0026b4:	00402821 	move	a1,v0
9d0026b8:	0f40259b 	jal	9d00966c <__addsf3>
9d0026bc:	00000000 	nop
9d0026c0:	00408021 	move	s0,v0
9d0026c4:	8f828040 	lw	v0,-32704(gp)
9d0026c8:	8fc30018 	lw	v1,24(s8)
9d0026cc:	00621023 	subu	v0,v1,v0
9d0026d0:	00402021 	move	a0,v0
9d0026d4:	0f402f72 	jal	9d00bdc8 <__floatsisf>
9d0026d8:	00000000 	nop
9d0026dc:	00401821 	move	v1,v0
9d0026e0:	8f82801c 	lw	v0,-32740(gp)
9d0026e4:	00602021 	move	a0,v1
9d0026e8:	00402821 	move	a1,v0
9d0026ec:	0f40275e 	jal	9d009d78 <__mulsf3>
9d0026f0:	00000000 	nop
9d0026f4:	02002021 	move	a0,s0
9d0026f8:	00402821 	move	a1,v0
9d0026fc:	0f40259b 	jal	9d00966c <__addsf3>
9d002700:	00000000 	nop
9d002704:	00402021 	move	a0,v0
9d002708:	0f402dff 	jal	9d00b7fc <__fixsfsi>
9d00270c:	00000000 	nop
9d002710:	afc2001c 	sw	v0,28(s8)
      if (u_pos_proto > 300){u_pos = 300;}
9d002714:	8fc2001c 	lw	v0,28(s8)
9d002718:	2842012d 	slti	v0,v0,301
9d00271c:	14400005 	bnez	v0,9d002734 <.LBB3+0x108>
9d002720:	00000000 	nop
9d002724:	2402012c 	li	v0,300
9d002728:	af828030 	sw	v0,-32720(gp)
9d00272c:	0b4009d7 	j	9d00275c <.LBB3+0x130>
9d002730:	00000000 	nop
      else if (u_pos_proto < -300){u_pos = -300;}
9d002734:	8fc2001c 	lw	v0,28(s8)
9d002738:	2842fed4 	slti	v0,v0,-300
9d00273c:	10400005 	beqz	v0,9d002754 <.LBB3+0x128>
9d002740:	00000000 	nop
9d002744:	2402fed4 	li	v0,-300
9d002748:	af828030 	sw	v0,-32720(gp)
9d00274c:	0b4009d7 	j	9d00275c <.LBB3+0x130>
9d002750:	00000000 	nop
      else u_pos = u_pos_proto;
9d002754:	8fc2001c 	lw	v0,28(s8)
9d002758:	af828030 	sw	v0,-32720(gp)
      e_pos_prev = e_pos;
9d00275c:	8fc20018 	lw	v0,24(s8)
9d002760:	af828040 	sw	v0,-32704(gp)
      break;
9d002764:	0b400a53 	j	9d00294c <.LBE4+0x1c>
9d002768:	00000000 	nop

9d00276c <.LBB4>:
    }

    case TRACK:
    {
      sensed_ang = encoder_degs();
9d00276c:	0f402666 	jal	9d009998 <encoder_degs>
9d002770:	00000000 	nop
9d002774:	afc20010 	sw	v0,16(s8)
      ref_ang = REFtraj[ctr];
9d002778:	8f83804c 	lw	v1,-32692(gp)
9d00277c:	3c02a000 	lui	v0,0xa000
9d002780:	00031880 	sll	v1,v1,0x2
9d002784:	24420368 	addiu	v0,v0,872
9d002788:	00621021 	addu	v0,v1,v0
9d00278c:	8c420000 	lw	v0,0(v0)
9d002790:	afc20014 	sw	v0,20(s8)
      e_pos = ref_ang - sensed_ang;
9d002794:	8fc30014 	lw	v1,20(s8)
9d002798:	8fc20010 	lw	v0,16(s8)
9d00279c:	00621023 	subu	v0,v1,v0
9d0027a0:	afc20018 	sw	v0,24(s8)
      EPint = EPint + e_pos;
9d0027a4:	8f83803c 	lw	v1,-32708(gp)
9d0027a8:	8fc20018 	lw	v0,24(s8)
9d0027ac:	00621021 	addu	v0,v1,v0
9d0027b0:	af82803c 	sw	v0,-32708(gp)

      // position control signal:
      u_pos_proto = KpP*e_pos + KiP*EPint + KdP*(e_pos - e_pos_prev);
9d0027b4:	8fc40018 	lw	a0,24(s8)
9d0027b8:	0f402f72 	jal	9d00bdc8 <__floatsisf>
9d0027bc:	00000000 	nop
9d0027c0:	00401821 	move	v1,v0
9d0027c4:	8f828018 	lw	v0,-32744(gp)
9d0027c8:	00602021 	move	a0,v1
9d0027cc:	00402821 	move	a1,v0
9d0027d0:	0f40275e 	jal	9d009d78 <__mulsf3>
9d0027d4:	00000000 	nop
9d0027d8:	00408021 	move	s0,v0
9d0027dc:	8f82803c 	lw	v0,-32708(gp)
9d0027e0:	00402021 	move	a0,v0
9d0027e4:	0f402f72 	jal	9d00bdc8 <__floatsisf>
9d0027e8:	00000000 	nop
9d0027ec:	00401821 	move	v1,v0
9d0027f0:	8f828034 	lw	v0,-32716(gp)
9d0027f4:	00602021 	move	a0,v1
9d0027f8:	00402821 	move	a1,v0
9d0027fc:	0f40275e 	jal	9d009d78 <__mulsf3>
9d002800:	00000000 	nop
9d002804:	02002021 	move	a0,s0
9d002808:	00402821 	move	a1,v0
9d00280c:	0f40259b 	jal	9d00966c <__addsf3>
9d002810:	00000000 	nop
9d002814:	00408021 	move	s0,v0
9d002818:	8f828040 	lw	v0,-32704(gp)
9d00281c:	8fc30018 	lw	v1,24(s8)
9d002820:	00621023 	subu	v0,v1,v0
9d002824:	00402021 	move	a0,v0
9d002828:	0f402f72 	jal	9d00bdc8 <__floatsisf>
9d00282c:	00000000 	nop
9d002830:	00401821 	move	v1,v0
9d002834:	8f82801c 	lw	v0,-32740(gp)
9d002838:	00602021 	move	a0,v1
9d00283c:	00402821 	move	a1,v0
9d002840:	0f40275e 	jal	9d009d78 <__mulsf3>
9d002844:	00000000 	nop
9d002848:	02002021 	move	a0,s0
9d00284c:	00402821 	move	a1,v0
9d002850:	0f40259b 	jal	9d00966c <__addsf3>
9d002854:	00000000 	nop
9d002858:	00402021 	move	a0,v0
9d00285c:	0f402dff 	jal	9d00b7fc <__fixsfsi>
9d002860:	00000000 	nop
9d002864:	afc2001c 	sw	v0,28(s8)
      if (u_pos_proto > 300){u_pos = 300;}
9d002868:	8fc2001c 	lw	v0,28(s8)
9d00286c:	2842012d 	slti	v0,v0,301
9d002870:	14400005 	bnez	v0,9d002888 <.LBB4+0x11c>
9d002874:	00000000 	nop
9d002878:	2402012c 	li	v0,300
9d00287c:	af828030 	sw	v0,-32720(gp)
9d002880:	0b400a2c 	j	9d0028b0 <.LBB4+0x144>
9d002884:	00000000 	nop
      else if (u_pos_proto < -300){u_pos = -300;}
9d002888:	8fc2001c 	lw	v0,28(s8)
9d00288c:	2842fed4 	slti	v0,v0,-300
9d002890:	10400005 	beqz	v0,9d0028a8 <.LBB4+0x13c>
9d002894:	00000000 	nop
9d002898:	2402fed4 	li	v0,-300
9d00289c:	af828030 	sw	v0,-32720(gp)
9d0028a0:	0b400a2c 	j	9d0028b0 <.LBB4+0x144>
9d0028a4:	00000000 	nop
      else u_pos = u_pos_proto;
9d0028a8:	8fc2001c 	lw	v0,28(s8)
9d0028ac:	af828030 	sw	v0,-32720(gp)
      e_pos_prev = e_pos;
9d0028b0:	8fc20018 	lw	v0,24(s8)
9d0028b4:	af828040 	sw	v0,-32704(gp)

      // Store data for MATLAB:
      SENtraj[ctr] = sensed_ang;
9d0028b8:	8f83804c 	lw	v1,-32692(gp)
9d0028bc:	3c02a000 	lui	v0,0xa000
9d0028c0:	00031880 	sll	v1,v1,0x2
9d0028c4:	244222a8 	addiu	v0,v0,8872
9d0028c8:	00621021 	addu	v0,v1,v0
9d0028cc:	8fc30010 	lw	v1,16(s8)
9d0028d0:	ac430000 	sw	v1,0(v0)

      ctr++;
9d0028d4:	8f82804c 	lw	v0,-32692(gp)
9d0028d8:	24420001 	addiu	v0,v0,1
9d0028dc:	af82804c 	sw	v0,-32692(gp)
      if (ctr == num_samples){
9d0028e0:	8f83804c 	lw	v1,-32692(gp)
9d0028e4:	8f828044 	lw	v0,-32700(gp)
9d0028e8:	1462000f 	bne	v1,v0,9d002928 <.LBB4+0x1bc>
9d0028ec:	00000000 	nop
        ang_target = REFtraj[num_samples-1];  // set last ref as target for HOLD
9d0028f0:	8f828044 	lw	v0,-32700(gp)
9d0028f4:	2443ffff 	addiu	v1,v0,-1
9d0028f8:	3c02a000 	lui	v0,0xa000
9d0028fc:	00031880 	sll	v1,v1,0x2
9d002900:	24420368 	addiu	v0,v0,872
9d002904:	00621021 	addu	v0,v1,v0
9d002908:	8c420000 	lw	v0,0(v0)
9d00290c:	af82802c 	sw	v0,-32724(gp)
        ctr = 0;                              // reset counter
9d002910:	af80804c 	sw	zero,-32692(gp)
        set_mode(HOLD);
9d002914:	24040003 	li	a0,3
9d002918:	0f402fb4 	jal	9d00bed0 <set_mode>
9d00291c:	00000000 	nop
      }
      break;
9d002920:	0b400a53 	j	9d00294c <.LBE4+0x1c>
9d002924:	00000000 	nop
9d002928:	0b400a53 	j	9d00294c <.LBE4+0x1c>
9d00292c:	00000000 	nop

9d002930 <.LBE4>:
    }

    default:
    {
      NU32_LED2 = 0;  // turn on LED2 to indicate an error
9d002930:	3c03bf88 	lui	v1,0xbf88
9d002934:	90626160 	lbu	v0,24928(v1)
9d002938:	7c020844 	ins	v0,zero,0x1,0x1
9d00293c:	a0626160 	sb	v0,24928(v1)
      break;
9d002940:	0b400a53 	j	9d00294c <.LBE4+0x1c>
9d002944:	00000000 	nop
  int e_pos, u_pos_proto;

  switch (get_mode()) {
    case IDLE:
    {
      break;
9d002948:	00000000 	nop
      NU32_LED2 = 0;  // turn on LED2 to indicate an error
      break;
    }

  }
  IFS0bits.T4IF = 0;    // clear interrupt flag
9d00294c:	3c03bf88 	lui	v1,0xbf88
9d002950:	8c621030 	lw	v0,4144(v1)
9d002954:	7c028404 	ins	v0,zero,0x10,0x1
9d002958:	ac621030 	sw	v0,4144(v1)
}
9d00295c:	03c0e821 	move	sp,s8
9d002960:	8fa20074 	lw	v0,116(sp)
9d002964:	00400013 	mtlo	v0
9d002968:	8fa30070 	lw	v1,112(sp)
9d00296c:	00600011 	mthi	v1
9d002970:	8fbf006c 	lw	ra,108(sp)
9d002974:	8fbe0068 	lw	s8,104(sp)
9d002978:	8fb90064 	lw	t9,100(sp)
9d00297c:	8fb80060 	lw	t8,96(sp)
9d002980:	8fb0005c 	lw	s0,92(sp)
9d002984:	8faf0058 	lw	t7,88(sp)
9d002988:	8fae0054 	lw	t6,84(sp)
9d00298c:	8fad0050 	lw	t5,80(sp)
9d002990:	8fac004c 	lw	t4,76(sp)
9d002994:	8fab0048 	lw	t3,72(sp)
9d002998:	8faa0044 	lw	t2,68(sp)
9d00299c:	8fa90040 	lw	t1,64(sp)
9d0029a0:	8fa8003c 	lw	t0,60(sp)
9d0029a4:	8fa70038 	lw	a3,56(sp)
9d0029a8:	8fa60034 	lw	a2,52(sp)
9d0029ac:	8fa50030 	lw	a1,48(sp)
9d0029b0:	8fa4002c 	lw	a0,44(sp)
9d0029b4:	8fa30028 	lw	v1,40(sp)
9d0029b8:	8fa20024 	lw	v0,36(sp)
9d0029bc:	8fa10020 	lw	at,32(sp)
9d0029c0:	8fbb0084 	lw	k1,132(sp)
9d0029c4:	27bd0088 	addiu	sp,sp,136
9d0029c8:	41dde800 	wrpgpr	sp,sp
9d0029cc:	409b6000 	mtc0	k1,c0_status
9d0029d0:	42000018 	eret

9d0029d4 <main>:

///////////////////
// Main function //
///////////////////
int main() 
{
9d0029d4:	27bdfee0 	addiu	sp,sp,-288
9d0029d8:	afbf011c 	sw	ra,284(sp)
9d0029dc:	afbe0118 	sw	s8,280(sp)
9d0029e0:	03a0f021 	move	s8,sp
  char buffer[BUF_SIZE];
  NU32_Startup();         // cache on, min flash wait, interrupts on, LED/button init, UART init
9d0029e4:	0f40226b 	jal	9d0089ac <NU32_Startup>
9d0029e8:	00000000 	nop
  NU32_LED1 = 1;          // turn off the LEDs
9d0029ec:	3c03bf88 	lui	v1,0xbf88
9d0029f0:	90626160 	lbu	v0,24928(v1)
9d0029f4:	24040001 	li	a0,1
9d0029f8:	7c820004 	ins	v0,a0,0x0,0x1
9d0029fc:	a0626160 	sb	v0,24928(v1)
  NU32_LED2 = 1;        
9d002a00:	3c03bf88 	lui	v1,0xbf88
9d002a04:	90626160 	lbu	v0,24928(v1)
9d002a08:	24040001 	li	a0,1
9d002a0c:	7c820844 	ins	v0,a0,0x1,0x1
9d002a10:	a0626160 	sb	v0,24928(v1)
  __builtin_disable_interrupts();
9d002a14:	41626000 	di	v0
9d002a18:	000000c0 	ehb
9d002a1c:	00000000 	nop
  encoder_init();         // initialize SPI4 for encoder
9d002a20:	0f40269a 	jal	9d009a68 <encoder_init>
9d002a24:	00000000 	nop
  set_mode(IDLE);         // initialize PIC32 to IDLE mode
9d002a28:	00002021 	move	a0,zero
9d002a2c:	0f402fb4 	jal	9d00bed0 <set_mode>
9d002a30:	00000000 	nop
  adc_init();             // initialize ADC
9d002a34:	0f40289c 	jal	9d00a270 <.LFE2>
9d002a38:	00000000 	nop
  currentcontrol_init();  // initialize peripherals for current control
9d002a3c:	0f402948 	jal	9d00a520 <currentcontrol_init>
9d002a40:	00000000 	nop
  positioncontrol_init(); // initialize timer4 for position control
9d002a44:	0f402db5 	jal	9d00b6d4 <positioncontrol_init>
9d002a48:	00000000 	nop
  __builtin_enable_interrupts();
9d002a4c:	41626020 	ei	v0

  while(1)
  {
    NU32_ReadUART3(buffer,BUF_SIZE); // we expect the next character to be a menu command
9d002a50:	27c20030 	addiu	v0,s8,48
9d002a54:	00402021 	move	a0,v0
9d002a58:	240500c8 	li	a1,200
9d002a5c:	0f4022c3 	jal	9d008b0c <NU32_ReadUART3>
9d002a60:	00000000 	nop
    NU32_LED2 = 1;                   // clear the error LED
9d002a64:	3c03bf88 	lui	v1,0xbf88
9d002a68:	90626160 	lbu	v0,24928(v1)
9d002a6c:	24040001 	li	a0,1
9d002a70:	7c820844 	ins	v0,a0,0x1,0x1
9d002a74:	a0626160 	sb	v0,24928(v1)
    switch (buffer[0]) {
9d002a78:	83c20030 	lb	v0,48(s8)
9d002a7c:	2442ff9f 	addiu	v0,v0,-97
9d002a80:	2c430012 	sltiu	v1,v0,18
9d002a84:	106001f9 	beqz	v1,9d00326c <.LBE13+0x64>
9d002a88:	00000000 	nop
9d002a8c:	00021880 	sll	v1,v0,0x2
9d002a90:	3c029d00 	lui	v0,0x9d00
9d002a94:	24422aa8 	addiu	v0,v0,10920
9d002a98:	00621021 	addu	v0,v1,v0
9d002a9c:	8c420000 	lw	v0,0(v0)
9d002aa0:	00400008 	jr	v0
9d002aa4:	00000000 	nop
9d002aa8:	9d002af0 	0x9d002af0
9d002aac:	9d002b30 	0x9d002b30
9d002ab0:	9d002b70 	0x9d002b70
9d002ab4:	9d002bac 	0x9d002bac
9d002ab8:	9d002be8 	0x9d002be8
9d002abc:	9d002bf8 	0x9d002bf8
9d002ac0:	9d002c3c 	0x9d002c3c
9d002ac4:	9d002c90 	0x9d002c90
9d002ac8:	9d002cf8 	0x9d002cf8
9d002acc:	9d002d5c 	0x9d002d5c
9d002ad0:	9d002df4 	0x9d002df4
9d002ad4:	9d002ef8 	0x9d002ef8
9d002ad8:	9d002f64 	0x9d002f64
9d002adc:	9d00302c 	0x9d00302c
9d002ae0:	9d0030f4 	0x9d0030f4
9d002ae4:	9d003208 	0x9d003208
9d002ae8:	9d00321c 	0x9d00321c
9d002aec:	9d003230 	0x9d003230

9d002af0 <.LBB5>:
      case 'a':                      // read current sensor (ADC counts)
      {
        unsigned int adc_counts;
        adc_counts = adc_read();
9d002af0:	0f4028b9 	jal	9d00a2e4 <adc_read>
9d002af4:	00000000 	nop
9d002af8:	afc20028 	sw	v0,40(s8)
        sprintf(buffer, "%d\r\n", adc_counts);
9d002afc:	27c20030 	addiu	v0,s8,48
9d002b00:	00402021 	move	a0,v0
9d002b04:	3c029d01 	lui	v0,0x9d01
9d002b08:	2445c264 	addiu	a1,v0,-15772
9d002b0c:	8fc60028 	lw	a2,40(s8)
9d002b10:	0f402ed7 	jal	9d00bb5c <_sprintf_cdfFnopuxX>
9d002b14:	00000000 	nop
        NU32_WriteUART3(buffer);
9d002b18:	27c20030 	addiu	v0,s8,48
9d002b1c:	00402021 	move	a0,v0
9d002b20:	0f4022fb 	jal	9d008bec <NU32_WriteUART3>
9d002b24:	00000000 	nop
        break;
9d002b28:	0b400ca0 	j	9d003280 <.LBE13+0x78>
9d002b2c:	00000000 	nop

9d002b30 <.LBB6>:
      }

      case 'b':                      // read current sensor (mA)
      {
        int current;
        current = read_cur_amps();
9d002b30:	0f4028d8 	jal	9d00a360 <read_cur_amps>
9d002b34:	00000000 	nop
9d002b38:	afc2002c 	sw	v0,44(s8)
        sprintf(buffer, "%d\r\n", current);
9d002b3c:	27c20030 	addiu	v0,s8,48
9d002b40:	00402021 	move	a0,v0
9d002b44:	3c029d01 	lui	v0,0x9d01
9d002b48:	2445c264 	addiu	a1,v0,-15772
9d002b4c:	8fc6002c 	lw	a2,44(s8)
9d002b50:	0f402ed7 	jal	9d00bb5c <_sprintf_cdfFnopuxX>
9d002b54:	00000000 	nop
        NU32_WriteUART3(buffer);
9d002b58:	27c20030 	addiu	v0,s8,48
9d002b5c:	00402021 	move	a0,v0
9d002b60:	0f4022fb 	jal	9d008bec <NU32_WriteUART3>
9d002b64:	00000000 	nop
        break;
9d002b68:	0b400ca0 	j	9d003280 <.LBE13+0x78>
9d002b6c:	00000000 	nop

9d002b70 <.LBE6>:
      }

      case 'c':                      // read encoder (counts)
      {
        sprintf(buffer, "%d\r\n", encoder_counts());
9d002b70:	0f402656 	jal	9d009958 <encoder_counts>
9d002b74:	00000000 	nop
9d002b78:	27c30030 	addiu	v1,s8,48
9d002b7c:	00602021 	move	a0,v1
9d002b80:	3c039d01 	lui	v1,0x9d01
9d002b84:	2465c264 	addiu	a1,v1,-15772
9d002b88:	00403021 	move	a2,v0
9d002b8c:	0f402ed7 	jal	9d00bb5c <_sprintf_cdfFnopuxX>
9d002b90:	00000000 	nop
        NU32_WriteUART3(buffer);
9d002b94:	27c20030 	addiu	v0,s8,48
9d002b98:	00402021 	move	a0,v0
9d002b9c:	0f4022fb 	jal	9d008bec <NU32_WriteUART3>
9d002ba0:	00000000 	nop
        break;
9d002ba4:	0b400ca0 	j	9d003280 <.LBE13+0x78>
9d002ba8:	00000000 	nop

9d002bac <.LBB7>:
      }

      case 'd':                      // read encoder (deg)
      {
        sprintf(buffer, "%d\r\n", encoder_degs());
9d002bac:	0f402666 	jal	9d009998 <encoder_degs>
9d002bb0:	00000000 	nop
9d002bb4:	27c30030 	addiu	v1,s8,48
9d002bb8:	00602021 	move	a0,v1
9d002bbc:	3c039d01 	lui	v1,0x9d01
9d002bc0:	2465c264 	addiu	a1,v1,-15772
9d002bc4:	00403021 	move	a2,v0
9d002bc8:	0f402ed7 	jal	9d00bb5c <_sprintf_cdfFnopuxX>
9d002bcc:	00000000 	nop
        NU32_WriteUART3(buffer);    
9d002bd0:	27c20030 	addiu	v0,s8,48
9d002bd4:	00402021 	move	a0,v0
9d002bd8:	0f4022fb 	jal	9d008bec <NU32_WriteUART3>
9d002bdc:	00000000 	nop
        break;
9d002be0:	0b400ca0 	j	9d003280 <.LBE13+0x78>
9d002be4:	00000000 	nop

9d002be8 <.LBE7>:
      }

      case 'e':                      // reset encoder counts
      {
        encoder_reset();        
9d002be8:	0f40268a 	jal	9d009a28 <encoder_reset>
9d002bec:	00000000 	nop
        break;
9d002bf0:	0b400ca0 	j	9d003280 <.LBE13+0x78>
9d002bf4:	00000000 	nop
      }

      case 'f':                      // set PWM (-100 to 100)
      {
        NU32_ReadUART3(buffer, BUF_SIZE);
9d002bf8:	27c20030 	addiu	v0,s8,48
9d002bfc:	00402021 	move	a0,v0
9d002c00:	240500c8 	li	a1,200
9d002c04:	0f4022c3 	jal	9d008b0c <NU32_ReadUART3>
9d002c08:	00000000 	nop
        sscanf(buffer, "%d", &dutycycle);
9d002c0c:	27c20030 	addiu	v0,s8,48
9d002c10:	00402021 	move	a0,v0
9d002c14:	3c029d01 	lui	v0,0x9d01
9d002c18:	2445c26c 	addiu	a1,v0,-15764
9d002c1c:	27868028 	addiu	a2,gp,-32728
9d002c20:	0f402eba 	jal	9d00bae8 <_sscanf_cdfFnopuxX>
9d002c24:	00000000 	nop
        set_mode(PWM);
9d002c28:	24040001 	li	a0,1
9d002c2c:	0f402fb4 	jal	9d00bed0 <set_mode>
9d002c30:	00000000 	nop
        break;
9d002c34:	0b400ca0 	j	9d003280 <.LBE13+0x78>
9d002c38:	00000000 	nop

9d002c3c <.LBB8>:
      }

      case 'g':                      // set current gains
      {
        float m, n;
        NU32_ReadUART3(buffer, BUF_SIZE);
9d002c3c:	27c20030 	addiu	v0,s8,48
9d002c40:	00402021 	move	a0,v0
9d002c44:	240500c8 	li	a1,200
9d002c48:	0f4022c3 	jal	9d008b0c <NU32_ReadUART3>
9d002c4c:	00000000 	nop
        // __builtin_disable_interrupts();
        sscanf(buffer, "%f %f", &m, &n);
9d002c50:	27c40030 	addiu	a0,s8,48
9d002c54:	27c300f8 	addiu	v1,s8,248
9d002c58:	27c200fc 	addiu	v0,s8,252
9d002c5c:	3c059d01 	lui	a1,0x9d01
9d002c60:	24a5c270 	addiu	a1,a1,-15760
9d002c64:	00603021 	move	a2,v1
9d002c68:	00403821 	move	a3,v0
9d002c6c:	0f402eba 	jal	9d00bae8 <_sscanf_cdfFnopuxX>
9d002c70:	00000000 	nop
        KpI = m;
9d002c74:	8fc200f8 	lw	v0,248(s8)
9d002c78:	af828010 	sw	v0,-32752(gp)
        KiI = n;
9d002c7c:	8fc200fc 	lw	v0,252(s8)
9d002c80:	af828014 	sw	v0,-32748(gp)
        // __builtin_enable_interrupts();
        break;
9d002c84:	00000000 	nop
9d002c88:	0b400ca0 	j	9d003280 <.LBE13+0x78>
9d002c8c:	00000000 	nop

9d002c90 <.LBE8>:
      }

      case 'h':                      // get current gains
      {
        sprintf(buffer, "%f\r\n", KpI);
9d002c90:	8f828010 	lw	v0,-32752(gp)
9d002c94:	27c30030 	addiu	v1,s8,48
9d002c98:	00602021 	move	a0,v1
9d002c9c:	3c039d01 	lui	v1,0x9d01
9d002ca0:	2465c278 	addiu	a1,v1,-15752
9d002ca4:	00403021 	move	a2,v0
9d002ca8:	0f402ed7 	jal	9d00bb5c <_sprintf_cdfFnopuxX>
9d002cac:	00000000 	nop
        NU32_WriteUART3(buffer);
9d002cb0:	27c20030 	addiu	v0,s8,48
9d002cb4:	00402021 	move	a0,v0
9d002cb8:	0f4022fb 	jal	9d008bec <NU32_WriteUART3>
9d002cbc:	00000000 	nop
        sprintf(buffer, "%f\r\n", KiI);
9d002cc0:	8f828014 	lw	v0,-32748(gp)
9d002cc4:	27c30030 	addiu	v1,s8,48
9d002cc8:	00602021 	move	a0,v1
9d002ccc:	3c039d01 	lui	v1,0x9d01
9d002cd0:	2465c278 	addiu	a1,v1,-15752
9d002cd4:	00403021 	move	a2,v0
9d002cd8:	0f402ed7 	jal	9d00bb5c <_sprintf_cdfFnopuxX>
9d002cdc:	00000000 	nop
        NU32_WriteUART3(buffer);
9d002ce0:	27c20030 	addiu	v0,s8,48
9d002ce4:	00402021 	move	a0,v0
9d002ce8:	0f4022fb 	jal	9d008bec <NU32_WriteUART3>
9d002cec:	00000000 	nop
        break;
9d002cf0:	0b400ca0 	j	9d003280 <.LBE13+0x78>
9d002cf4:	00000000 	nop

9d002cf8 <.LBB9>:
      }

      case 'i':                      // set position gains
      {
        float m, n, o;
        NU32_ReadUART3(buffer, BUF_SIZE);
9d002cf8:	27c20030 	addiu	v0,s8,48
9d002cfc:	00402021 	move	a0,v0
9d002d00:	240500c8 	li	a1,200
9d002d04:	0f4022c3 	jal	9d008b0c <NU32_ReadUART3>
9d002d08:	00000000 	nop
        sscanf(buffer, "%f %f %f", &m, &n, &o);
9d002d0c:	27c40030 	addiu	a0,s8,48
9d002d10:	27c30100 	addiu	v1,s8,256
9d002d14:	27c20104 	addiu	v0,s8,260
9d002d18:	27c50108 	addiu	a1,s8,264
9d002d1c:	afa50010 	sw	a1,16(sp)
9d002d20:	3c059d01 	lui	a1,0x9d01
9d002d24:	24a5c280 	addiu	a1,a1,-15744
9d002d28:	00603021 	move	a2,v1
9d002d2c:	00403821 	move	a3,v0
9d002d30:	0f402eba 	jal	9d00bae8 <_sscanf_cdfFnopuxX>
9d002d34:	00000000 	nop
        KpP = m;
9d002d38:	8fc20100 	lw	v0,256(s8)
9d002d3c:	af828018 	sw	v0,-32744(gp)
        KiP = n;
9d002d40:	8fc20104 	lw	v0,260(s8)
9d002d44:	af828034 	sw	v0,-32716(gp)
        KdP = o;
9d002d48:	8fc20108 	lw	v0,264(s8)
9d002d4c:	af82801c 	sw	v0,-32740(gp)
        break;
9d002d50:	00000000 	nop
9d002d54:	0b400ca0 	j	9d003280 <.LBE13+0x78>
9d002d58:	00000000 	nop

9d002d5c <.LBE9>:
      }

      case 'j':                      // get position gains
      {
        sprintf(buffer, "%f\r\n", KpP);
9d002d5c:	8f828018 	lw	v0,-32744(gp)
9d002d60:	27c30030 	addiu	v1,s8,48
9d002d64:	00602021 	move	a0,v1
9d002d68:	3c039d01 	lui	v1,0x9d01
9d002d6c:	2465c278 	addiu	a1,v1,-15752
9d002d70:	00403021 	move	a2,v0
9d002d74:	0f402ed7 	jal	9d00bb5c <_sprintf_cdfFnopuxX>
9d002d78:	00000000 	nop
        NU32_WriteUART3(buffer);
9d002d7c:	27c20030 	addiu	v0,s8,48
9d002d80:	00402021 	move	a0,v0
9d002d84:	0f4022fb 	jal	9d008bec <NU32_WriteUART3>
9d002d88:	00000000 	nop
        sprintf(buffer, "%f\r\n", KiP);
9d002d8c:	8f828034 	lw	v0,-32716(gp)
9d002d90:	27c30030 	addiu	v1,s8,48
9d002d94:	00602021 	move	a0,v1
9d002d98:	3c039d01 	lui	v1,0x9d01
9d002d9c:	2465c278 	addiu	a1,v1,-15752
9d002da0:	00403021 	move	a2,v0
9d002da4:	0f402ed7 	jal	9d00bb5c <_sprintf_cdfFnopuxX>
9d002da8:	00000000 	nop
        NU32_WriteUART3(buffer);
9d002dac:	27c20030 	addiu	v0,s8,48
9d002db0:	00402021 	move	a0,v0
9d002db4:	0f4022fb 	jal	9d008bec <NU32_WriteUART3>
9d002db8:	00000000 	nop
        sprintf(buffer, "%f\r\n", KdP);
9d002dbc:	8f82801c 	lw	v0,-32740(gp)
9d002dc0:	27c30030 	addiu	v1,s8,48
9d002dc4:	00602021 	move	a0,v1
9d002dc8:	3c039d01 	lui	v1,0x9d01
9d002dcc:	2465c278 	addiu	a1,v1,-15752
9d002dd0:	00403021 	move	a2,v0
9d002dd4:	0f402ed7 	jal	9d00bb5c <_sprintf_cdfFnopuxX>
9d002dd8:	00000000 	nop
        NU32_WriteUART3(buffer);
9d002ddc:	27c20030 	addiu	v0,s8,48
9d002de0:	00402021 	move	a0,v0
9d002de4:	0f4022fb 	jal	9d008bec <NU32_WriteUART3>
9d002de8:	00000000 	nop
        break;
9d002dec:	0b400ca0 	j	9d003280 <.LBE13+0x78>
9d002df0:	00000000 	nop

9d002df4 <.LBB10>:


      case 'k':                      // test current control
      {
        // Switch to ITEST mode:
        __builtin_disable_interrupts();
9d002df4:	41626000 	di	v0
9d002df8:	000000c0 	ehb
9d002dfc:	00000000 	nop
        set_mode(ITEST);
9d002e00:	24040002 	li	a0,2
9d002e04:	0f402fb4 	jal	9d00bed0 <set_mode>
9d002e08:	00000000 	nop
        __builtin_enable_interrupts();
9d002e0c:	41626020 	ei	v0
        while (get_mode()==ITEST){
9d002e10:	00000000 	nop
9d002e14:	0f402fbf 	jal	9d00befc <get_mode>
9d002e18:	00000000 	nop
9d002e1c:	00401821 	move	v1,v0
9d002e20:	24020002 	li	v0,2
9d002e24:	1062fffb 	beq	v1,v0,9d002e14 <.LBB10+0x20>
9d002e28:	00000000 	nop
          ;   // do nothing
        }

        // Send plot data to MATLAB:
        __builtin_disable_interrupts();       
9d002e2c:	41626000 	di	v0
9d002e30:	000000c0 	ehb
9d002e34:	00000000 	nop
        sprintf(buffer, "%d\r\n", 100);
9d002e38:	27c20030 	addiu	v0,s8,48
9d002e3c:	00402021 	move	a0,v0
9d002e40:	3c029d01 	lui	v0,0x9d01
9d002e44:	2445c264 	addiu	a1,v0,-15772
9d002e48:	24060064 	li	a2,100
9d002e4c:	0f402ed7 	jal	9d00bb5c <_sprintf_cdfFnopuxX>
9d002e50:	00000000 	nop
        NU32_WriteUART3(buffer);
9d002e54:	27c20030 	addiu	v0,s8,48
9d002e58:	00402021 	move	a0,v0
9d002e5c:	0f4022fb 	jal	9d008bec <NU32_WriteUART3>
9d002e60:	00000000 	nop
        int idx = 0;
9d002e64:	afc00018 	sw	zero,24(s8)
        for (idx=0; idx<100; idx++){
9d002e68:	afc00018 	sw	zero,24(s8)
9d002e6c:	0b400bb7 	j	9d002edc <.LBB10+0xe8>
9d002e70:	00000000 	nop
          sprintf(buffer, "%d %d\r\n", REFarray[idx], SENarray[idx]);
9d002e74:	3c02a000 	lui	v0,0xa000
9d002e78:	8fc30018 	lw	v1,24(s8)
9d002e7c:	00031880 	sll	v1,v1,0x2
9d002e80:	244201d8 	addiu	v0,v0,472
9d002e84:	00621021 	addu	v0,v1,v0
9d002e88:	8c430000 	lw	v1,0(v0)
9d002e8c:	3c02a000 	lui	v0,0xa000
9d002e90:	8fc40018 	lw	a0,24(s8)
9d002e94:	00042080 	sll	a0,a0,0x2
9d002e98:	24420048 	addiu	v0,v0,72
9d002e9c:	00821021 	addu	v0,a0,v0
9d002ea0:	8c420000 	lw	v0,0(v0)
9d002ea4:	27c40030 	addiu	a0,s8,48
9d002ea8:	3c059d01 	lui	a1,0x9d01
9d002eac:	24a5c28c 	addiu	a1,a1,-15732
9d002eb0:	00603021 	move	a2,v1
9d002eb4:	00403821 	move	a3,v0
9d002eb8:	0f402ed7 	jal	9d00bb5c <_sprintf_cdfFnopuxX>
9d002ebc:	00000000 	nop
          NU32_WriteUART3(buffer);
9d002ec0:	27c20030 	addiu	v0,s8,48
9d002ec4:	00402021 	move	a0,v0
9d002ec8:	0f4022fb 	jal	9d008bec <NU32_WriteUART3>
9d002ecc:	00000000 	nop
        // Send plot data to MATLAB:
        __builtin_disable_interrupts();       
        sprintf(buffer, "%d\r\n", 100);
        NU32_WriteUART3(buffer);
        int idx = 0;
        for (idx=0; idx<100; idx++){
9d002ed0:	8fc20018 	lw	v0,24(s8)
9d002ed4:	24420001 	addiu	v0,v0,1
9d002ed8:	afc20018 	sw	v0,24(s8)
9d002edc:	8fc20018 	lw	v0,24(s8)
9d002ee0:	28420064 	slti	v0,v0,100
9d002ee4:	1440ffe3 	bnez	v0,9d002e74 <.LBB10+0x80>
9d002ee8:	00000000 	nop
          sprintf(buffer, "%d %d\r\n", REFarray[idx], SENarray[idx]);
          NU32_WriteUART3(buffer);
        }
        __builtin_enable_interrupts();
9d002eec:	41626020 	ei	v0
        break;
9d002ef0:	0b400ca0 	j	9d003280 <.LBE13+0x78>
9d002ef4:	00000000 	nop

9d002ef8 <.LBE10>:
      }

      case 'l':                      // go to angle (deg)
      {
        __builtin_disable_interrupts();
9d002ef8:	41626000 	di	v0
9d002efc:	000000c0 	ehb
9d002f00:	00000000 	nop
        encoder_reset();
9d002f04:	0f40268a 	jal	9d009a28 <encoder_reset>
9d002f08:	00000000 	nop
        e_pos_prev = 0;
9d002f0c:	af808040 	sw	zero,-32704(gp)
        EPint = 0;
9d002f10:	af80803c 	sw	zero,-32708(gp)
        EIint = 0;
9d002f14:	af808038 	sw	zero,-32712(gp)
        u_pos = 0;
9d002f18:	af808030 	sw	zero,-32720(gp)
        NU32_ReadUART3(buffer, BUF_SIZE);
9d002f1c:	27c20030 	addiu	v0,s8,48
9d002f20:	00402021 	move	a0,v0
9d002f24:	240500c8 	li	a1,200
9d002f28:	0f4022c3 	jal	9d008b0c <NU32_ReadUART3>
9d002f2c:	00000000 	nop
        sscanf(buffer, "%d", &ang_target);
9d002f30:	27c20030 	addiu	v0,s8,48
9d002f34:	00402021 	move	a0,v0
9d002f38:	3c029d01 	lui	v0,0x9d01
9d002f3c:	2445c26c 	addiu	a1,v0,-15764
9d002f40:	2786802c 	addiu	a2,gp,-32724
9d002f44:	0f402eba 	jal	9d00bae8 <_sscanf_cdfFnopuxX>
9d002f48:	00000000 	nop
        set_mode(HOLD);
9d002f4c:	24040003 	li	a0,3
9d002f50:	0f402fb4 	jal	9d00bed0 <set_mode>
9d002f54:	00000000 	nop
        __builtin_enable_interrupts();
9d002f58:	41626020 	ei	v0
        break;
9d002f5c:	0b400ca0 	j	9d003280 <.LBE13+0x78>
9d002f60:	00000000 	nop

9d002f64 <.LBB11>:
      }

      case 'm':                      // load step trajectory
      {
        NU32_ReadUART3(buffer, BUF_SIZE);
9d002f64:	27c20030 	addiu	v0,s8,48
9d002f68:	00402021 	move	a0,v0
9d002f6c:	240500c8 	li	a1,200
9d002f70:	0f4022c3 	jal	9d008b0c <NU32_ReadUART3>
9d002f74:	00000000 	nop
        __builtin_disable_interrupts();
9d002f78:	41626000 	di	v0
9d002f7c:	000000c0 	ehb
9d002f80:	00000000 	nop
        int i, ref_deg;
        sscanf(buffer, "%d", &num_samples);
9d002f84:	27c20030 	addiu	v0,s8,48
9d002f88:	00402021 	move	a0,v0
9d002f8c:	3c029d01 	lui	v0,0x9d01
9d002f90:	2445c26c 	addiu	a1,v0,-15764
9d002f94:	27868044 	addiu	a2,gp,-32700
9d002f98:	0f402eba 	jal	9d00bae8 <_sscanf_cdfFnopuxX>
9d002f9c:	00000000 	nop
        for (i = 0; i < num_samples; i++){
9d002fa0:	afc0001c 	sw	zero,28(s8)
9d002fa4:	0b400c02 	j	9d003008 <.LBB11+0xa4>
9d002fa8:	00000000 	nop
          NU32_ReadUART3(buffer, BUF_SIZE);
9d002fac:	27c20030 	addiu	v0,s8,48
9d002fb0:	00402021 	move	a0,v0
9d002fb4:	240500c8 	li	a1,200
9d002fb8:	0f4022c3 	jal	9d008b0c <NU32_ReadUART3>
9d002fbc:	00000000 	nop
          sscanf(buffer, "%d", &ref_deg);
9d002fc0:	27c30030 	addiu	v1,s8,48
9d002fc4:	27c2010c 	addiu	v0,s8,268
9d002fc8:	00602021 	move	a0,v1
9d002fcc:	3c039d01 	lui	v1,0x9d01
9d002fd0:	2465c26c 	addiu	a1,v1,-15764
9d002fd4:	00403021 	move	a2,v0
9d002fd8:	0f402eba 	jal	9d00bae8 <_sscanf_cdfFnopuxX>
9d002fdc:	00000000 	nop
          REFtraj[i] = ref_deg;
9d002fe0:	8fc3010c 	lw	v1,268(s8)
9d002fe4:	3c02a000 	lui	v0,0xa000
9d002fe8:	8fc4001c 	lw	a0,28(s8)
9d002fec:	00042080 	sll	a0,a0,0x2
9d002ff0:	24420368 	addiu	v0,v0,872
9d002ff4:	00821021 	addu	v0,a0,v0
9d002ff8:	ac430000 	sw	v1,0(v0)
      {
        NU32_ReadUART3(buffer, BUF_SIZE);
        __builtin_disable_interrupts();
        int i, ref_deg;
        sscanf(buffer, "%d", &num_samples);
        for (i = 0; i < num_samples; i++){
9d002ffc:	8fc2001c 	lw	v0,28(s8)
9d003000:	24420001 	addiu	v0,v0,1
9d003004:	afc2001c 	sw	v0,28(s8)
9d003008:	8f828044 	lw	v0,-32700(gp)
9d00300c:	8fc3001c 	lw	v1,28(s8)
9d003010:	0062102a 	slt	v0,v1,v0
9d003014:	1440ffe5 	bnez	v0,9d002fac <.LBB11+0x48>
9d003018:	00000000 	nop
          NU32_ReadUART3(buffer, BUF_SIZE);
          sscanf(buffer, "%d", &ref_deg);
          REFtraj[i] = ref_deg;
        }
        __builtin_enable_interrupts();        
9d00301c:	41626020 	ei	v0
        break;
9d003020:	00000000 	nop
9d003024:	0b400ca0 	j	9d003280 <.LBE13+0x78>
9d003028:	00000000 	nop

9d00302c <.LBB12>:
      }

      case 'n':                      // load cubic trajectory
      {
        NU32_ReadUART3(buffer, BUF_SIZE);
9d00302c:	27c20030 	addiu	v0,s8,48
9d003030:	00402021 	move	a0,v0
9d003034:	240500c8 	li	a1,200
9d003038:	0f4022c3 	jal	9d008b0c <NU32_ReadUART3>
9d00303c:	00000000 	nop
        __builtin_disable_interrupts();
9d003040:	41626000 	di	v0
9d003044:	000000c0 	ehb
9d003048:	00000000 	nop
        int i, ref_deg;
        sscanf(buffer, "%d", &num_samples);
9d00304c:	27c20030 	addiu	v0,s8,48
9d003050:	00402021 	move	a0,v0
9d003054:	3c029d01 	lui	v0,0x9d01
9d003058:	2445c26c 	addiu	a1,v0,-15764
9d00305c:	27868044 	addiu	a2,gp,-32700
9d003060:	0f402eba 	jal	9d00bae8 <_sscanf_cdfFnopuxX>
9d003064:	00000000 	nop
        for (i = 0; i < num_samples; i++){
9d003068:	afc00020 	sw	zero,32(s8)
9d00306c:	0b400c34 	j	9d0030d0 <.LBB12+0xa4>
9d003070:	00000000 	nop
          NU32_ReadUART3(buffer, BUF_SIZE);
9d003074:	27c20030 	addiu	v0,s8,48
9d003078:	00402021 	move	a0,v0
9d00307c:	240500c8 	li	a1,200
9d003080:	0f4022c3 	jal	9d008b0c <NU32_ReadUART3>
9d003084:	00000000 	nop
          sscanf(buffer, "%d", &ref_deg);
9d003088:	27c30030 	addiu	v1,s8,48
9d00308c:	27c20110 	addiu	v0,s8,272
9d003090:	00602021 	move	a0,v1
9d003094:	3c039d01 	lui	v1,0x9d01
9d003098:	2465c26c 	addiu	a1,v1,-15764
9d00309c:	00403021 	move	a2,v0
9d0030a0:	0f402eba 	jal	9d00bae8 <_sscanf_cdfFnopuxX>
9d0030a4:	00000000 	nop
          REFtraj[i] = ref_deg;
9d0030a8:	8fc30110 	lw	v1,272(s8)
9d0030ac:	3c02a000 	lui	v0,0xa000
9d0030b0:	8fc40020 	lw	a0,32(s8)
9d0030b4:	00042080 	sll	a0,a0,0x2
9d0030b8:	24420368 	addiu	v0,v0,872
9d0030bc:	00821021 	addu	v0,a0,v0
9d0030c0:	ac430000 	sw	v1,0(v0)
      {
        NU32_ReadUART3(buffer, BUF_SIZE);
        __builtin_disable_interrupts();
        int i, ref_deg;
        sscanf(buffer, "%d", &num_samples);
        for (i = 0; i < num_samples; i++){
9d0030c4:	8fc20020 	lw	v0,32(s8)
9d0030c8:	24420001 	addiu	v0,v0,1
9d0030cc:	afc20020 	sw	v0,32(s8)
9d0030d0:	8f828044 	lw	v0,-32700(gp)
9d0030d4:	8fc30020 	lw	v1,32(s8)
9d0030d8:	0062102a 	slt	v0,v1,v0
9d0030dc:	1440ffe5 	bnez	v0,9d003074 <.LBB12+0x48>
9d0030e0:	00000000 	nop
          NU32_ReadUART3(buffer, BUF_SIZE);
          sscanf(buffer, "%d", &ref_deg);
          REFtraj[i] = ref_deg;
        }
        __builtin_enable_interrupts();        
9d0030e4:	41626020 	ei	v0
        break;
9d0030e8:	00000000 	nop
9d0030ec:	0b400ca0 	j	9d003280 <.LBE13+0x78>
9d0030f0:	00000000 	nop

9d0030f4 <.LBB13>:
      }

      case 'o':                      // execute trajectory
      {
        __builtin_disable_interrupts();
9d0030f4:	41626000 	di	v0
9d0030f8:	000000c0 	ehb
9d0030fc:	00000000 	nop
        encoder_reset();
9d003100:	0f40268a 	jal	9d009a28 <encoder_reset>
9d003104:	00000000 	nop
        e_pos_prev = 0;
9d003108:	af808040 	sw	zero,-32704(gp)
        EPint = 0;
9d00310c:	af80803c 	sw	zero,-32708(gp)
        EIint = 0;
9d003110:	af808038 	sw	zero,-32712(gp)
        u_pos = 0;
9d003114:	af808030 	sw	zero,-32720(gp)
        __builtin_enable_interrupts();
9d003118:	41626020 	ei	v0

        // Track, then hold:
        set_mode(TRACK);
9d00311c:	24040004 	li	a0,4
9d003120:	0f402fb4 	jal	9d00bed0 <set_mode>
9d003124:	00000000 	nop
        while (get_mode()==TRACK){;}
9d003128:	00000000 	nop
9d00312c:	0f402fbf 	jal	9d00befc <get_mode>
9d003130:	00000000 	nop
9d003134:	00401821 	move	v1,v0
9d003138:	24020004 	li	v0,4
9d00313c:	1062fffb 	beq	v1,v0,9d00312c <.LBB13+0x38>
9d003140:	00000000 	nop

        // Send plot data to MATLAB:
        // __builtin_disable_interrupts();       
        sprintf(buffer, "%d\r\n", num_samples);
9d003144:	8f828044 	lw	v0,-32700(gp)
9d003148:	27c30030 	addiu	v1,s8,48
9d00314c:	00602021 	move	a0,v1
9d003150:	3c039d01 	lui	v1,0x9d01
9d003154:	2465c264 	addiu	a1,v1,-15772
9d003158:	00403021 	move	a2,v0
9d00315c:	0f402ed7 	jal	9d00bb5c <_sprintf_cdfFnopuxX>
9d003160:	00000000 	nop
        NU32_WriteUART3(buffer);
9d003164:	27c20030 	addiu	v0,s8,48
9d003168:	00402021 	move	a0,v0
9d00316c:	0f4022fb 	jal	9d008bec <NU32_WriteUART3>
9d003170:	00000000 	nop
        int i = 0;
9d003174:	afc00024 	sw	zero,36(s8)
        for (i=0; i<num_samples; i++){
9d003178:	afc00024 	sw	zero,36(s8)
9d00317c:	0b400c7b 	j	9d0031ec <.LBB13+0xf8>
9d003180:	00000000 	nop
          sprintf(buffer, "%d %d\r\n", REFtraj[i], SENtraj[i]);
9d003184:	3c02a000 	lui	v0,0xa000
9d003188:	8fc30024 	lw	v1,36(s8)
9d00318c:	00031880 	sll	v1,v1,0x2
9d003190:	24420368 	addiu	v0,v0,872
9d003194:	00621021 	addu	v0,v1,v0
9d003198:	8c430000 	lw	v1,0(v0)
9d00319c:	3c02a000 	lui	v0,0xa000
9d0031a0:	8fc40024 	lw	a0,36(s8)
9d0031a4:	00042080 	sll	a0,a0,0x2
9d0031a8:	244222a8 	addiu	v0,v0,8872
9d0031ac:	00821021 	addu	v0,a0,v0
9d0031b0:	8c420000 	lw	v0,0(v0)
9d0031b4:	27c40030 	addiu	a0,s8,48
9d0031b8:	3c059d01 	lui	a1,0x9d01
9d0031bc:	24a5c28c 	addiu	a1,a1,-15732
9d0031c0:	00603021 	move	a2,v1
9d0031c4:	00403821 	move	a3,v0
9d0031c8:	0f402ed7 	jal	9d00bb5c <_sprintf_cdfFnopuxX>
9d0031cc:	00000000 	nop
          NU32_WriteUART3(buffer);
9d0031d0:	27c20030 	addiu	v0,s8,48
9d0031d4:	00402021 	move	a0,v0
9d0031d8:	0f4022fb 	jal	9d008bec <NU32_WriteUART3>
9d0031dc:	00000000 	nop
        // Send plot data to MATLAB:
        // __builtin_disable_interrupts();       
        sprintf(buffer, "%d\r\n", num_samples);
        NU32_WriteUART3(buffer);
        int i = 0;
        for (i=0; i<num_samples; i++){
9d0031e0:	8fc20024 	lw	v0,36(s8)
9d0031e4:	24420001 	addiu	v0,v0,1
9d0031e8:	afc20024 	sw	v0,36(s8)
9d0031ec:	8f828044 	lw	v0,-32700(gp)
9d0031f0:	8fc30024 	lw	v1,36(s8)
9d0031f4:	0062102a 	slt	v0,v1,v0
9d0031f8:	1440ffe2 	bnez	v0,9d003184 <.LBB13+0x90>
9d0031fc:	00000000 	nop
          sprintf(buffer, "%d %d\r\n", REFtraj[i], SENtraj[i]);
          NU32_WriteUART3(buffer);
        }
        // __builtin_enable_interrupts();
        break;
9d003200:	0b400ca0 	j	9d003280 <.LBE13+0x78>
9d003204:	00000000 	nop

9d003208 <.LBE13>:
      }

      case 'p':                      // unpower the motor
      {
        set_mode(IDLE);
9d003208:	00002021 	move	a0,zero
9d00320c:	0f402fb4 	jal	9d00bed0 <set_mode>
9d003210:	00000000 	nop
        break;
9d003214:	0b400ca0 	j	9d003280 <.LBE13+0x78>
9d003218:	00000000 	nop
      }

      case 'q':                      // quit
      {
        set_mode(IDLE);
9d00321c:	00002021 	move	a0,zero
9d003220:	0f402fb4 	jal	9d00bed0 <set_mode>
9d003224:	00000000 	nop
        break;
9d003228:	0b400ca0 	j	9d003280 <.LBE13+0x78>
9d00322c:	00000000 	nop
      }

      case 'r':                      // get mode
      {
        sprintf(buffer, "%d\r\n", get_mode());
9d003230:	0f402fbf 	jal	9d00befc <get_mode>
9d003234:	00000000 	nop
9d003238:	27c30030 	addiu	v1,s8,48
9d00323c:	00602021 	move	a0,v1
9d003240:	3c039d01 	lui	v1,0x9d01
9d003244:	2465c264 	addiu	a1,v1,-15772
9d003248:	00403021 	move	a2,v0
9d00324c:	0f402ed7 	jal	9d00bb5c <_sprintf_cdfFnopuxX>
9d003250:	00000000 	nop
        NU32_WriteUART3(buffer);
9d003254:	27c20030 	addiu	v0,s8,48
9d003258:	00402021 	move	a0,v0
9d00325c:	0f4022fb 	jal	9d008bec <NU32_WriteUART3>
9d003260:	00000000 	nop
        break;
9d003264:	0b400ca0 	j	9d003280 <.LBE13+0x78>
9d003268:	00000000 	nop
      }
      
      default:
      {
        NU32_LED2 = 0;  // turn on LED2 to indicate an error
9d00326c:	3c03bf88 	lui	v1,0xbf88
9d003270:	90626160 	lbu	v0,24928(v1)
9d003274:	7c020844 	ins	v0,zero,0x1,0x1
9d003278:	a0626160 	sb	v0,24928(v1)
        break;
9d00327c:	00000000 	nop
      }
    }
  }
9d003280:	0b400a94 	j	9d002a50 <main+0x7c>
9d003284:	00000000 	nop

Disassembly of section .text.do_scan:

9d003288 <do_scan>:
9d003288:	27bdff00 	addiu	sp,sp,-256
9d00328c:	afbf00fc 	sw	ra,252(sp)
9d003290:	afbe00f8 	sw	s8,248(sp)
9d003294:	afb700f4 	sw	s7,244(sp)
9d003298:	afb600f0 	sw	s6,240(sp)
9d00329c:	afb500ec 	sw	s5,236(sp)
9d0032a0:	afb400e8 	sw	s4,232(sp)
9d0032a4:	afb300e4 	sw	s3,228(sp)
9d0032a8:	afb200e0 	sw	s2,224(sp)
9d0032ac:	afb100dc 	sw	s1,220(sp)
9d0032b0:	afb000d8 	sw	s0,216(sp)
9d0032b4:	00809821 	move	s3,a0
9d0032b8:	8c820018 	lw	v0,24(a0)
9d0032bc:	00a08021 	move	s0,a1
9d0032c0:	24050002 	li	a1,2
9d0032c4:	8c420010 	lw	v0,16(v0)
9d0032c8:	0040f809 	jalr	v0
9d0032cc:	00c08821 	move	s1,a2
9d0032d0:	104000a2 	beqz	v0,9d00355c <do_scan+0x2d4>
9d0032d4:	2402ffff 	li	v0,-1
9d0032d8:	afb30098 	sw	s3,152(sp)
9d0032dc:	afa2009c 	sw	v0,156(sp)
9d0032e0:	afb100a4 	sw	s1,164(sp)
9d0032e4:	afa000ac 	sw	zero,172(sp)
9d0032e8:	afa000b0 	sw	zero,176(sp)
9d0032ec:	afa000a8 	sw	zero,168(sp)
9d0032f0:	02002821 	move	a1,s0
9d0032f4:	0000f021 	move	s8,zero
9d0032f8:	3c109d01 	lui	s0,0x9d01
9d0032fc:	2610a9a1 	addiu	s0,s0,-22111
9d003300:	3c159d00 	lui	s5,0x9d00
9d003304:	24a20001 	addiu	v0,a1,1
9d003308:	afa200a0 	sw	v0,160(sp)
9d00330c:	80b10000 	lb	s1,0(a1)
9d003310:	12200012 	beqz	s1,9d00335c <do_scan+0xd4>
9d003314:	26b53480 	addiu	s5,s5,13440
9d003318:	17c00010 	bnez	s8,9d00335c <do_scan+0xd4>
9d00331c:	24020025 	li	v0,37
9d003320:	12220033 	beq	s1,v0,9d0033f0 <do_scan+0x168>
9d003324:	02301021 	addu	v0,s1,s0
9d003328:	80420000 	lb	v0,0(v0)
9d00332c:	30420088 	andi	v0,v0,0x88
9d003330:	10400021 	beqz	v0,9d0033b8 <do_scan+0x130>
9d003334:	27a40098 	addiu	a0,sp,152
9d003338:	0f402d41 	jal	9d00b504 <_eat_white>
9d00333c:	00000000 	nop
9d003340:	0040f021 	move	s8,v0
9d003344:	8fa500a0 	lw	a1,160(sp)
9d003348:	24a20001 	addiu	v0,a1,1
9d00334c:	afa200a0 	sw	v0,160(sp)
9d003350:	80b10000 	lb	s1,0(a1)
9d003354:	1620fff0 	bnez	s1,9d003318 <do_scan+0x90>
9d003358:	00000000 	nop
9d00335c:	8fa4009c 	lw	a0,156(sp)
9d003360:	2402ffff 	li	v0,-1
9d003364:	10820005 	beq	a0,v0,9d00337c <do_scan+0xf4>
9d003368:	00000000 	nop
9d00336c:	96620010 	lhu	v0,16(s3)
9d003370:	30420080 	andi	v0,v0,0x80
9d003374:	1040008d 	beqz	v0,9d0035ac <do_scan+0x324>
9d003378:	2402ffff 	li	v0,-1
9d00337c:	13c20075 	beq	s8,v0,9d003554 <do_scan+0x2cc>
9d003380:	8fa200ac 	lw	v0,172(sp)
9d003384:	8fa200b0 	lw	v0,176(sp)
9d003388:	8fbf00fc 	lw	ra,252(sp)
9d00338c:	8fbe00f8 	lw	s8,248(sp)
9d003390:	8fb700f4 	lw	s7,244(sp)
9d003394:	8fb600f0 	lw	s6,240(sp)
9d003398:	8fb500ec 	lw	s5,236(sp)
9d00339c:	8fb400e8 	lw	s4,232(sp)
9d0033a0:	8fb300e4 	lw	s3,228(sp)
9d0033a4:	8fb200e0 	lw	s2,224(sp)
9d0033a8:	8fb100dc 	lw	s1,220(sp)
9d0033ac:	8fb000d8 	lw	s0,216(sp)
9d0033b0:	03e00008 	jr	ra
9d0033b4:	27bd0100 	addiu	sp,sp,256
9d0033b8:	0f402f40 	jal	9d00bd00 <gsgetc>
9d0033bc:	00000000 	nop
9d0033c0:	2403ffff 	li	v1,-1
9d0033c4:	504301cf 	beql	v0,v1,9d003b04 <do_scan+0x87c>
9d0033c8:	241effff 	li	s8,-1
9d0033cc:	5222ffde 	beql	s1,v0,9d003348 <do_scan+0xc0>
9d0033d0:	8fa500a0 	lw	a1,160(sp)
9d0033d4:	afa2009c 	sw	v0,156(sp)
9d0033d8:	241e0001 	li	s8,1
9d0033dc:	8fa200a8 	lw	v0,168(sp)
9d0033e0:	2442ffff 	addiu	v0,v0,-1
9d0033e4:	afa200a8 	sw	v0,168(sp)
9d0033e8:	0b400cd2 	j	9d003348 <do_scan+0xc0>
9d0033ec:	8fa500a0 	lw	a1,160(sp)
9d0033f0:	24a20002 	addiu	v0,a1,2
9d0033f4:	afa200a0 	sw	v0,160(sp)
9d0033f8:	80b20001 	lb	s2,1(a1)
9d0033fc:	125101a2 	beq	s2,s1,9d003a88 <do_scan+0x800>
9d003400:	2402002a 	li	v0,42
9d003404:	124200dd 	beq	s2,v0,9d00377c <do_scan+0x4f4>
9d003408:	00008821 	move	s1,zero
9d00340c:	02121021 	addu	v0,s0,s2
9d003410:	90420000 	lbu	v0,0(v0)
9d003414:	30420004 	andi	v0,v0,0x4
9d003418:	144000c1 	bnez	v0,9d003720 <do_scan+0x498>
9d00341c:	3c167fff 	lui	s6,0x7fff
9d003420:	36d6ffff 	ori	s6,s6,0xffff
9d003424:	24020068 	li	v0,104
9d003428:	124200cc 	beq	s2,v0,9d00375c <do_scan+0x4d4>
9d00342c:	afb600d0 	sw	s6,208(sp)
9d003430:	2a420069 	slti	v0,s2,105
9d003434:	144000b2 	bnez	v0,9d003700 <do_scan+0x478>
9d003438:	2402006c 	li	v0,108
9d00343c:	12420054 	beq	s2,v0,9d003590 <do_scan+0x308>
9d003440:	8fa300a0 	lw	v1,160(sp)
9d003444:	24020071 	li	v0,113
9d003448:	16420005 	bne	s2,v0,9d003460 <do_scan+0x1d8>
9d00344c:	8fa200a0 	lw	v0,160(sp)
9d003450:	36310800 	ori	s1,s1,0x800
9d003454:	24430001 	addiu	v1,v0,1
9d003458:	afa300a0 	sw	v1,160(sp)
9d00345c:	80520000 	lb	s2,0(v0)
9d003460:	2652ffbc 	addiu	s2,s2,-68
9d003464:	2e420035 	sltiu	v0,s2,53
9d003468:	104001bf 	beqz	v0,9d003b68 <do_scan+0x8e0>
9d00346c:	00129080 	sll	s2,s2,0x2
9d003470:	02b29021 	addu	s2,s5,s2
9d003474:	8e420000 	lw	v0,0(s2)
9d003478:	00400008 	jr	v0
9d00347c:	00000000 	nop
9d003480:	9d0035c8 	0x9d0035c8
9d003484:	9d00389c 	0x9d00389c
9d003488:	9d00389c 	0x9d00389c
9d00348c:	9d00389c 	0x9d00389c
9d003490:	9d003b68 	0x9d003b68
9d003494:	9d003b68 	0x9d003b68
9d003498:	9d003b68 	0x9d003b68
9d00349c:	9d003b68 	0x9d003b68
9d0034a0:	9d003b68 	0x9d003b68
9d0034a4:	9d003b68 	0x9d003b68
9d0034a8:	9d003b68 	0x9d003b68
9d0034ac:	9d00388c 	0x9d00388c
9d0034b0:	9d003b68 	0x9d003b68
9d0034b4:	9d003b68 	0x9d003b68
9d0034b8:	9d003b68 	0x9d003b68
9d0034bc:	9d003b68 	0x9d003b68
9d0034c0:	9d003b68 	0x9d003b68
9d0034c4:	9d00387c 	0x9d00387c
9d0034c8:	9d003b68 	0x9d003b68
9d0034cc:	9d003b68 	0x9d003b68
9d0034d0:	9d003870 	0x9d003870
9d0034d4:	9d003b68 	0x9d003b68
9d0034d8:	9d003b68 	0x9d003b68
9d0034dc:	9d0037e0 	0x9d0037e0
9d0034e0:	9d003b68 	0x9d003b68
9d0034e4:	9d003b68 	0x9d003b68
9d0034e8:	9d003b68 	0x9d003b68
9d0034ec:	9d003b68 	0x9d003b68
9d0034f0:	9d003b68 	0x9d003b68
9d0034f4:	9d003b68 	0x9d003b68
9d0034f8:	9d003b68 	0x9d003b68
9d0034fc:	9d00379c 	0x9d00379c
9d003500:	9d0035cc 	0x9d0035cc
9d003504:	9d00389c 	0x9d00389c
9d003508:	9d00389c 	0x9d00389c
9d00350c:	9d00389c 	0x9d00389c
9d003510:	9d003b68 	0x9d003b68
9d003514:	9d003808 	0x9d003808
9d003518:	9d003b68 	0x9d003b68
9d00351c:	9d003b68 	0x9d003b68
9d003520:	9d003b68 	0x9d003b68
9d003524:	9d003b68 	0x9d003b68
9d003528:	9d003814 	0x9d003814
9d00352c:	9d003790 	0x9d003790
9d003530:	9d003870 	0x9d003870
9d003534:	9d003b68 	0x9d003b68
9d003538:	9d003b68 	0x9d003b68
9d00353c:	9d003850 	0x9d003850
9d003540:	9d003b68 	0x9d003b68
9d003544:	9d0035d0 	0x9d0035d0
9d003548:	9d003b68 	0x9d003b68
9d00354c:	9d003b68 	0x9d003b68
9d003550:	9d003870 	0x9d003870
9d003554:	1440ff8c 	bnez	v0,9d003388 <do_scan+0x100>
9d003558:	8fa200b0 	lw	v0,176(sp)
9d00355c:	2402ffff 	li	v0,-1
9d003560:	8fbf00fc 	lw	ra,252(sp)
9d003564:	8fbe00f8 	lw	s8,248(sp)
9d003568:	8fb700f4 	lw	s7,244(sp)
9d00356c:	8fb600f0 	lw	s6,240(sp)
9d003570:	8fb500ec 	lw	s5,236(sp)
9d003574:	8fb400e8 	lw	s4,232(sp)
9d003578:	8fb300e4 	lw	s3,228(sp)
9d00357c:	8fb200e0 	lw	s2,224(sp)
9d003580:	8fb100dc 	lw	s1,220(sp)
9d003584:	8fb000d8 	lw	s0,216(sp)
9d003588:	03e00008 	jr	ra
9d00358c:	27bd0100 	addiu	sp,sp,256
9d003590:	24640001 	addiu	a0,v1,1
9d003594:	afa400a0 	sw	a0,160(sp)
9d003598:	80720000 	lb	s2,0(v1)
9d00359c:	12420119 	beq	s2,v0,9d003a04 <do_scan+0x77c>
9d0035a0:	24620002 	addiu	v0,v1,2
9d0035a4:	0b400d18 	j	9d003460 <do_scan+0x1d8>
9d0035a8:	36310200 	ori	s1,s1,0x200
9d0035ac:	0f402996 	jal	9d00a658 <.LFE2>
9d0035b0:	8fa50098 	lw	a1,152(sp)
9d0035b4:	2402ffff 	li	v0,-1
9d0035b8:	57c2ff73 	bnel	s8,v0,9d003388 <do_scan+0x100>
9d0035bc:	8fa200b0 	lw	v0,176(sp)
9d0035c0:	0b400d55 	j	9d003554 <do_scan+0x2cc>
9d0035c4:	8fa200ac 	lw	v0,172(sp)
9d0035c8:	36310200 	ori	s1,s1,0x200
9d0035cc:	36311000 	ori	s1,s1,0x1000
9d0035d0:	2403000a 	li	v1,10
9d0035d4:	afa300d4 	sw	v1,212(sp)
9d0035d8:	0f402d41 	jal	9d00b504 <_eat_white>
9d0035dc:	27a40098 	addiu	a0,sp,152
9d0035e0:	1440ff58 	bnez	v0,9d003344 <do_scan+0xbc>
9d0035e4:	0040f021 	move	s8,v0
9d0035e8:	27a40018 	addiu	a0,sp,24
9d0035ec:	afa400cc 	sw	a0,204(sp)
9d0035f0:	8fa200d0 	lw	v0,208(sp)
9d0035f4:	1440010b 	bnez	v0,9d003a24 <do_scan+0x79c>
9d0035f8:	00009021 	move	s2,zero
9d0035fc:	27b60018 	addiu	s6,sp,24
9d003600:	8fa300d4 	lw	v1,212(sp)
9d003604:	106000fa 	beqz	v1,9d0039f0 <do_scan+0x768>
9d003608:	2417ffff 	li	s7,-1
9d00360c:	24020010 	li	v0,16
9d003610:	8fa300d4 	lw	v1,212(sp)
9d003614:	1062015a 	beq	v1,v0,9d003b80 <do_scan+0x8f8>
9d003618:	24020030 	li	v0,48
9d00361c:	24020008 	li	v0,8
9d003620:	8fa300d4 	lw	v1,212(sp)
9d003624:	146200f5 	bne	v1,v0,9d0039fc <do_scan+0x774>
9d003628:	3c029d01 	lui	v0,0x9d01
9d00362c:	24030008 	li	v1,8
9d003630:	afa300d4 	sw	v1,212(sp)
9d003634:	3c049d01 	lui	a0,0x9d01
9d003638:	2494c2fc 	addiu	s4,a0,-15620
9d00363c:	2403ffff 	li	v1,-1
9d003640:	12e30009 	beq	s7,v1,9d003668 <do_scan+0x3e0>
9d003644:	02802021 	move	a0,s4
9d003648:	0f402b29 	jal	9d00aca4 <strchr>
9d00364c:	02e02821 	move	a1,s7
9d003650:	1040011d 	beqz	v0,9d003ac8 <do_scan+0x840>
9d003654:	26c20001 	addiu	v0,s6,1
9d003658:	afa200cc 	sw	v0,204(sp)
9d00365c:	16400121 	bnez	s2,9d003ae4 <do_scan+0x85c>
9d003660:	a2d70000 	sb	s7,0(s6)
9d003664:	8fb600cc 	lw	s6,204(sp)
9d003668:	a2c00000 	sb	zero,0(s6)
9d00366c:	2417ffff 	li	s7,-1
9d003670:	32340800 	andi	s4,s1,0x800
9d003674:	32361000 	andi	s6,s1,0x1000
9d003678:	27a40018 	addiu	a0,sp,24
9d00367c:	27a500cc 	addiu	a1,sp,204
9d003680:	1280010a 	beqz	s4,9d003aac <do_scan+0x824>
9d003684:	8fa600d4 	lw	a2,212(sp)
9d003688:	12c00126 	beqz	s6,9d003b24 <do_scan+0x89c>
9d00368c:	00000000 	nop
9d003690:	0f401f25 	jal	9d007c94 <.LFE23>
9d003694:	00000000 	nop
9d003698:	00402021 	move	a0,v0
9d00369c:	00602821 	move	a1,v1
9d0036a0:	00001021 	move	v0,zero
9d0036a4:	8fa300ac 	lw	v1,172(sp)
9d0036a8:	24630001 	addiu	v1,v1,1
9d0036ac:	afa300ac 	sw	v1,172(sp)
9d0036b0:	8fa300d0 	lw	v1,208(sp)
9d0036b4:	10720115 	beq	v1,s2,9d003b0c <do_scan+0x884>
9d0036b8:	32230001 	andi	v1,s1,0x1
9d0036bc:	5460ff22 	bnezl	v1,9d003348 <do_scan+0xc0>
9d0036c0:	8fa500a0 	lw	a1,160(sp)
9d0036c4:	56800122 	bnezl	s4,9d003b50 <do_scan+0x8c8>
9d0036c8:	8fa200a4 	lw	v0,164(sp)
9d0036cc:	32230200 	andi	v1,s1,0x200
9d0036d0:	10600171 	beqz	v1,9d003c98 <do_scan+0xa10>
9d0036d4:	32230100 	andi	v1,s1,0x100
9d0036d8:	8fa300a4 	lw	v1,164(sp)
9d0036dc:	24640004 	addiu	a0,v1,4
9d0036e0:	afa400a4 	sw	a0,164(sp)
9d0036e4:	8c630000 	lw	v1,0(v1)
9d0036e8:	ac620000 	sw	v0,0(v1)
9d0036ec:	8fa200b0 	lw	v0,176(sp)
9d0036f0:	24420001 	addiu	v0,v0,1
9d0036f4:	afa200b0 	sw	v0,176(sp)
9d0036f8:	0b400cd2 	j	9d003348 <do_scan+0xc0>
9d0036fc:	8fa500a0 	lw	a1,160(sp)
9d003700:	2402004c 	li	v0,76
9d003704:	1642ff56 	bne	s2,v0,9d003460 <do_scan+0x1d8>
9d003708:	8fa200a0 	lw	v0,160(sp)
9d00370c:	36310400 	ori	s1,s1,0x400
9d003710:	24430001 	addiu	v1,v0,1
9d003714:	afa300a0 	sw	v1,160(sp)
9d003718:	0b400d18 	j	9d003460 <do_scan+0x1d8>
9d00371c:	80520000 	lb	s2,0(v0)
9d003720:	27a500a0 	addiu	a1,sp,160
9d003724:	2406000a 	li	a2,10
9d003728:	8fa200a0 	lw	v0,160(sp)
9d00372c:	2442ffff 	addiu	v0,v0,-1
9d003730:	00402021 	move	a0,v0
9d003734:	0f40245a 	jal	9d009168 <strtoul>
9d003738:	afa200a0 	sw	v0,160(sp)
9d00373c:	afa200d0 	sw	v0,208(sp)
9d003740:	8fa200a0 	lw	v0,160(sp)
9d003744:	24430001 	addiu	v1,v0,1
9d003748:	afa300a0 	sw	v1,160(sp)
9d00374c:	80520000 	lb	s2,0(v0)
9d003750:	24020068 	li	v0,104
9d003754:	5642ff37 	bnel	s2,v0,9d003434 <do_scan+0x1ac>
9d003758:	2a420069 	slti	v0,s2,105
9d00375c:	8fa300a0 	lw	v1,160(sp)
9d003760:	24640001 	addiu	a0,v1,1
9d003764:	afa400a0 	sw	a0,160(sp)
9d003768:	80720000 	lb	s2,0(v1)
9d00376c:	124200a9 	beq	s2,v0,9d003a14 <do_scan+0x78c>
9d003770:	24620002 	addiu	v0,v1,2
9d003774:	0b400d18 	j	9d003460 <do_scan+0x1d8>
9d003778:	36310100 	ori	s1,s1,0x100
9d00377c:	24a20003 	addiu	v0,a1,3
9d003780:	afa200a0 	sw	v0,160(sp)
9d003784:	80b20002 	lb	s2,2(a1)
9d003788:	0b400d03 	j	9d00340c <do_scan+0x184>
9d00378c:	24110001 	li	s1,1
9d003790:	24030008 	li	v1,8
9d003794:	0b400d76 	j	9d0035d8 <do_scan+0x350>
9d003798:	afa300d4 	sw	v1,212(sp)
9d00379c:	3c077fff 	lui	a3,0x7fff
9d0037a0:	34e7ffff 	ori	a3,a3,0xffff
9d0037a4:	8fa400d0 	lw	a0,208(sp)
9d0037a8:	00873826 	xor	a3,a0,a3
9d0037ac:	27a20098 	addiu	v0,sp,152
9d0037b0:	afa20010 	sw	v0,16(sp)
9d0037b4:	00002021 	move	a0,zero
9d0037b8:	00002821 	move	a1,zero
9d0037bc:	02203021 	move	a2,s1
9d0037c0:	24020001 	li	v0,1
9d0037c4:	8fa300d0 	lw	v1,208(sp)
9d0037c8:	0047180a 	movz	v1,v0,a3
9d0037cc:	0f402318 	jal	9d008c60 <.LFE4>
9d0037d0:	00603821 	move	a3,v1
9d0037d4:	0040f021 	move	s8,v0
9d0037d8:	0b400cd2 	j	9d003348 <do_scan+0xc0>
9d0037dc:	8fa500a0 	lw	a1,160(sp)
9d0037e0:	27a20098 	addiu	v0,sp,152
9d0037e4:	afa20010 	sw	v0,16(sp)
9d0037e8:	24040002 	li	a0,2
9d0037ec:	24050001 	li	a1,1
9d0037f0:	02203021 	move	a2,s1
9d0037f4:	0f402318 	jal	9d008c60 <.LFE4>
9d0037f8:	8fa700d0 	lw	a3,208(sp)
9d0037fc:	0040f021 	move	s8,v0
9d003800:	0b400cd2 	j	9d003348 <do_scan+0xc0>
9d003804:	8fa500a0 	lw	a1,160(sp)
9d003808:	36311000 	ori	s1,s1,0x1000
9d00380c:	0b400d76 	j	9d0035d8 <do_scan+0x350>
9d003810:	afa000d4 	sw	zero,212(sp)
9d003814:	32220001 	andi	v0,s1,0x1
9d003818:	1440fecb 	bnez	v0,9d003348 <do_scan+0xc0>
9d00381c:	8fa500a0 	lw	a1,160(sp)
9d003820:	32230800 	andi	v1,s1,0x800
9d003824:	10600112 	beqz	v1,9d003c70 <do_scan+0x9e8>
9d003828:	8fa200a8 	lw	v0,168(sp)
9d00382c:	8fa300a4 	lw	v1,164(sp)
9d003830:	000227c3 	sra	a0,v0,0x1f
9d003834:	24650004 	addiu	a1,v1,4
9d003838:	afa500a4 	sw	a1,164(sp)
9d00383c:	8c630000 	lw	v1,0(v1)
9d003840:	ac620000 	sw	v0,0(v1)
9d003844:	ac640004 	sw	a0,4(v1)
9d003848:	0b400cd2 	j	9d003348 <do_scan+0xc0>
9d00384c:	8fa500a0 	lw	a1,160(sp)
9d003850:	0f402d41 	jal	9d00b504 <_eat_white>
9d003854:	27a40098 	addiu	a0,sp,152
9d003858:	1440feba 	bnez	v0,9d003344 <do_scan+0xbc>
9d00385c:	0040f021 	move	s8,v0
9d003860:	27a30098 	addiu	v1,sp,152
9d003864:	afa30010 	sw	v1,16(sp)
9d003868:	0b400dfb 	j	9d0037ec <do_scan+0x564>
9d00386c:	24040001 	li	a0,1
9d003870:	24030010 	li	v1,16
9d003874:	0b400d76 	j	9d0035d8 <do_scan+0x350>
9d003878:	afa300d4 	sw	v1,212(sp)
9d00387c:	36310200 	ori	s1,s1,0x200
9d003880:	2403000a 	li	v1,10
9d003884:	0b400d76 	j	9d0035d8 <do_scan+0x350>
9d003888:	afa300d4 	sw	v1,212(sp)
9d00388c:	36310200 	ori	s1,s1,0x200
9d003890:	24030008 	li	v1,8
9d003894:	0b400d76 	j	9d0035d8 <do_scan+0x350>
9d003898:	afa300d4 	sw	v1,212(sp)
9d00389c:	0f402d41 	jal	9d00b504 <_eat_white>
9d0038a0:	27a40098 	addiu	a0,sp,152
9d0038a4:	1440fea7 	bnez	v0,9d003344 <do_scan+0xbc>
9d0038a8:	0040f021 	move	s8,v0
9d0038ac:	8fa400d0 	lw	a0,208(sp)
9d0038b0:	afa400b8 	sw	a0,184(sp)
9d0038b4:	27a20098 	addiu	v0,sp,152
9d0038b8:	afa200b4 	sw	v0,180(sp)
9d0038bc:	27a20018 	addiu	v0,sp,24
9d0038c0:	afa200bc 	sw	v0,188(sp)
9d0038c4:	afa000c0 	sw	zero,192(sp)
9d0038c8:	24020080 	li	v0,128
9d0038cc:	afa200c4 	sw	v0,196(sp)
9d0038d0:	14800109 	bnez	a0,9d003cf8 <do_scan+0xa70>
9d0038d4:	afa000c8 	sw	zero,200(sp)
9d0038d8:	3c049d01 	lui	a0,0x9d01
9d0038dc:	2482a9a0 	addiu	v0,a0,-22112
9d0038e0:	2416ffff 	li	s6,-1
9d0038e4:	0000a021 	move	s4,zero
9d0038e8:	0b400e40 	j	9d003900 <do_scan+0x678>
9d0038ec:	27b200b4 	addiu	s2,sp,180
9d0038f0:	0f4029e3 	jal	9d00a78c <putget.2773>
9d0038f4:	02c02021 	move	a0,s6
9d0038f8:	0040b021 	move	s6,v0
9d0038fc:	02021021 	addu	v0,s0,v0
9d003900:	90420000 	lbu	v0,0(v0)
9d003904:	30420004 	andi	v0,v0,0x4
9d003908:	1440fff9 	bnez	v0,9d0038f0 <do_scan+0x668>
9d00390c:	02407821 	move	t7,s2
9d003910:	2402002e 	li	v0,46
9d003914:	12c20135 	beq	s6,v0,9d003dec <do_scan+0xb64>
9d003918:	8fa200c8 	lw	v0,200(sp)
9d00391c:	00541023 	subu	v0,v0,s4
9d003920:	18400005 	blez	v0,9d003938 <do_scan+0x6b0>
9d003924:	2403ffdf 	li	v1,-33
9d003928:	02c31824 	and	v1,s6,v1
9d00392c:	24020045 	li	v0,69
9d003930:	1062010a 	beq	v1,v0,9d003d5c <do_scan+0xad4>
9d003934:	02407821 	move	t7,s2
9d003938:	02407821 	move	t7,s2
9d00393c:	0f4029e3 	jal	9d00a78c <putget.2773>
9d003940:	00002021 	move	a0,zero
9d003944:	2402ffff 	li	v0,-1
9d003948:	12c20008 	beq	s6,v0,9d00396c <do_scan+0x6e4>
9d00394c:	8fa200b4 	lw	v0,180(sp)
9d003950:	8c430010 	lw	v1,16(v0)
9d003954:	8fa400b8 	lw	a0,184(sp)
9d003958:	24840001 	addiu	a0,a0,1
9d00395c:	afa400b8 	sw	a0,184(sp)
9d003960:	2463ffff 	addiu	v1,v1,-1
9d003964:	ac560004 	sw	s6,4(v0)
9d003968:	ac430010 	sw	v1,16(v0)
9d00396c:	8fa200c8 	lw	v0,200(sp)
9d003970:	0054a023 	subu	s4,v0,s4
9d003974:	1a8000f7 	blez	s4,9d003d54 <do_scan+0xacc>
9d003978:	8fa200b4 	lw	v0,180(sp)
9d00397c:	32230001 	andi	v1,s1,0x1
9d003980:	8c440014 	lw	a0,20(v0)
9d003984:	24840001 	addiu	a0,a0,1
9d003988:	14600011 	bnez	v1,9d0039d0 <do_scan+0x748>
9d00398c:	ac440014 	sw	a0,20(v0)
9d003990:	32230400 	andi	v1,s1,0x400
9d003994:	14600129 	bnez	v1,9d003e3c <do_scan+0xbb4>
9d003998:	00002821 	move	a1,zero
9d00399c:	32310200 	andi	s1,s1,0x200
9d0039a0:	8c43000c 	lw	v1,12(v0)
9d0039a4:	8fa400bc 	lw	a0,188(sp)
9d0039a8:	24660004 	addiu	a2,v1,4
9d0039ac:	1220011c 	beqz	s1,9d003e20 <do_scan+0xb98>
9d0039b0:	ac46000c 	sw	a2,12(v0)
9d0039b4:	0f40311e 	jal	9d00c478 <strtod>
9d0039b8:	8c710000 	lw	s1,0(v1)
9d0039bc:	ae220000 	sw	v0,0(s1)
9d0039c0:	8fa200b4 	lw	v0,180(sp)
9d0039c4:	8c430018 	lw	v1,24(v0)
9d0039c8:	24630001 	addiu	v1,v1,1
9d0039cc:	ac430018 	sw	v1,24(v0)
9d0039d0:	8fa400c0 	lw	a0,192(sp)
9d0039d4:	5080fe5c 	beqzl	a0,9d003348 <do_scan+0xc0>
9d0039d8:	8fa500a0 	lw	a1,160(sp)
9d0039dc:	0f4023b9 	jal	9d008ee4 <free>
9d0039e0:	00000000 	nop
9d0039e4:	0b400cd2 	j	9d003348 <do_scan+0xc0>
9d0039e8:	8fa500a0 	lw	a1,160(sp)
9d0039ec:	2417ffff 	li	s7,-1
9d0039f0:	2403000a 	li	v1,10
9d0039f4:	afa300d4 	sw	v1,212(sp)
9d0039f8:	3c029d01 	lui	v0,0x9d01
9d0039fc:	0b400d8f 	j	9d00363c <do_scan+0x3b4>
9d003a00:	2454c320 	addiu	s4,v0,-15584
9d003a04:	afa200a0 	sw	v0,160(sp)
9d003a08:	80720001 	lb	s2,1(v1)
9d003a0c:	0b400d18 	j	9d003460 <do_scan+0x1d8>
9d003a10:	36310800 	ori	s1,s1,0x800
9d003a14:	afa200a0 	sw	v0,160(sp)
9d003a18:	80720001 	lb	s2,1(v1)
9d003a1c:	0b400d18 	j	9d003460 <do_scan+0x1d8>
9d003a20:	36310080 	ori	s1,s1,0x80
9d003a24:	0f402f40 	jal	9d00bd00 <gsgetc>
9d003a28:	27a40098 	addiu	a0,sp,152
9d003a2c:	0040b821 	move	s7,v0
9d003a30:	2402ffff 	li	v0,-1
9d003a34:	12e2004f 	beq	s7,v0,9d003b74 <do_scan+0x8ec>
9d003a38:	8fa300d0 	lw	v1,208(sp)
9d003a3c:	2402002b 	li	v0,43
9d003a40:	16e2010c 	bne	s7,v0,9d003e74 <do_scan+0xbec>
9d003a44:	2472ffff 	addiu	s2,v1,-1
9d003a48:	8fa200cc 	lw	v0,204(sp)
9d003a4c:	24430001 	addiu	v1,v0,1
9d003a50:	afa300cc 	sw	v1,204(sp)
9d003a54:	16400063 	bnez	s2,9d003be4 <do_scan+0x95c>
9d003a58:	a0570000 	sb	s7,0(v0)
9d003a5c:	8fa300d4 	lw	v1,212(sp)
9d003a60:	1060ffe2 	beqz	v1,9d0039ec <do_scan+0x764>
9d003a64:	8fb600cc 	lw	s6,204(sp)
9d003a68:	24020010 	li	v0,16
9d003a6c:	1462feeb 	bne	v1,v0,9d00361c <do_scan+0x394>
9d003a70:	2417ffff 	li	s7,-1
9d003a74:	24030010 	li	v1,16
9d003a78:	afa300d4 	sw	v1,212(sp)
9d003a7c:	3c049d01 	lui	a0,0x9d01
9d003a80:	0b400d8f 	j	9d00363c <do_scan+0x3b4>
9d003a84:	2494c308 	addiu	s4,a0,-15608
9d003a88:	0f402f40 	jal	9d00bd00 <gsgetc>
9d003a8c:	27a40098 	addiu	a0,sp,152
9d003a90:	2403ffff 	li	v1,-1
9d003a94:	5043001b 	beql	v0,v1,9d003b04 <do_scan+0x87c>
9d003a98:	241effff 	li	s8,-1
9d003a9c:	5452fe4e 	bnel	v0,s2,9d0033d8 <do_scan+0x150>
9d003aa0:	afa2009c 	sw	v0,156(sp)
9d003aa4:	0b400cd2 	j	9d003348 <do_scan+0xc0>
9d003aa8:	8fa500a0 	lw	a1,160(sp)
9d003aac:	12c00023 	beqz	s6,9d003b3c <do_scan+0x8b4>
9d003ab0:	00000000 	nop
9d003ab4:	0f4024fa 	jal	9d0093e8 <strtol>
9d003ab8:	00000000 	nop
9d003abc:	00002021 	move	a0,zero
9d003ac0:	0b400da9 	j	9d0036a4 <do_scan+0x41c>
9d003ac4:	00002821 	move	a1,zero
9d003ac8:	a2c00000 	sb	zero,0(s6)
9d003acc:	26520001 	addiu	s2,s2,1
9d003ad0:	afb7009c 	sw	s7,156(sp)
9d003ad4:	8fa200a8 	lw	v0,168(sp)
9d003ad8:	2442ffff 	addiu	v0,v0,-1
9d003adc:	0b400d9c 	j	9d003670 <do_scan+0x3e8>
9d003ae0:	afa200a8 	sw	v0,168(sp)
9d003ae4:	0f402f40 	jal	9d00bd00 <gsgetc>
9d003ae8:	27a40098 	addiu	a0,sp,152
9d003aec:	0040b821 	move	s7,v0
9d003af0:	00021027 	nor	v0,zero,v0
9d003af4:	8fb600cc 	lw	s6,204(sp)
9d003af8:	0002102b 	sltu	v0,zero,v0
9d003afc:	0b400d8f 	j	9d00363c <do_scan+0x3b4>
9d003b00:	02429023 	subu	s2,s2,v0
9d003b04:	0b400cd2 	j	9d003348 <do_scan+0xc0>
9d003b08:	8fa500a0 	lw	a1,160(sp)
9d003b0c:	241effff 	li	s8,-1
9d003b10:	00174027 	nor	t0,zero,s7
9d003b14:	24020001 	li	v0,1
9d003b18:	0048f00b 	movn	s8,v0,t0
9d003b1c:	0b400cd2 	j	9d003348 <do_scan+0xc0>
9d003b20:	8fa500a0 	lw	a1,160(sp)
9d003b24:	0f4021a8 	jal	9d0086a0 <strtoull>
9d003b28:	00000000 	nop
9d003b2c:	00402021 	move	a0,v0
9d003b30:	00602821 	move	a1,v1
9d003b34:	0b400da9 	j	9d0036a4 <do_scan+0x41c>
9d003b38:	00001021 	move	v0,zero
9d003b3c:	0f40245a 	jal	9d009168 <strtoul>
9d003b40:	00000000 	nop
9d003b44:	00002021 	move	a0,zero
9d003b48:	0b400da9 	j	9d0036a4 <do_scan+0x41c>
9d003b4c:	00002821 	move	a1,zero
9d003b50:	24430004 	addiu	v1,v0,4
9d003b54:	afa300a4 	sw	v1,164(sp)
9d003b58:	8c420000 	lw	v0,0(v0)
9d003b5c:	ac440000 	sw	a0,0(v0)
9d003b60:	0b400dbb 	j	9d0036ec <do_scan+0x464>
9d003b64:	ac450004 	sw	a1,4(v0)
9d003b68:	241e0001 	li	s8,1
9d003b6c:	0b400cd2 	j	9d003348 <do_scan+0xc0>
9d003b70:	8fa500a0 	lw	a1,160(sp)
9d003b74:	8fb600cc 	lw	s6,204(sp)
9d003b78:	0b400d80 	j	9d003600 <do_scan+0x378>
9d003b7c:	8fb200d0 	lw	s2,208(sp)
9d003b80:	16e2ffbd 	bne	s7,v0,9d003a78 <do_scan+0x7f0>
9d003b84:	24030010 	li	v1,16
9d003b88:	26c20001 	addiu	v0,s6,1
9d003b8c:	afa200cc 	sw	v0,204(sp)
9d003b90:	16400004 	bnez	s2,9d003ba4 <do_scan+0x91c>
9d003b94:	a2d70000 	sb	s7,0(s6)
9d003b98:	8fb600cc 	lw	s6,204(sp)
9d003b9c:	0b400e9d 	j	9d003a74 <do_scan+0x7ec>
9d003ba0:	2417ffff 	li	s7,-1
9d003ba4:	0f402f40 	jal	9d00bd00 <gsgetc>
9d003ba8:	27a40098 	addiu	a0,sp,152
9d003bac:	2416ffff 	li	s6,-1
9d003bb0:	1056fff9 	beq	v0,s6,9d003b98 <do_scan+0x910>
9d003bb4:	0040b821 	move	s7,v0
9d003bb8:	2403ffdf 	li	v1,-33
9d003bbc:	00431824 	and	v1,v0,v1
9d003bc0:	24020058 	li	v0,88
9d003bc4:	146200a8 	bne	v1,v0,9d003e68 <do_scan+0xbe0>
9d003bc8:	2654ffff 	addiu	s4,s2,-1
9d003bcc:	16800080 	bnez	s4,9d003dd0 <do_scan+0xb48>
9d003bd0:	00000000 	nop
9d003bd4:	8fb600cc 	lw	s6,204(sp)
9d003bd8:	00009021 	move	s2,zero
9d003bdc:	0b400e9d 	j	9d003a74 <do_scan+0x7ec>
9d003be0:	2417ffff 	li	s7,-1
9d003be4:	0f402f40 	jal	9d00bd00 <gsgetc>
9d003be8:	27a40098 	addiu	a0,sp,152
9d003bec:	0040b821 	move	s7,v0
9d003bf0:	2402ffff 	li	v0,-1
9d003bf4:	12e2ff9a 	beq	s7,v0,9d003a60 <do_scan+0x7d8>
9d003bf8:	8fa300d4 	lw	v1,212(sp)
9d003bfc:	8fb600cc 	lw	s6,204(sp)
9d003c00:	8fa400d0 	lw	a0,208(sp)
9d003c04:	2492fffe 	addiu	s2,a0,-2
9d003c08:	8fa300d4 	lw	v1,212(sp)
9d003c0c:	1460fe81 	bnez	v1,9d003614 <do_scan+0x38c>
9d003c10:	24020010 	li	v0,16
9d003c14:	24020030 	li	v0,48
9d003c18:	16e2ff76 	bne	s7,v0,9d0039f4 <do_scan+0x76c>
9d003c1c:	2403000a 	li	v1,10
9d003c20:	26c20001 	addiu	v0,s6,1
9d003c24:	afa200cc 	sw	v0,204(sp)
9d003c28:	16400004 	bnez	s2,9d003c3c <do_scan+0x9b4>
9d003c2c:	a2d70000 	sb	s7,0(s6)
9d003c30:	2417ffff 	li	s7,-1
9d003c34:	0b400d8b 	j	9d00362c <do_scan+0x3a4>
9d003c38:	8fb600cc 	lw	s6,204(sp)
9d003c3c:	0f402f40 	jal	9d00bd00 <gsgetc>
9d003c40:	27a40098 	addiu	a0,sp,152
9d003c44:	2416ffff 	li	s6,-1
9d003c48:	1056fff9 	beq	v0,s6,9d003c30 <do_scan+0x9a8>
9d003c4c:	0040b821 	move	s7,v0
9d003c50:	2403ffdf 	li	v1,-33
9d003c54:	00431824 	and	v1,v0,v1
9d003c58:	24020058 	li	v0,88
9d003c5c:	1062ffdb 	beq	v1,v0,9d003bcc <do_scan+0x944>
9d003c60:	2654ffff 	addiu	s4,s2,-1
9d003c64:	02809021 	move	s2,s4
9d003c68:	0b400d8b 	j	9d00362c <do_scan+0x3a4>
9d003c6c:	8fb600cc 	lw	s6,204(sp)
9d003c70:	32230200 	andi	v1,s1,0x200
9d003c74:	10600010 	beqz	v1,9d003cb8 <do_scan+0xa30>
9d003c78:	32230100 	andi	v1,s1,0x100
9d003c7c:	8fa300a4 	lw	v1,164(sp)
9d003c80:	24640004 	addiu	a0,v1,4
9d003c84:	afa400a4 	sw	a0,164(sp)
9d003c88:	8c630000 	lw	v1,0(v1)
9d003c8c:	ac620000 	sw	v0,0(v1)
9d003c90:	0b400cd2 	j	9d003348 <do_scan+0xc0>
9d003c94:	8fa500a0 	lw	a1,160(sp)
9d003c98:	10600010 	beqz	v1,9d003cdc <do_scan+0xa54>
9d003c9c:	32310080 	andi	s1,s1,0x80
9d003ca0:	8fa300a4 	lw	v1,164(sp)
9d003ca4:	24640004 	addiu	a0,v1,4
9d003ca8:	afa400a4 	sw	a0,164(sp)
9d003cac:	8c630000 	lw	v1,0(v1)
9d003cb0:	0b400dbb 	j	9d0036ec <do_scan+0x464>
9d003cb4:	a4620000 	sh	v0,0(v1)
9d003cb8:	1060003d 	beqz	v1,9d003db0 <do_scan+0xb28>
9d003cbc:	32310080 	andi	s1,s1,0x80
9d003cc0:	8fa300a4 	lw	v1,164(sp)
9d003cc4:	24640004 	addiu	a0,v1,4
9d003cc8:	afa400a4 	sw	a0,164(sp)
9d003ccc:	8c630000 	lw	v1,0(v1)
9d003cd0:	a4620000 	sh	v0,0(v1)
9d003cd4:	0b400cd2 	j	9d003348 <do_scan+0xc0>
9d003cd8:	8fa500a0 	lw	a1,160(sp)
9d003cdc:	8fa300a4 	lw	v1,164(sp)
9d003ce0:	24640004 	addiu	a0,v1,4
9d003ce4:	afa400a4 	sw	a0,164(sp)
9d003ce8:	1220002f 	beqz	s1,9d003da8 <do_scan+0xb20>
9d003cec:	8c630000 	lw	v1,0(v1)
9d003cf0:	0b400dbb 	j	9d0036ec <do_scan+0x464>
9d003cf4:	a0620000 	sb	v0,0(v1)
9d003cf8:	0f402f40 	jal	9d00bd00 <gsgetc>
9d003cfc:	27a40098 	addiu	a0,sp,152
9d003d00:	0040b021 	move	s6,v0
9d003d04:	2402ffff 	li	v0,-1
9d003d08:	52c2fef4 	beql	s6,v0,9d0038dc <do_scan+0x654>
9d003d0c:	3c049d01 	lui	a0,0x9d01
9d003d10:	8fa200b8 	lw	v0,184(sp)
9d003d14:	2442ffff 	addiu	v0,v0,-1
9d003d18:	afa200b8 	sw	v0,184(sp)
9d003d1c:	2402002b 	li	v0,43
9d003d20:	56c20059 	bnel	s6,v0,9d003e88 <do_scan+0xc00>
9d003d24:	2402002d 	li	v0,45
9d003d28:	27b200b4 	addiu	s2,sp,180
9d003d2c:	02407821 	move	t7,s2
9d003d30:	0f4029e3 	jal	9d00a78c <putget.2773>
9d003d34:	02c02021 	move	a0,s6
9d003d38:	0040b021 	move	s6,v0
9d003d3c:	24420001 	addiu	v0,v0,1
9d003d40:	3c049d01 	lui	a0,0x9d01
9d003d44:	2483a9a0 	addiu	v1,a0,-22112
9d003d48:	00621021 	addu	v0,v1,v0
9d003d4c:	0b400e40 	j	9d003900 <do_scan+0x678>
9d003d50:	24140001 	li	s4,1
9d003d54:	0b400e74 	j	9d0039d0 <do_scan+0x748>
9d003d58:	241e0001 	li	s8,1
9d003d5c:	0f4029e3 	jal	9d00a78c <putget.2773>
9d003d60:	02c02021 	move	a0,s6
9d003d64:	0040b021 	move	s6,v0
9d003d68:	2402002d 	li	v0,45
9d003d6c:	12c20003 	beq	s6,v0,9d003d7c <do_scan+0xaf4>
9d003d70:	2402002b 	li	v0,43
9d003d74:	16c20006 	bne	s6,v0,9d003d90 <do_scan+0xb08>
9d003d78:	02161021 	addu	v0,s0,s6
9d003d7c:	02407821 	move	t7,s2
9d003d80:	0f4029e3 	jal	9d00a78c <putget.2773>
9d003d84:	02c02021 	move	a0,s6
9d003d88:	0040b021 	move	s6,v0
9d003d8c:	02161021 	addu	v0,s0,s6
9d003d90:	90420000 	lbu	v0,0(v0)
9d003d94:	30420004 	andi	v0,v0,0x4
9d003d98:	1440fff9 	bnez	v0,9d003d80 <do_scan+0xaf8>
9d003d9c:	02407821 	move	t7,s2
9d003da0:	0b400e4f 	j	9d00393c <do_scan+0x6b4>
9d003da4:	00000000 	nop
9d003da8:	0b400dbb 	j	9d0036ec <do_scan+0x464>
9d003dac:	ac620000 	sw	v0,0(v1)
9d003db0:	8fa300a4 	lw	v1,164(sp)
9d003db4:	24640004 	addiu	a0,v1,4
9d003db8:	afa400a4 	sw	a0,164(sp)
9d003dbc:	1220001c 	beqz	s1,9d003e30 <do_scan+0xba8>
9d003dc0:	8c630000 	lw	v1,0(v1)
9d003dc4:	a0620000 	sb	v0,0(v1)
9d003dc8:	0b400cd2 	j	9d003348 <do_scan+0xc0>
9d003dcc:	8fa500a0 	lw	a1,160(sp)
9d003dd0:	0f402f40 	jal	9d00bd00 <gsgetc>
9d003dd4:	27a40098 	addiu	a0,sp,152
9d003dd8:	10560023 	beq	v0,s6,9d003e68 <do_scan+0xbe0>
9d003ddc:	0040b821 	move	s7,v0
9d003de0:	2652fffe 	addiu	s2,s2,-2
9d003de4:	0b400e9d 	j	9d003a74 <do_scan+0x7ec>
9d003de8:	8fb600cc 	lw	s6,204(sp)
9d003dec:	0b400f7e 	j	9d003df8 <do_scan+0xb70>
9d003df0:	2404002e 	li	a0,46
9d003df4:	02c02021 	move	a0,s6
9d003df8:	0f4029e3 	jal	9d00a78c <putget.2773>
9d003dfc:	00000000 	nop
9d003e00:	0040b021 	move	s6,v0
9d003e04:	02021021 	addu	v0,s0,v0
9d003e08:	90420000 	lbu	v0,0(v0)
9d003e0c:	30420004 	andi	v0,v0,0x4
9d003e10:	1440fff8 	bnez	v0,9d003df4 <do_scan+0xb6c>
9d003e14:	02407821 	move	t7,s2
9d003e18:	0b400e47 	j	9d00391c <do_scan+0x694>
9d003e1c:	8fa200c8 	lw	v0,200(sp)
9d003e20:	0f403125 	jal	9d00c494 <strtof>
9d003e24:	8c710000 	lw	s1,0(v1)
9d003e28:	0b400e70 	j	9d0039c0 <do_scan+0x738>
9d003e2c:	ae220000 	sw	v0,0(s1)
9d003e30:	ac620000 	sw	v0,0(v1)
9d003e34:	0b400cd2 	j	9d003348 <do_scan+0xc0>
9d003e38:	8fa500a0 	lw	a1,160(sp)
9d003e3c:	8c43000c 	lw	v1,12(v0)
9d003e40:	8fa400bc 	lw	a0,188(sp)
9d003e44:	24660004 	addiu	a2,v1,4
9d003e48:	ac46000c 	sw	a2,12(v0)
9d003e4c:	0f40311e 	jal	9d00c478 <strtod>
9d003e50:	8c710000 	lw	s1,0(v1)
9d003e54:	0f402c9d 	jal	9d00b274 <__extendsfdf2>
9d003e58:	00402021 	move	a0,v0
9d003e5c:	ae220000 	sw	v0,0(s1)
9d003e60:	0b400e70 	j	9d0039c0 <do_scan+0x738>
9d003e64:	ae230004 	sw	v1,4(s1)
9d003e68:	8fb600cc 	lw	s6,204(sp)
9d003e6c:	0b400e9d 	j	9d003a74 <do_scan+0x7ec>
9d003e70:	02809021 	move	s2,s4
9d003e74:	2402002d 	li	v0,45
9d003e78:	12e2fef4 	beq	s7,v0,9d003a4c <do_scan+0x7c4>
9d003e7c:	8fa200cc 	lw	v0,204(sp)
9d003e80:	0b400f02 	j	9d003c08 <do_scan+0x980>
9d003e84:	8fb600cc 	lw	s6,204(sp)
9d003e88:	52c2ffa8 	beql	s6,v0,9d003d2c <do_scan+0xaa4>
9d003e8c:	27b200b4 	addiu	s2,sp,180
9d003e90:	26c20001 	addiu	v0,s6,1
9d003e94:	3c049d01 	lui	a0,0x9d01
9d003e98:	2483a9a0 	addiu	v1,a0,-22112
9d003e9c:	0b400e39 	j	9d0038e4 <do_scan+0x65c>
9d003ea0:	00621021 	addu	v0,v1,v0

Disassembly of section .text._do_print_cdfFnopuxX:

9d003ea4 <_do_print_cdfFnopuxX>:
9d003ea4:	27bdff60 	addiu	sp,sp,-160
9d003ea8:	afbf009c 	sw	ra,156(sp)
9d003eac:	afbe0098 	sw	s8,152(sp)
9d003eb0:	afb70094 	sw	s7,148(sp)
9d003eb4:	afb60090 	sw	s6,144(sp)
9d003eb8:	afb5008c 	sw	s5,140(sp)
9d003ebc:	afb40088 	sw	s4,136(sp)
9d003ec0:	afb30084 	sw	s3,132(sp)
9d003ec4:	afb20080 	sw	s2,128(sp)
9d003ec8:	afb1007c 	sw	s1,124(sp)
9d003ecc:	afb00078 	sw	s0,120(sp)
9d003ed0:	afa400a0 	sw	a0,160(sp)
9d003ed4:	8c820018 	lw	v0,24(a0)
9d003ed8:	00a09021 	move	s2,a1
9d003edc:	24050001 	li	a1,1
9d003ee0:	8c420010 	lw	v0,16(v0)
9d003ee4:	0040f809 	jalr	v0
9d003ee8:	afa600a8 	sw	a2,168(sp)
9d003eec:	104001a9 	beqz	v0,9d004594 <_do_print_cdfFnopuxX+0x6f0>
9d003ef0:	27a20058 	addiu	v0,sp,88
9d003ef4:	afa00068 	sw	zero,104(sp)
9d003ef8:	afa20060 	sw	v0,96(sp)
9d003efc:	82440000 	lb	a0,0(s2)
9d003f00:	1080000d 	beqz	a0,9d003f38 <_do_print_cdfFnopuxX+0x94>
9d003f04:	26500001 	addiu	s0,s2,1
9d003f08:	24020025 	li	v0,37
9d003f0c:	5082001c 	beql	a0,v0,9d003f80 <_do_print_cdfFnopuxX+0xdc>
9d003f10:	82420001 	lb	v0,1(s2)
9d003f14:	0f402c72 	jal	9d00b1c8 <.LFE3>
9d003f18:	8fa500a0 	lw	a1,160(sp)
9d003f1c:	8fa30068 	lw	v1,104(sp)
9d003f20:	24630001 	addiu	v1,v1,1
9d003f24:	afa30068 	sw	v1,104(sp)
9d003f28:	02009021 	move	s2,s0
9d003f2c:	82440000 	lb	a0,0(s2)
9d003f30:	1480fff5 	bnez	a0,9d003f08 <_do_print_cdfFnopuxX+0x64>
9d003f34:	26500001 	addiu	s0,s2,1
9d003f38:	8fa400a0 	lw	a0,160(sp)
9d003f3c:	94820010 	lhu	v0,16(a0)
9d003f40:	30420040 	andi	v0,v0,0x40
9d003f44:	14400194 	bnez	v0,9d004598 <_do_print_cdfFnopuxX+0x6f4>
9d003f48:	2402ffff 	li	v0,-1
9d003f4c:	8fa20068 	lw	v0,104(sp)
9d003f50:	8fbf009c 	lw	ra,156(sp)
9d003f54:	8fbe0098 	lw	s8,152(sp)
9d003f58:	8fb70094 	lw	s7,148(sp)
9d003f5c:	8fb60090 	lw	s6,144(sp)
9d003f60:	8fb5008c 	lw	s5,140(sp)
9d003f64:	8fb40088 	lw	s4,136(sp)
9d003f68:	8fb30084 	lw	s3,132(sp)
9d003f6c:	8fb20080 	lw	s2,128(sp)
9d003f70:	8fb1007c 	lw	s1,124(sp)
9d003f74:	8fb00078 	lw	s0,120(sp)
9d003f78:	03e00008 	jr	ra
9d003f7c:	27bd00a0 	addiu	sp,sp,160
9d003f80:	10440174 	beq	v0,a0,9d004554 <_do_print_cdfFnopuxX+0x6b0>
9d003f84:	0000b821 	move	s7,zero
9d003f88:	2403002d 	li	v1,45
9d003f8c:	2404002b 	li	a0,43
9d003f90:	24050020 	li	a1,32
9d003f94:	24060023 	li	a2,35
9d003f98:	1043000e 	beq	v0,v1,9d003fd4 <_do_print_cdfFnopuxX+0x130>
9d003f9c:	24070030 	li	a3,48
9d003fa0:	50440010 	beql	v0,a0,9d003fe4 <_do_print_cdfFnopuxX+0x140>
9d003fa4:	36f70002 	ori	s7,s7,0x2
9d003fa8:	50450011 	beql	v0,a1,9d003ff0 <_do_print_cdfFnopuxX+0x14c>
9d003fac:	36f70001 	ori	s7,s7,0x1
9d003fb0:	50460012 	beql	v0,a2,9d003ffc <_do_print_cdfFnopuxX+0x158>
9d003fb4:	36f70800 	ori	s7,s7,0x800
9d003fb8:	54470013 	bnel	v0,a3,9d004008 <_do_print_cdfFnopuxX+0x164>
9d003fbc:	2403002a 	li	v1,42
9d003fc0:	36f70004 	ori	s7,s7,0x4
9d003fc4:	26100001 	addiu	s0,s0,1
9d003fc8:	82020000 	lb	v0,0(s0)
9d003fcc:	1443fff4 	bne	v0,v1,9d003fa0 <_do_print_cdfFnopuxX+0xfc>
9d003fd0:	00000000 	nop
9d003fd4:	36f70008 	ori	s7,s7,0x8
9d003fd8:	26100001 	addiu	s0,s0,1
9d003fdc:	0b400ff3 	j	9d003fcc <_do_print_cdfFnopuxX+0x128>
9d003fe0:	82020000 	lb	v0,0(s0)
9d003fe4:	26100001 	addiu	s0,s0,1
9d003fe8:	0b400ff3 	j	9d003fcc <_do_print_cdfFnopuxX+0x128>
9d003fec:	82020000 	lb	v0,0(s0)
9d003ff0:	26100001 	addiu	s0,s0,1
9d003ff4:	0b400ff3 	j	9d003fcc <_do_print_cdfFnopuxX+0x128>
9d003ff8:	82020000 	lb	v0,0(s0)
9d003ffc:	26100001 	addiu	s0,s0,1
9d004000:	0b400ff3 	j	9d003fcc <_do_print_cdfFnopuxX+0x128>
9d004004:	82020000 	lb	v0,0(s0)
9d004008:	10430128 	beq	v0,v1,9d0044ac <_do_print_cdfFnopuxX+0x608>
9d00400c:	02002021 	move	a0,s0
9d004010:	2443ffd0 	addiu	v1,v0,-48
9d004014:	2c63000a 	sltiu	v1,v1,10
9d004018:	1060000b 	beqz	v1,9d004048 <_do_print_cdfFnopuxX+0x1a4>
9d00401c:	0000b021 	move	s6,zero
9d004020:	00161840 	sll	v1,s6,0x1
9d004024:	001650c0 	sll	t2,s6,0x3
9d004028:	006a5021 	addu	t2,v1,t2
9d00402c:	26100001 	addiu	s0,s0,1
9d004030:	01425021 	addu	t2,t2,v0
9d004034:	82020000 	lb	v0,0(s0)
9d004038:	2443ffd0 	addiu	v1,v0,-48
9d00403c:	2c63000a 	sltiu	v1,v1,10
9d004040:	1460fff7 	bnez	v1,9d004020 <_do_print_cdfFnopuxX+0x17c>
9d004044:	2556ffd0 	addiu	s6,t2,-48
9d004048:	2403002e 	li	v1,46
9d00404c:	104300f0 	beq	v0,v1,9d004410 <_do_print_cdfFnopuxX+0x56c>
9d004050:	241effff 	li	s8,-1
9d004054:	24030068 	li	v1,104
9d004058:	50430103 	beql	v0,v1,9d004468 <_do_print_cdfFnopuxX+0x5c4>
9d00405c:	82030001 	lb	v1,1(s0)
9d004060:	2403006c 	li	v1,108
9d004064:	1043011b 	beq	v0,v1,9d0044d4 <_do_print_cdfFnopuxX+0x630>
9d004068:	24030071 	li	v1,113
9d00406c:	10430145 	beq	v0,v1,9d004584 <_do_print_cdfFnopuxX+0x6e0>
9d004070:	2403004c 	li	v1,76
9d004074:	504301d4 	beql	v0,v1,9d0047c8 <_do_print_cdfFnopuxX+0x924>
9d004078:	82020001 	lb	v0,1(s0)
9d00407c:	32e40002 	andi	a0,s7,0x2
9d004080:	32e3fffe 	andi	v1,s7,0xfffe
9d004084:	0064b80b 	movn	s7,v1,a0
9d004088:	2442ffbc 	addiu	v0,v0,-68
9d00408c:	32e50008 	andi	a1,s7,0x8
9d004090:	32e4fffb 	andi	a0,s7,0xfffb
9d004094:	2c430035 	sltiu	v1,v0,53
9d004098:	26120001 	addiu	s2,s0,1
9d00409c:	10600101 	beqz	v1,9d0044a4 <_do_print_cdfFnopuxX+0x600>
9d0040a0:	0085b80b 	movn	s7,a0,a1
9d0040a4:	00021080 	sll	v0,v0,0x2
9d0040a8:	3c049d00 	lui	a0,0x9d00
9d0040ac:	248440c0 	addiu	a0,a0,16576
9d0040b0:	00821021 	addu	v0,a0,v0
9d0040b4:	8c420000 	lw	v0,0(v0)
9d0040b8:	00400008 	jr	v0
9d0040bc:	00000000 	nop
9d0040c0:	9d004328 	0x9d004328
9d0040c4:	9d0044a4 	0x9d0044a4
9d0040c8:	9d0044a4 	0x9d0044a4
9d0040cc:	9d0044a4 	0x9d0044a4
9d0040d0:	9d0044a4 	0x9d0044a4
9d0040d4:	9d0044a4 	0x9d0044a4
9d0040d8:	9d0044a4 	0x9d0044a4
9d0040dc:	9d0044a4 	0x9d0044a4
9d0040e0:	9d0044a4 	0x9d0044a4
9d0040e4:	9d0044a4 	0x9d0044a4
9d0040e8:	9d0044a4 	0x9d0044a4
9d0040ec:	9d004708 	0x9d004708
9d0040f0:	9d004398 	0x9d004398
9d0040f4:	9d0044a4 	0x9d0044a4
9d0040f8:	9d0044a4 	0x9d0044a4
9d0040fc:	9d0044a4 	0x9d0044a4
9d004100:	9d0044a4 	0x9d0044a4
9d004104:	9d004388 	0x9d004388
9d004108:	9d0044a4 	0x9d0044a4
9d00410c:	9d0044a4 	0x9d0044a4
9d004110:	9d004194 	0x9d004194
9d004114:	9d0044a4 	0x9d0044a4
9d004118:	9d0044a4 	0x9d0044a4
9d00411c:	9d0044a4 	0x9d0044a4
9d004120:	9d0044a4 	0x9d0044a4
9d004124:	9d0044a4 	0x9d0044a4
9d004128:	9d0044a4 	0x9d0044a4
9d00412c:	9d0044a4 	0x9d0044a4
9d004130:	9d0044a4 	0x9d0044a4
9d004134:	9d0044a4 	0x9d0044a4
9d004138:	9d0044a4 	0x9d0044a4
9d00413c:	9d0046d4 	0x9d0046d4
9d004140:	9d00432c 	0x9d00432c
9d004144:	9d0044a4 	0x9d0044a4
9d004148:	9d00469c 	0x9d00469c
9d00414c:	9d0044a4 	0x9d0044a4
9d004150:	9d0044a4 	0x9d0044a4
9d004154:	9d00432c 	0x9d00432c
9d004158:	9d0044a4 	0x9d0044a4
9d00415c:	9d0044a4 	0x9d0044a4
9d004160:	9d0044a4 	0x9d0044a4
9d004164:	9d0044a4 	0x9d0044a4
9d004168:	9d004654 	0x9d004654
9d00416c:	9d00464c 	0x9d00464c
9d004170:	9d00439c 	0x9d00439c
9d004174:	9d0044a4 	0x9d0044a4
9d004178:	9d0044a4 	0x9d0044a4
9d00417c:	9d004714 	0x9d004714
9d004180:	9d0044a4 	0x9d0044a4
9d004184:	9d00438c 	0x9d00438c
9d004188:	9d0044a4 	0x9d0044a4
9d00418c:	9d0044a4 	0x9d0044a4
9d004190:	9d004198 	0x9d004198
9d004194:	36f70020 	ori	s7,s7,0x20
9d004198:	24100010 	li	s0,16
9d00419c:	2402ffff 	li	v0,-1
9d0041a0:	13c20068 	beq	s8,v0,9d004344 <_do_print_cdfFnopuxX+0x4a0>
9d0041a4:	00002821 	move	a1,zero
9d0041a8:	32f7fffb 	andi	s7,s7,0xfffb
9d0041ac:	27c5ffff 	addiu	a1,s8,-1
9d0041b0:	32e200c0 	andi	v0,s7,0xc0
9d0041b4:	10400067 	beqz	v0,9d004354 <_do_print_cdfFnopuxX+0x4b0>
9d0041b8:	afa2006c 	sw	v0,108(sp)
9d0041bc:	7c171620 	seh	v0,s7
9d0041c0:	04400193 	bltz	v0,9d004810 <_do_print_cdfFnopuxX+0x96c>
9d0041c4:	32e20010 	andi	v0,s7,0x10
9d0041c8:	104000ff 	beqz	v0,9d0045c8 <_do_print_cdfFnopuxX+0x724>
9d0041cc:	32e20041 	andi	v0,s7,0x41
9d0041d0:	8fa400a8 	lw	a0,168(sp)
9d0041d4:	8c950000 	lw	s5,0(a0)
9d0041d8:	24840004 	addiu	a0,a0,4
9d0041dc:	afa400a8 	sw	a0,168(sp)
9d0041e0:	0015a7c3 	sra	s4,s5,0x1f
9d0041e4:	02801021 	move	v0,s4
9d0041e8:	0440010c 	bltz	v0,9d00461c <_do_print_cdfFnopuxX+0x778>
9d0041ec:	02a01821 	move	v1,s5
9d0041f0:	afa00074 	sw	zero,116(sp)
9d0041f4:	128000be 	beqz	s4,9d0044f0 <_do_print_cdfFnopuxX+0x64c>
9d0041f8:	02b41025 	or	v0,s5,s4
9d0041fc:	104001a7 	beqz	v0,9d00489c <_do_print_cdfFnopuxX+0x9f8>
9d004200:	27a20057 	addiu	v0,sp,87
9d004204:	afa20070 	sw	v0,112(sp)
9d004208:	32e30020 	andi	v1,s7,0x20
9d00420c:	24040037 	li	a0,55
9d004210:	00108fc3 	sra	s1,s0,0x1f
9d004214:	00409821 	move	s3,v0
9d004218:	24020057 	li	v0,87
9d00421c:	0043200a 	movz	a0,v0,v1
9d004220:	afa40064 	sw	a0,100(sp)
9d004224:	02a02021 	move	a0,s5
9d004228:	02802821 	move	a1,s4
9d00422c:	02003021 	move	a2,s0
9d004230:	0f401af6 	jal	9d006bd8 <__umoddi3>
9d004234:	02203821 	move	a3,s1
9d004238:	2843000a 	slti	v1,v0,10
9d00423c:	24460030 	addiu	a2,v0,48
9d004240:	8fa40064 	lw	a0,100(sp)
9d004244:	00441021 	addu	v0,v0,a0
9d004248:	0043300a 	movz	a2,v0,v1
9d00424c:	2673ffff 	addiu	s3,s3,-1
9d004250:	02a02021 	move	a0,s5
9d004254:	02802821 	move	a1,s4
9d004258:	a2660001 	sb	a2,1(s3)
9d00425c:	02003021 	move	a2,s0
9d004260:	0f401c0f 	jal	9d00703c <__udivdi3>
9d004264:	02203821 	move	a3,s1
9d004268:	00622025 	or	a0,v1,v0
9d00426c:	0040a821 	move	s5,v0
9d004270:	0060a021 	move	s4,v1
9d004274:	1480ffeb 	bnez	a0,9d004224 <_do_print_cdfFnopuxX+0x380>
9d004278:	27deffff 	addiu	s8,s8,-1
9d00427c:	27c5ffff 	addiu	a1,s8,-1
9d004280:	04a0000a 	bltz	a1,9d0042ac <_do_print_cdfFnopuxX+0x408>
9d004284:	02601021 	move	v0,s3
9d004288:	2664ffff 	addiu	a0,s3,-1
9d00428c:	00852023 	subu	a0,a0,a1
9d004290:	24030030 	li	v1,48
9d004294:	a0430000 	sb	v1,0(v0)
9d004298:	2442ffff 	addiu	v0,v0,-1
9d00429c:	5444fffe 	bnel	v0,a0,9d004298 <_do_print_cdfFnopuxX+0x3f4>
9d0042a0:	a0430000 	sb	v1,0(v0)
9d0042a4:	00052827 	nor	a1,zero,a1
9d0042a8:	02659821 	addu	s3,s3,a1
9d0042ac:	32e20004 	andi	v0,s7,0x4
9d0042b0:	1440003d 	bnez	v0,9d0043a8 <_do_print_cdfFnopuxX+0x504>
9d0042b4:	32e40800 	andi	a0,s7,0x800
9d0042b8:	3084ffff 	andi	a0,a0,0xffff
9d0042bc:	50800007 	beqzl	a0,9d0042dc <_do_print_cdfFnopuxX+0x438>
9d0042c0:	8fa3006c 	lw	v1,108(sp)
9d0042c4:	24020008 	li	v0,8
9d0042c8:	12020141 	beq	s0,v0,9d0047d0 <_do_print_cdfFnopuxX+0x92c>
9d0042cc:	24020010 	li	v0,16
9d0042d0:	1202016a 	beq	s0,v0,9d00487c <_do_print_cdfFnopuxX+0x9d8>
9d0042d4:	32e40020 	andi	a0,s7,0x20
9d0042d8:	8fa3006c 	lw	v1,108(sp)
9d0042dc:	10600007 	beqz	v1,9d0042fc <_do_print_cdfFnopuxX+0x458>
9d0042e0:	8fa40074 	lw	a0,116(sp)
9d0042e4:	148000a3 	bnez	a0,9d004574 <_do_print_cdfFnopuxX+0x6d0>
9d0042e8:	32e20002 	andi	v0,s7,0x2
9d0042ec:	10400003 	beqz	v0,9d0042fc <_do_print_cdfFnopuxX+0x458>
9d0042f0:	2402002b 	li	v0,43
9d0042f4:	a2620000 	sb	v0,0(s3)
9d0042f8:	2673ffff 	addiu	s3,s3,-1
9d0042fc:	26650001 	addiu	a1,s3,1
9d004300:	afb70010 	sw	s7,16(sp)
9d004304:	8fa400a0 	lw	a0,160(sp)
9d004308:	8fa20060 	lw	v0,96(sp)
9d00430c:	00453023 	subu	a2,v0,a1
9d004310:	0f4028f9 	jal	9d00a3e4 <.LFE4>
9d004314:	02c03821 	move	a3,s6
9d004318:	8fa30068 	lw	v1,104(sp)
9d00431c:	00621821 	addu	v1,v1,v0
9d004320:	0b400fbf 	j	9d003efc <_do_print_cdfFnopuxX+0x58>
9d004324:	afa30068 	sw	v1,104(sp)
9d004328:	36f70010 	ori	s7,s7,0x10
9d00432c:	32e8f7ff 	andi	t0,s7,0xf7ff
9d004330:	351700c0 	ori	s7,t0,0xc0
9d004334:	2402ffff 	li	v0,-1
9d004338:	17c2ff9b 	bne	s8,v0,9d0041a8 <_do_print_cdfFnopuxX+0x304>
9d00433c:	2410000a 	li	s0,10
9d004340:	00002821 	move	a1,zero
9d004344:	241e0001 	li	s8,1
9d004348:	32e200c0 	andi	v0,s7,0xc0
9d00434c:	1440ff9b 	bnez	v0,9d0041bc <_do_print_cdfFnopuxX+0x318>
9d004350:	afa2006c 	sw	v0,108(sp)
9d004354:	7c171620 	seh	v0,s7
9d004358:	04400124 	bltz	v0,9d0047ec <_do_print_cdfFnopuxX+0x948>
9d00435c:	8fa400a8 	lw	a0,168(sp)
9d004360:	32e20010 	andi	v0,s7,0x10
9d004364:	504000a4 	beqzl	v0,9d0045f8 <_do_print_cdfFnopuxX+0x754>
9d004368:	32e20041 	andi	v0,s7,0x41
9d00436c:	8fa400a8 	lw	a0,168(sp)
9d004370:	8c950000 	lw	s5,0(a0)
9d004374:	0000a021 	move	s4,zero
9d004378:	24840004 	addiu	a0,a0,4
9d00437c:	afa400a8 	sw	a0,168(sp)
9d004380:	0b40107d 	j	9d0041f4 <_do_print_cdfFnopuxX+0x350>
9d004384:	afa00074 	sw	zero,116(sp)
9d004388:	36f70010 	ori	s7,s7,0x10
9d00438c:	32f7f7ff 	andi	s7,s7,0xf7ff
9d004390:	0b401067 	j	9d00419c <_do_print_cdfFnopuxX+0x2f8>
9d004394:	2410000a 	li	s0,10
9d004398:	36f70020 	ori	s7,s7,0x20
9d00439c:	36f70810 	ori	s7,s7,0x810
9d0043a0:	0b401067 	j	9d00419c <_do_print_cdfFnopuxX+0x2f8>
9d0043a4:	24100010 	li	s0,16
9d0043a8:	8fa20070 	lw	v0,112(sp)
9d0043ac:	02621823 	subu	v1,s3,v0
9d0043b0:	3084ffff 	andi	a0,a0,0xffff
9d0043b4:	10800006 	beqz	a0,9d0043d0 <_do_print_cdfFnopuxX+0x52c>
9d0043b8:	02c31821 	addu	v1,s6,v1
9d0043bc:	24020008 	li	v0,8
9d0043c0:	1202013e 	beq	s0,v0,9d0048bc <_do_print_cdfFnopuxX+0xa18>
9d0043c4:	2462fffe 	addiu	v0,v1,-2
9d0043c8:	3a050010 	xori	a1,s0,0x10
9d0043cc:	0045180a 	movz	v1,v0,a1
9d0043d0:	8fa2006c 	lw	v0,108(sp)
9d0043d4:	10400004 	beqz	v0,9d0043e8 <_do_print_cdfFnopuxX+0x544>
9d0043d8:	8fa20074 	lw	v0,116(sp)
9d0043dc:	10400097 	beqz	v0,9d00463c <_do_print_cdfFnopuxX+0x798>
9d0043e0:	32e20003 	andi	v0,s7,0x3
9d0043e4:	2463ffff 	addiu	v1,v1,-1
9d0043e8:	1860ffb4 	blez	v1,9d0042bc <_do_print_cdfFnopuxX+0x418>
9d0043ec:	02601021 	move	v0,s3
9d0043f0:	02634823 	subu	t1,s3,v1
9d0043f4:	24030030 	li	v1,48
9d0043f8:	a0430000 	sb	v1,0(v0)
9d0043fc:	2442ffff 	addiu	v0,v0,-1
9d004400:	5522fffe 	bnel	t1,v0,9d0043fc <_do_print_cdfFnopuxX+0x558>
9d004404:	a0430000 	sb	v1,0(v0)
9d004408:	0b4010af 	j	9d0042bc <_do_print_cdfFnopuxX+0x418>
9d00440c:	01209821 	move	s3,t1
9d004410:	82020001 	lb	v0,1(s0)
9d004414:	2403002a 	li	v1,42
9d004418:	1043010e 	beq	v0,v1,9d004854 <_do_print_cdfFnopuxX+0x9b0>
9d00441c:	2443ffd0 	addiu	v1,v0,-48
9d004420:	2c63000a 	sltiu	v1,v1,10
9d004424:	26100001 	addiu	s0,s0,1
9d004428:	1060ff0a 	beqz	v1,9d004054 <_do_print_cdfFnopuxX+0x1b0>
9d00442c:	0000f021 	move	s8,zero
9d004430:	001e1840 	sll	v1,s8,0x1
9d004434:	001e58c0 	sll	t3,s8,0x3
9d004438:	006b5821 	addu	t3,v1,t3
9d00443c:	26100001 	addiu	s0,s0,1
9d004440:	01625821 	addu	t3,t3,v0
9d004444:	82020000 	lb	v0,0(s0)
9d004448:	2443ffd0 	addiu	v1,v0,-48
9d00444c:	2c63000a 	sltiu	v1,v1,10
9d004450:	1460fff7 	bnez	v1,9d004430 <_do_print_cdfFnopuxX+0x58c>
9d004454:	257effd0 	addiu	s8,t3,-48
9d004458:	24030068 	li	v1,104
9d00445c:	1443ff01 	bne	v0,v1,9d004064 <_do_print_cdfFnopuxX+0x1c0>
9d004460:	2403006c 	li	v1,108
9d004464:	82030001 	lb	v1,1(s0)
9d004468:	506200f6 	beql	v1,v0,9d004844 <_do_print_cdfFnopuxX+0x9a0>
9d00446c:	82020002 	lb	v0,2(s0)
9d004470:	36f70040 	ori	s7,s7,0x40
9d004474:	00601021 	move	v0,v1
9d004478:	26100001 	addiu	s0,s0,1
9d00447c:	32e40002 	andi	a0,s7,0x2
9d004480:	32e3fffe 	andi	v1,s7,0xfffe
9d004484:	0064b80b 	movn	s7,v1,a0
9d004488:	2442ffbc 	addiu	v0,v0,-68
9d00448c:	32e50008 	andi	a1,s7,0x8
9d004490:	32e4fffb 	andi	a0,s7,0xfffb
9d004494:	2c430035 	sltiu	v1,v0,53
9d004498:	26120001 	addiu	s2,s0,1
9d00449c:	1460ff01 	bnez	v1,9d0040a4 <_do_print_cdfFnopuxX+0x200>
9d0044a0:	0085b80b 	movn	s7,a0,a1
9d0044a4:	0b4010c6 	j	9d004318 <_do_print_cdfFnopuxX+0x474>
9d0044a8:	00001021 	move	v0,zero
9d0044ac:	8fa200a8 	lw	v0,168(sp)
9d0044b0:	8c560000 	lw	s6,0(v0)
9d0044b4:	24550004 	addiu	s5,v0,4
9d0044b8:	26100001 	addiu	s0,s0,1
9d0044bc:	06c10003 	bgez	s6,9d0044cc <_do_print_cdfFnopuxX+0x628>
9d0044c0:	80820001 	lb	v0,1(a0)
9d0044c4:	36f70008 	ori	s7,s7,0x8
9d0044c8:	0016b023 	negu	s6,s6
9d0044cc:	0b401012 	j	9d004048 <_do_print_cdfFnopuxX+0x1a4>
9d0044d0:	afb500a8 	sw	s5,168(sp)
9d0044d4:	82030001 	lb	v1,1(s0)
9d0044d8:	506200f4 	beql	v1,v0,9d0048ac <_do_print_cdfFnopuxX+0xa08>
9d0044dc:	82020002 	lb	v0,2(s0)
9d0044e0:	36f70010 	ori	s7,s7,0x10
9d0044e4:	00601021 	move	v0,v1
9d0044e8:	0b40111f 	j	9d00447c <_do_print_cdfFnopuxX+0x5d8>
9d0044ec:	26100001 	addiu	s0,s0,1
9d0044f0:	12a000ea 	beqz	s5,9d00489c <_do_print_cdfFnopuxX+0x9f8>
9d0044f4:	02a06821 	move	t5,s5
9d0044f8:	27a30057 	addiu	v1,sp,87
9d0044fc:	afa30070 	sw	v1,112(sp)
9d004500:	32e30020 	andi	v1,s7,0x20
9d004504:	24050037 	li	a1,55
9d004508:	8fb30070 	lw	s3,112(sp)
9d00450c:	24020057 	li	v0,87
9d004510:	0043280a 	movz	a1,v0,v1
9d004514:	01b0001b 	divu	zero,t5,s0
9d004518:	020001f4 	teq	s0,zero,0x7
9d00451c:	00001810 	mfhi	v1
9d004520:	2673ffff 	addiu	s3,s3,-1
9d004524:	27deffff 	addiu	s8,s8,-1
9d004528:	01b0001b 	divu	zero,t5,s0
9d00452c:	020001f4 	teq	s0,zero,0x7
9d004530:	00006812 	mflo	t5
9d004534:	2864000a 	slti	a0,v1,10
9d004538:	24620030 	addiu	v0,v1,48
9d00453c:	00651821 	addu	v1,v1,a1
9d004540:	0064100a 	movz	v0,v1,a0
9d004544:	15a0fff3 	bnez	t5,9d004514 <_do_print_cdfFnopuxX+0x670>
9d004548:	a2620001 	sb	v0,1(s3)
9d00454c:	0b4010a0 	j	9d004280 <_do_print_cdfFnopuxX+0x3dc>
9d004550:	27c5ffff 	addiu	a1,s8,-1
9d004554:	24040025 	li	a0,37
9d004558:	0f402c72 	jal	9d00b1c8 <.LFE3>
9d00455c:	8fa500a0 	lw	a1,160(sp)
9d004560:	26520002 	addiu	s2,s2,2
9d004564:	8fa40068 	lw	a0,104(sp)
9d004568:	24840001 	addiu	a0,a0,1
9d00456c:	0b400fbf 	j	9d003efc <_do_print_cdfFnopuxX+0x58>
9d004570:	afa40068 	sw	a0,104(sp)
9d004574:	2402002d 	li	v0,45
9d004578:	a2620000 	sb	v0,0(s3)
9d00457c:	0b4010bf 	j	9d0042fc <_do_print_cdfFnopuxX+0x458>
9d004580:	2673ffff 	addiu	s3,s3,-1
9d004584:	82020001 	lb	v0,1(s0)
9d004588:	36f78000 	ori	s7,s7,0x8000
9d00458c:	0b40101f 	j	9d00407c <_do_print_cdfFnopuxX+0x1d8>
9d004590:	26100001 	addiu	s0,s0,1
9d004594:	2402ffff 	li	v0,-1
9d004598:	8fbf009c 	lw	ra,156(sp)
9d00459c:	8fbe0098 	lw	s8,152(sp)
9d0045a0:	8fb70094 	lw	s7,148(sp)
9d0045a4:	8fb60090 	lw	s6,144(sp)
9d0045a8:	8fb5008c 	lw	s5,140(sp)
9d0045ac:	8fb40088 	lw	s4,136(sp)
9d0045b0:	8fb30084 	lw	s3,132(sp)
9d0045b4:	8fb20080 	lw	s2,128(sp)
9d0045b8:	8fb1007c 	lw	s1,124(sp)
9d0045bc:	8fb00078 	lw	s0,120(sp)
9d0045c0:	03e00008 	jr	ra
9d0045c4:	27bd00a0 	addiu	sp,sp,160
9d0045c8:	50400076 	beqzl	v0,9d0047a4 <_do_print_cdfFnopuxX+0x900>
9d0045cc:	8fa300a8 	lw	v1,168(sp)
9d0045d0:	8fa200a8 	lw	v0,168(sp)
9d0045d4:	8c550000 	lw	s5,0(v0)
9d0045d8:	24420004 	addiu	v0,v0,4
9d0045dc:	afa200a8 	sw	v0,168(sp)
9d0045e0:	0015a7c3 	sra	s4,s5,0x1f
9d0045e4:	02801021 	move	v0,s4
9d0045e8:	0441ff01 	bgez	v0,9d0041f0 <_do_print_cdfFnopuxX+0x34c>
9d0045ec:	02a01821 	move	v1,s5
9d0045f0:	0b401188 	j	9d004620 <_do_print_cdfFnopuxX+0x77c>
9d0045f4:	00036823 	negu	t5,v1
9d0045f8:	50400064 	beqzl	v0,9d00478c <_do_print_cdfFnopuxX+0x8e8>
9d0045fc:	8fa300a8 	lw	v1,168(sp)
9d004600:	8fa200a8 	lw	v0,168(sp)
9d004604:	8c550000 	lw	s5,0(v0)
9d004608:	0000a021 	move	s4,zero
9d00460c:	24420004 	addiu	v0,v0,4
9d004610:	afa200a8 	sw	v0,168(sp)
9d004614:	0b40107d 	j	9d0041f4 <_do_print_cdfFnopuxX+0x350>
9d004618:	afa00074 	sw	zero,116(sp)
9d00461c:	00036823 	negu	t5,v1
9d004620:	000d182b 	sltu	v1,zero,t5
9d004624:	00021023 	negu	v0,v0
9d004628:	01a0a821 	move	s5,t5
9d00462c:	0043a023 	subu	s4,v0,v1
9d004630:	24040001 	li	a0,1
9d004634:	0b40107d 	j	9d0041f4 <_do_print_cdfFnopuxX+0x350>
9d004638:	afa40074 	sw	a0,116(sp)
9d00463c:	5440ff6a 	bnezl	v0,9d0043e8 <_do_print_cdfFnopuxX+0x544>
9d004640:	2463ffff 	addiu	v1,v1,-1
9d004644:	0b4010fa 	j	9d0043e8 <_do_print_cdfFnopuxX+0x544>
9d004648:	00000000 	nop
9d00464c:	0b401067 	j	9d00419c <_do_print_cdfFnopuxX+0x2f8>
9d004650:	24100008 	li	s0,8
9d004654:	7c171620 	seh	v0,s7
9d004658:	044000a9 	bltz	v0,9d004900 <_do_print_cdfFnopuxX+0xa5c>
9d00465c:	8fa300a8 	lw	v1,168(sp)
9d004660:	32e20010 	andi	v0,s7,0x10
9d004664:	1440009a 	bnez	v0,9d0048d0 <_do_print_cdfFnopuxX+0xa2c>
9d004668:	8fa200a8 	lw	v0,168(sp)
9d00466c:	32e20040 	andi	v0,s7,0x40
9d004670:	104000ae 	beqz	v0,9d00492c <_do_print_cdfFnopuxX+0xa88>
9d004674:	32e80001 	andi	t0,s7,0x1
9d004678:	8fa200a8 	lw	v0,168(sp)
9d00467c:	8c430000 	lw	v1,0(v0)
9d004680:	00001021 	move	v0,zero
9d004684:	8fa400a8 	lw	a0,168(sp)
9d004688:	24840004 	addiu	a0,a0,4
9d00468c:	afa400a8 	sw	a0,168(sp)
9d004690:	8fa40068 	lw	a0,104(sp)
9d004694:	0b4010c6 	j	9d004318 <_do_print_cdfFnopuxX+0x474>
9d004698:	a4640000 	sh	a0,0(v1)
9d00469c:	8fa300a8 	lw	v1,168(sp)
9d0046a0:	8c620000 	lw	v0,0(v1)
9d0046a4:	36e80400 	ori	t0,s7,0x400
9d0046a8:	24750004 	addiu	s5,v1,4
9d0046ac:	afa20058 	sw	v0,88(sp)
9d0046b0:	8fa50058 	lw	a1,88(sp)
9d0046b4:	afbe0010 	sw	s8,16(sp)
9d0046b8:	afa80014 	sw	t0,20(sp)
9d0046bc:	8fa400a0 	lw	a0,160(sp)
9d0046c0:	24060066 	li	a2,102
9d0046c4:	0f401747 	jal	9d005d1c <_fconvert>
9d0046c8:	02c03821 	move	a3,s6
9d0046cc:	0b4010c6 	j	9d004318 <_do_print_cdfFnopuxX+0x474>
9d0046d0:	afb500a8 	sw	s5,168(sp)
9d0046d4:	8fa400a8 	lw	a0,168(sp)
9d0046d8:	8c820000 	lw	v0,0(a0)
9d0046dc:	24950004 	addiu	s5,a0,4
9d0046e0:	afb70010 	sw	s7,16(sp)
9d0046e4:	8fa400a0 	lw	a0,160(sp)
9d0046e8:	27a50018 	addiu	a1,sp,24
9d0046ec:	24060001 	li	a2,1
9d0046f0:	02c03821 	move	a3,s6
9d0046f4:	a3a20018 	sb	v0,24(sp)
9d0046f8:	0f4028f9 	jal	9d00a3e4 <.LFE4>
9d0046fc:	afb500a8 	sw	s5,168(sp)
9d004700:	0b4010c7 	j	9d00431c <_do_print_cdfFnopuxX+0x478>
9d004704:	8fa30068 	lw	v1,104(sp)
9d004708:	36f70010 	ori	s7,s7,0x10
9d00470c:	0b401067 	j	9d00419c <_do_print_cdfFnopuxX+0x2f8>
9d004710:	24100008 	li	s0,8
9d004714:	8fa200a8 	lw	v0,168(sp)
9d004718:	8c500000 	lw	s0,0(v0)
9d00471c:	3c039d01 	lui	v1,0x9d01
9d004720:	2462be7c 	addiu	v0,v1,-16772
9d004724:	8fa400a8 	lw	a0,168(sp)
9d004728:	0050800a 	movz	s0,v0,s0
9d00472c:	2402ffff 	li	v0,-1
9d004730:	13c2006f 	beq	s8,v0,9d0048f0 <_do_print_cdfFnopuxX+0xa4c>
9d004734:	24950004 	addiu	s5,a0,4
9d004738:	1bc00086 	blez	s8,9d004954 <_do_print_cdfFnopuxX+0xab0>
9d00473c:	021e5821 	addu	t3,s0,s8
9d004740:	82030000 	lb	v1,0(s0)
9d004744:	14600005 	bnez	v1,9d00475c <_do_print_cdfFnopuxX+0x8b8>
9d004748:	02001021 	move	v0,s0
9d00474c:	0b4011db 	j	9d00476c <_do_print_cdfFnopuxX+0x8c8>
9d004750:	00001021 	move	v0,zero
9d004754:	50600005 	beqzl	v1,9d00476c <_do_print_cdfFnopuxX+0x8c8>
9d004758:	00501023 	subu	v0,v0,s0
9d00475c:	24420001 	addiu	v0,v0,1
9d004760:	544bfffc 	bnel	v0,t3,9d004754 <_do_print_cdfFnopuxX+0x8b0>
9d004764:	80430000 	lb	v1,0(v0)
9d004768:	00501023 	subu	v0,v0,s0
9d00476c:	afb70010 	sw	s7,16(sp)
9d004770:	8fa400a0 	lw	a0,160(sp)
9d004774:	02002821 	move	a1,s0
9d004778:	00403021 	move	a2,v0
9d00477c:	0f4028f9 	jal	9d00a3e4 <.LFE4>
9d004780:	02c03821 	move	a3,s6
9d004784:	0b4010c6 	j	9d004318 <_do_print_cdfFnopuxX+0x474>
9d004788:	afb500a8 	sw	s5,168(sp)
9d00478c:	8c750000 	lw	s5,0(v1)
9d004790:	0000a021 	move	s4,zero
9d004794:	24630004 	addiu	v1,v1,4
9d004798:	afa300a8 	sw	v1,168(sp)
9d00479c:	0b40107d 	j	9d0041f4 <_do_print_cdfFnopuxX+0x350>
9d0047a0:	afa00074 	sw	zero,116(sp)
9d0047a4:	8c750000 	lw	s5,0(v1)
9d0047a8:	24630004 	addiu	v1,v1,4
9d0047ac:	afa300a8 	sw	v1,168(sp)
9d0047b0:	0015a7c3 	sra	s4,s5,0x1f
9d0047b4:	02801021 	move	v0,s4
9d0047b8:	0441fe8d 	bgez	v0,9d0041f0 <_do_print_cdfFnopuxX+0x34c>
9d0047bc:	02a01821 	move	v1,s5
9d0047c0:	0b401188 	j	9d004620 <_do_print_cdfFnopuxX+0x77c>
9d0047c4:	00036823 	negu	t5,v1
9d0047c8:	0b40111f 	j	9d00447c <_do_print_cdfFnopuxX+0x5d8>
9d0047cc:	26100001 	addiu	s0,s0,1
9d0047d0:	82630001 	lb	v1,1(s3)
9d0047d4:	24020030 	li	v0,48
9d0047d8:	1062fec0 	beq	v1,v0,9d0042dc <_do_print_cdfFnopuxX+0x438>
9d0047dc:	8fa3006c 	lw	v1,108(sp)
9d0047e0:	a2620000 	sb	v0,0(s3)
9d0047e4:	0b4010b6 	j	9d0042d8 <_do_print_cdfFnopuxX+0x434>
9d0047e8:	2673ffff 	addiu	s3,s3,-1
9d0047ec:	24950007 	addiu	s5,a0,7
9d0047f0:	2402fff8 	li	v0,-8
9d0047f4:	02a21024 	and	v0,s5,v0
9d0047f8:	24430008 	addiu	v1,v0,8
9d0047fc:	afa300a8 	sw	v1,168(sp)
9d004800:	8c550000 	lw	s5,0(v0)
9d004804:	8c540004 	lw	s4,4(v0)
9d004808:	0b40107d 	j	9d0041f4 <_do_print_cdfFnopuxX+0x350>
9d00480c:	afa00074 	sw	zero,116(sp)
9d004810:	8fa300a8 	lw	v1,168(sp)
9d004814:	24750007 	addiu	s5,v1,7
9d004818:	2402fff8 	li	v0,-8
9d00481c:	02a2a824 	and	s5,s5,v0
9d004820:	8ea30000 	lw	v1,0(s5)
9d004824:	8ea20004 	lw	v0,4(s5)
9d004828:	26b50008 	addiu	s5,s5,8
9d00482c:	afb500a8 	sw	s5,168(sp)
9d004830:	0060a821 	move	s5,v1
9d004834:	0441fe6e 	bgez	v0,9d0041f0 <_do_print_cdfFnopuxX+0x34c>
9d004838:	0040a021 	move	s4,v0
9d00483c:	0b401188 	j	9d004620 <_do_print_cdfFnopuxX+0x77c>
9d004840:	00036823 	negu	t5,v1
9d004844:	36f70001 	ori	s7,s7,0x1
9d004848:	26100001 	addiu	s0,s0,1
9d00484c:	0b40111f 	j	9d00447c <_do_print_cdfFnopuxX+0x5d8>
9d004850:	26100001 	addiu	s0,s0,1
9d004854:	8fa300a8 	lw	v1,168(sp)
9d004858:	8c7e0000 	lw	s8,0(v1)
9d00485c:	24750004 	addiu	s5,v1,4
9d004860:	26030002 	addiu	v1,s0,2
9d004864:	82020002 	lb	v0,2(s0)
9d004868:	afb500a8 	sw	s5,168(sp)
9d00486c:	07c1fdf9 	bgez	s8,9d004054 <_do_print_cdfFnopuxX+0x1b0>
9d004870:	00608021 	move	s0,v1
9d004874:	0b401015 	j	9d004054 <_do_print_cdfFnopuxX+0x1b0>
9d004878:	241effff 	li	s8,-1
9d00487c:	24020058 	li	v0,88
9d004880:	24030078 	li	v1,120
9d004884:	0064100a 	movz	v0,v1,a0
9d004888:	a2620000 	sb	v0,0(s3)
9d00488c:	24020030 	li	v0,48
9d004890:	a262ffff 	sb	v0,-1(s3)
9d004894:	0b4010b6 	j	9d0042d8 <_do_print_cdfFnopuxX+0x434>
9d004898:	2673fffe 	addiu	s3,s3,-2
9d00489c:	27a20057 	addiu	v0,sp,87
9d0048a0:	afa20070 	sw	v0,112(sp)
9d0048a4:	0b4010a0 	j	9d004280 <_do_print_cdfFnopuxX+0x3dc>
9d0048a8:	00409821 	move	s3,v0
9d0048ac:	36f78000 	ori	s7,s7,0x8000
9d0048b0:	26100001 	addiu	s0,s0,1
9d0048b4:	0b40111f 	j	9d00447c <_do_print_cdfFnopuxX+0x5d8>
9d0048b8:	26100001 	addiu	s0,s0,1
9d0048bc:	82620001 	lb	v0,1(s3)
9d0048c0:	38420030 	xori	v0,v0,0x30
9d0048c4:	0002102b 	sltu	v0,zero,v0
9d0048c8:	0b4010f4 	j	9d0043d0 <_do_print_cdfFnopuxX+0x52c>
9d0048cc:	00621823 	subu	v1,v1,v0
9d0048d0:	8c430000 	lw	v1,0(v0)
9d0048d4:	00001021 	move	v0,zero
9d0048d8:	8fa400a8 	lw	a0,168(sp)
9d0048dc:	24840004 	addiu	a0,a0,4
9d0048e0:	afa400a8 	sw	a0,168(sp)
9d0048e4:	8fa40068 	lw	a0,104(sp)
9d0048e8:	0b4010c6 	j	9d004318 <_do_print_cdfFnopuxX+0x474>
9d0048ec:	ac640000 	sw	a0,0(v1)
9d0048f0:	0f402dda 	jal	9d00b768 <.LFE2>
9d0048f4:	02002021 	move	a0,s0
9d0048f8:	0b4011dc 	j	9d004770 <_do_print_cdfFnopuxX+0x8cc>
9d0048fc:	afb70010 	sw	s7,16(sp)
9d004900:	8c620000 	lw	v0,0(v1)
9d004904:	8fa40068 	lw	a0,104(sp)
9d004908:	00041fc3 	sra	v1,a0,0x1f
9d00490c:	8fa400a8 	lw	a0,168(sp)
9d004910:	24840004 	addiu	a0,a0,4
9d004914:	afa400a8 	sw	a0,168(sp)
9d004918:	8fa40068 	lw	a0,104(sp)
9d00491c:	ac440000 	sw	a0,0(v0)
9d004920:	ac430004 	sw	v1,4(v0)
9d004924:	0b4010c6 	j	9d004318 <_do_print_cdfFnopuxX+0x474>
9d004928:	00001021 	move	v0,zero
9d00492c:	8fa200a8 	lw	v0,168(sp)
9d004930:	8c430000 	lw	v1,0(v0)
9d004934:	00001021 	move	v0,zero
9d004938:	8fa400a8 	lw	a0,168(sp)
9d00493c:	24840004 	addiu	a0,a0,4
9d004940:	afa400a8 	sw	a0,168(sp)
9d004944:	11000005 	beqz	t0,9d00495c <_do_print_cdfFnopuxX+0xab8>
9d004948:	8fa40068 	lw	a0,104(sp)
9d00494c:	0b4010c6 	j	9d004318 <_do_print_cdfFnopuxX+0x474>
9d004950:	a0640000 	sb	a0,0(v1)
9d004954:	0b4011db 	j	9d00476c <_do_print_cdfFnopuxX+0x8c8>
9d004958:	00001021 	move	v0,zero
9d00495c:	0b4010c6 	j	9d004318 <_do_print_cdfFnopuxX+0x474>
9d004960:	ac640000 	sw	a0,0(v1)

Disassembly of section .text.malloc:

9d004964 <malloc>:
9d004964:	27bdffc0 	addiu	sp,sp,-64
9d004968:	afbf003c 	sw	ra,60(sp)
9d00496c:	afbe0038 	sw	s8,56(sp)
9d004970:	afb70034 	sw	s7,52(sp)
9d004974:	afb60030 	sw	s6,48(sp)
9d004978:	afb5002c 	sw	s5,44(sp)
9d00497c:	afb40028 	sw	s4,40(sp)
9d004980:	afb30024 	sw	s3,36(sp)
9d004984:	afb20020 	sw	s2,32(sp)
9d004988:	afb1001c 	sw	s1,28(sp)
9d00498c:	2482000b 	addiu	v0,a0,11
9d004990:	2c430017 	sltiu	v1,v0,23
9d004994:	10600022 	beqz	v1,9d004a20 <malloc+0xbc>
9d004998:	afb00018 	sw	s0,24(sp)
9d00499c:	2c840011 	sltiu	a0,a0,17
9d0049a0:	10800090 	beqz	a0,9d004be4 <malloc+0x280>
9d0049a4:	24100010 	li	s0,16
9d0049a8:	3c11a000 	lui	s1,0xa000
9d0049ac:	263141f0 	addiu	s1,s1,16880
9d0049b0:	02301821 	addu	v1,s1,s0
9d0049b4:	8c62000c 	lw	v0,12(v1)
9d0049b8:	104300c5 	beq	v0,v1,9d004cd0 <malloc+0x36c>
9d0049bc:	001040c2 	srl	t0,s0,0x3
9d0049c0:	8c450004 	lw	a1,4(v0)
9d0049c4:	8c44000c 	lw	a0,12(v0)
9d0049c8:	2403fffc 	li	v1,-4
9d0049cc:	00a31824 	and	v1,a1,v1
9d0049d0:	00431821 	addu	v1,v0,v1
9d0049d4:	8c660004 	lw	a2,4(v1)
9d0049d8:	8c450008 	lw	a1,8(v0)
9d0049dc:	24420008 	addiu	v0,v0,8
9d0049e0:	34c60001 	ori	a2,a2,0x1
9d0049e4:	aca4000c 	sw	a0,12(a1)
9d0049e8:	ac850008 	sw	a1,8(a0)
9d0049ec:	ac660004 	sw	a2,4(v1)
9d0049f0:	8fbf003c 	lw	ra,60(sp)
9d0049f4:	8fbe0038 	lw	s8,56(sp)
9d0049f8:	8fb70034 	lw	s7,52(sp)
9d0049fc:	8fb60030 	lw	s6,48(sp)
9d004a00:	8fb5002c 	lw	s5,44(sp)
9d004a04:	8fb40028 	lw	s4,40(sp)
9d004a08:	8fb30024 	lw	s3,36(sp)
9d004a0c:	8fb20020 	lw	s2,32(sp)
9d004a10:	8fb1001c 	lw	s1,28(sp)
9d004a14:	8fb00018 	lw	s0,24(sp)
9d004a18:	03e00008 	jr	ra
9d004a1c:	27bd0040 	addiu	sp,sp,64
9d004a20:	2410fff8 	li	s0,-8
9d004a24:	00508024 	and	s0,v0,s0
9d004a28:	0600006e 	bltz	s0,9d004be4 <malloc+0x280>
9d004a2c:	0204202b 	sltu	a0,s0,a0
9d004a30:	1480006c 	bnez	a0,9d004be4 <malloc+0x280>
9d004a34:	2e0201f8 	sltiu	v0,s0,504
9d004a38:	1440ffdc 	bnez	v0,9d0049ac <malloc+0x48>
9d004a3c:	3c11a000 	lui	s1,0xa000
9d004a40:	00101242 	srl	v0,s0,0x9
9d004a44:	1040000a 	beqz	v0,9d004a70 <malloc+0x10c>
9d004a48:	2406007e 	li	a2,126
9d004a4c:	2c430005 	sltiu	v1,v0,5
9d004a50:	14600043 	bnez	v1,9d004b60 <malloc+0x1fc>
9d004a54:	00104182 	srl	t0,s0,0x6
9d004a58:	2c430015 	sltiu	v1,v0,21
9d004a5c:	10600107 	beqz	v1,9d004e7c <malloc+0x518>
9d004a60:	2c430055 	sltiu	v1,v0,85
9d004a64:	2448005b 	addiu	t0,v0,91
9d004a68:	0b40129e 	j	9d004a78 <malloc+0x114>
9d004a6c:	00083040 	sll	a2,t0,0x1
9d004a70:	2408003f 	li	t0,63
9d004a74:	3c11a000 	lui	s1,0xa000
9d004a78:	00063080 	sll	a2,a2,0x2
9d004a7c:	263141f0 	addiu	s1,s1,16880
9d004a80:	02263021 	addu	a2,s1,a2
9d004a84:	8cc2000c 	lw	v0,12(a2)
9d004a88:	10c20015 	beq	a2,v0,9d004ae0 <malloc+0x17c>
9d004a8c:	2403fffc 	li	v1,-4
9d004a90:	8c440004 	lw	a0,4(v0)
9d004a94:	00832024 	and	a0,a0,v1
9d004a98:	00901823 	subu	v1,a0,s0
9d004a9c:	28650010 	slti	a1,v1,16
9d004aa0:	50a0000f 	beqzl	a1,9d004ae0 <malloc+0x17c>
9d004aa4:	2508ffff 	addiu	t0,t0,-1
9d004aa8:	0460000a 	bltz	v1,9d004ad4 <malloc+0x170>
9d004aac:	2407fffc 	li	a3,-4
9d004ab0:	0b401309 	j	9d004c24 <malloc+0x2c0>
9d004ab4:	00442021 	addu	a0,v0,a0
9d004ab8:	00872024 	and	a0,a0,a3
9d004abc:	00901823 	subu	v1,a0,s0
9d004ac0:	28650010 	slti	a1,v1,16
9d004ac4:	50a00006 	beqzl	a1,9d004ae0 <malloc+0x17c>
9d004ac8:	2508ffff 	addiu	t0,t0,-1
9d004acc:	04630055 	bgezl	v1,9d004c24 <malloc+0x2c0>
9d004ad0:	00442021 	addu	a0,v0,a0
9d004ad4:	8c42000c 	lw	v0,12(v0)
9d004ad8:	54c2fff7 	bnel	a2,v0,9d004ab8 <malloc+0x154>
9d004adc:	8c440004 	lw	a0,4(v0)
9d004ae0:	25080001 	addiu	t0,t0,1
9d004ae4:	8e220010 	lw	v0,16(s1)
9d004ae8:	3c06a000 	lui	a2,0xa000
9d004aec:	24c641f8 	addiu	a2,a2,16888
9d004af0:	1046007d 	beq	v0,a2,9d004ce8 <malloc+0x384>
9d004af4:	2403fffc 	li	v1,-4
9d004af8:	8c440004 	lw	a0,4(v0)
9d004afc:	00832024 	and	a0,a0,v1
9d004b00:	00901823 	subu	v1,a0,s0
9d004b04:	28650010 	slti	a1,v1,16
9d004b08:	50a0005a 	beqzl	a1,9d004c74 <malloc+0x310>
9d004b0c:	00502021 	addu	a0,v0,s0
9d004b10:	ae260014 	sw	a2,20(s1)
9d004b14:	04600015 	bltz	v1,9d004b6c <malloc+0x208>
9d004b18:	ae260010 	sw	a2,16(s1)
9d004b1c:	00442021 	addu	a0,v0,a0
9d004b20:	8c830004 	lw	v1,4(a0)
9d004b24:	24420008 	addiu	v0,v0,8
9d004b28:	34630001 	ori	v1,v1,0x1
9d004b2c:	ac830004 	sw	v1,4(a0)
9d004b30:	8fbf003c 	lw	ra,60(sp)
9d004b34:	8fbe0038 	lw	s8,56(sp)
9d004b38:	8fb70034 	lw	s7,52(sp)
9d004b3c:	8fb60030 	lw	s6,48(sp)
9d004b40:	8fb5002c 	lw	s5,44(sp)
9d004b44:	8fb40028 	lw	s4,40(sp)
9d004b48:	8fb30024 	lw	s3,36(sp)
9d004b4c:	8fb20020 	lw	s2,32(sp)
9d004b50:	8fb1001c 	lw	s1,28(sp)
9d004b54:	8fb00018 	lw	s0,24(sp)
9d004b58:	03e00008 	jr	ra
9d004b5c:	27bd0040 	addiu	sp,sp,64
9d004b60:	25080038 	addiu	t0,t0,56
9d004b64:	0b40129d 	j	9d004a74 <malloc+0x110>
9d004b68:	00083040 	sll	a2,t0,0x1
9d004b6c:	2c830200 	sltiu	v1,a0,512
9d004b70:	546000cb 	bnezl	v1,9d004ea0 <malloc+0x53c>
9d004b74:	000420c2 	srl	a0,a0,0x3
9d004b78:	00041a42 	srl	v1,a0,0x9
9d004b7c:	2c650005 	sltiu	a1,v1,5
9d004b80:	10a00153 	beqz	a1,9d0050d0 <malloc+0x76c>
9d004b84:	2c650015 	sltiu	a1,v1,21
9d004b88:	00042982 	srl	a1,a0,0x6
9d004b8c:	24a50038 	addiu	a1,a1,56
9d004b90:	000538c0 	sll	a3,a1,0x3
9d004b94:	02273821 	addu	a3,s1,a3
9d004b98:	8ce30008 	lw	v1,8(a3)
9d004b9c:	50670159 	beql	v1,a3,9d005104 <malloc+0x7a0>
9d004ba0:	8e240004 	lw	a0,4(s1)
9d004ba4:	2409fffc 	li	t1,-4
9d004ba8:	8c650004 	lw	a1,4(v1)
9d004bac:	00a92824 	and	a1,a1,t1
9d004bb0:	0085282b 	sltu	a1,a0,a1
9d004bb4:	50a00005 	beqzl	a1,9d004bcc <malloc+0x268>
9d004bb8:	8c65000c 	lw	a1,12(v1)
9d004bbc:	8c630008 	lw	v1,8(v1)
9d004bc0:	54e3fffa 	bnel	a3,v1,9d004bac <malloc+0x248>
9d004bc4:	8c650004 	lw	a1,4(v1)
9d004bc8:	8c65000c 	lw	a1,12(v1)
9d004bcc:	8e240004 	lw	a0,4(s1)
9d004bd0:	ac45000c 	sw	a1,12(v0)
9d004bd4:	ac430008 	sw	v1,8(v0)
9d004bd8:	aca20008 	sw	v0,8(a1)
9d004bdc:	0b40133b 	j	9d004cec <malloc+0x388>
9d004be0:	ac62000c 	sw	v0,12(v1)
9d004be4:	2403000c 	li	v1,12
9d004be8:	3c02a000 	lui	v0,0xa000
9d004bec:	ac430044 	sw	v1,68(v0)
9d004bf0:	00001021 	move	v0,zero
9d004bf4:	8fbf003c 	lw	ra,60(sp)
9d004bf8:	8fbe0038 	lw	s8,56(sp)
9d004bfc:	8fb70034 	lw	s7,52(sp)
9d004c00:	8fb60030 	lw	s6,48(sp)
9d004c04:	8fb5002c 	lw	s5,44(sp)
9d004c08:	8fb40028 	lw	s4,40(sp)
9d004c0c:	8fb30024 	lw	s3,36(sp)
9d004c10:	8fb20020 	lw	s2,32(sp)
9d004c14:	8fb1001c 	lw	s1,28(sp)
9d004c18:	8fb00018 	lw	s0,24(sp)
9d004c1c:	03e00008 	jr	ra
9d004c20:	27bd0040 	addiu	sp,sp,64
9d004c24:	8c860004 	lw	a2,4(a0)
9d004c28:	8c43000c 	lw	v1,12(v0)
9d004c2c:	8c450008 	lw	a1,8(v0)
9d004c30:	34c60001 	ori	a2,a2,0x1
9d004c34:	24420008 	addiu	v0,v0,8
9d004c38:	aca3000c 	sw	v1,12(a1)
9d004c3c:	ac650008 	sw	a1,8(v1)
9d004c40:	ac860004 	sw	a2,4(a0)
9d004c44:	8fbf003c 	lw	ra,60(sp)
9d004c48:	8fbe0038 	lw	s8,56(sp)
9d004c4c:	8fb70034 	lw	s7,52(sp)
9d004c50:	8fb60030 	lw	s6,48(sp)
9d004c54:	8fb5002c 	lw	s5,44(sp)
9d004c58:	8fb40028 	lw	s4,40(sp)
9d004c5c:	8fb30024 	lw	s3,36(sp)
9d004c60:	8fb20020 	lw	s2,32(sp)
9d004c64:	8fb1001c 	lw	s1,28(sp)
9d004c68:	8fb00018 	lw	s0,24(sp)
9d004c6c:	03e00008 	jr	ra
9d004c70:	27bd0040 	addiu	sp,sp,64
9d004c74:	36100001 	ori	s0,s0,0x1
9d004c78:	34670001 	ori	a3,v1,0x1
9d004c7c:	00832821 	addu	a1,a0,v1
9d004c80:	ac500004 	sw	s0,4(v0)
9d004c84:	24420008 	addiu	v0,v0,8
9d004c88:	ae240014 	sw	a0,20(s1)
9d004c8c:	ae240010 	sw	a0,16(s1)
9d004c90:	ac86000c 	sw	a2,12(a0)
9d004c94:	ac860008 	sw	a2,8(a0)
9d004c98:	ac870004 	sw	a3,4(a0)
9d004c9c:	aca30000 	sw	v1,0(a1)
9d004ca0:	8fbf003c 	lw	ra,60(sp)
9d004ca4:	8fbe0038 	lw	s8,56(sp)
9d004ca8:	8fb70034 	lw	s7,52(sp)
9d004cac:	8fb60030 	lw	s6,48(sp)
9d004cb0:	8fb5002c 	lw	s5,44(sp)
9d004cb4:	8fb40028 	lw	s4,40(sp)
9d004cb8:	8fb30024 	lw	s3,36(sp)
9d004cbc:	8fb20020 	lw	s2,32(sp)
9d004cc0:	8fb1001c 	lw	s1,28(sp)
9d004cc4:	8fb00018 	lw	s0,24(sp)
9d004cc8:	03e00008 	jr	ra
9d004ccc:	27bd0040 	addiu	sp,sp,64
9d004cd0:	24430008 	addiu	v1,v0,8
9d004cd4:	8c420014 	lw	v0,20(v0)
9d004cd8:	1062ff82 	beq	v1,v0,9d004ae4 <malloc+0x180>
9d004cdc:	25080002 	addiu	t0,t0,2
9d004ce0:	0b401271 	j	9d0049c4 <malloc+0x60>
9d004ce4:	8c450004 	lw	a1,4(v0)
9d004ce8:	8e240004 	lw	a0,4(s1)
9d004cec:	00081083 	sra	v0,t0,0x2
9d004cf0:	24070001 	li	a3,1
9d004cf4:	00473804 	sllv	a3,a3,v0
9d004cf8:	0087102b 	sltu	v0,a0,a3
9d004cfc:	5440002b 	bnezl	v0,9d004dac <malloc+0x448>
9d004d00:	8e320008 	lw	s2,8(s1)
9d004d04:	00871024 	and	v0,a0,a3
9d004d08:	50400073 	beqzl	v0,9d004ed8 <malloc+0x574>
9d004d0c:	00073840 	sll	a3,a3,0x1
9d004d10:	240afffc 	li	t2,-4
9d004d14:	000858c0 	sll	t3,t0,0x3
9d004d18:	022b5821 	addu	t3,s1,t3
9d004d1c:	01604821 	move	t1,t3
9d004d20:	01006021 	move	t4,t0
9d004d24:	8d22000c 	lw	v0,12(t1)
9d004d28:	55220009 	bnel	t1,v0,9d004d50 <malloc+0x3ec>
9d004d2c:	8c440004 	lw	a0,4(v0)
9d004d30:	0b4013c4 	j	9d004f10 <malloc+0x5ac>
9d004d34:	258c0001 	addiu	t4,t4,1
9d004d38:	04630093 	bgezl	v1,9d004f88 <malloc+0x624>
9d004d3c:	00442021 	addu	a0,v0,a0
9d004d40:	8c42000c 	lw	v0,12(v0)
9d004d44:	51220072 	beql	t1,v0,9d004f10 <malloc+0x5ac>
9d004d48:	258c0001 	addiu	t4,t4,1
9d004d4c:	8c440004 	lw	a0,4(v0)
9d004d50:	008a2024 	and	a0,a0,t2
9d004d54:	00901823 	subu	v1,a0,s0
9d004d58:	28650010 	slti	a1,v1,16
9d004d5c:	14a0fff6 	bnez	a1,9d004d38 <malloc+0x3d4>
9d004d60:	00000000 	nop
9d004d64:	8c45000c 	lw	a1,12(v0)
9d004d68:	8c470008 	lw	a3,8(v0)
9d004d6c:	00502021 	addu	a0,v0,s0
9d004d70:	36100001 	ori	s0,s0,0x1
9d004d74:	34690001 	ori	t1,v1,0x1
9d004d78:	00834021 	addu	t0,a0,v1
9d004d7c:	ac500004 	sw	s0,4(v0)
9d004d80:	24420008 	addiu	v0,v0,8
9d004d84:	ace5000c 	sw	a1,12(a3)
9d004d88:	aca70008 	sw	a3,8(a1)
9d004d8c:	ae240014 	sw	a0,20(s1)
9d004d90:	ae240010 	sw	a0,16(s1)
9d004d94:	ac86000c 	sw	a2,12(a0)
9d004d98:	ac860008 	sw	a2,8(a0)
9d004d9c:	ac890004 	sw	t1,4(a0)
9d004da0:	0b40127c 	j	9d0049f0 <malloc+0x8c>
9d004da4:	ad030000 	sw	v1,0(t0)
9d004da8:	8e320008 	lw	s2,8(s1)
9d004dac:	8e540004 	lw	s4,4(s2)
9d004db0:	2402fffc 	li	v0,-4
9d004db4:	0282a024 	and	s4,s4,v0
9d004db8:	0290102b 	sltu	v0,s4,s0
9d004dbc:	14400004 	bnez	v0,9d004dd0 <malloc+0x46c>
9d004dc0:	02901023 	subu	v0,s4,s0
9d004dc4:	28430010 	slti	v1,v0,16
9d004dc8:	10600025 	beqz	v1,9d004e60 <malloc+0x4fc>
9d004dcc:	02501821 	addu	v1,s2,s0
9d004dd0:	3c02a000 	lui	v0,0xa000
9d004dd4:	8c554784 	lw	s5,18308(v0)
9d004dd8:	3c1ea000 	lui	s8,0xa000
9d004ddc:	0254b821 	addu	s7,s2,s4
9d004de0:	26b50010 	addiu	s5,s5,16
9d004de4:	0f403199 	jal	9d00c664 <getpagesize>
9d004de8:	02b0a821 	addu	s5,s5,s0
9d004dec:	0040b021 	move	s6,v0
9d004df0:	8fc341e8 	lw	v1,16872(s8)
9d004df4:	2402ffff 	li	v0,-1
9d004df8:	10620004 	beq	v1,v0,9d004e0c <malloc+0x4a8>
9d004dfc:	26a2ffff 	addiu	v0,s5,-1
9d004e00:	00561021 	addu	v0,v0,s6
9d004e04:	0016a823 	negu	s5,s6
9d004e08:	02a2a824 	and	s5,s5,v0
9d004e0c:	0f402fc8 	jal	9d00bf20 <.LFE1>
9d004e10:	02a02021 	move	a0,s5
9d004e14:	00409821 	move	s3,v0
9d004e18:	2402ffff 	li	v0,-1
9d004e1c:	52620007 	beql	s3,v0,9d004e3c <malloc+0x4d8>
9d004e20:	8e320008 	lw	s2,8(s1)
9d004e24:	0277102b 	sltu	v0,s3,s7
9d004e28:	10400060 	beqz	v0,9d004fac <malloc+0x648>
9d004e2c:	3c03a000 	lui	v1,0xa000
9d004e30:	5251005f 	beql	s2,s1,9d004fb0 <malloc+0x64c>
9d004e34:	8c624754 	lw	v0,18260(v1)
9d004e38:	8e320008 	lw	s2,8(s1)
9d004e3c:	8e430004 	lw	v1,4(s2)
9d004e40:	2402fffc 	li	v0,-4
9d004e44:	00621024 	and	v0,v1,v0
9d004e48:	0050182b 	sltu	v1,v0,s0
9d004e4c:	146000a4 	bnez	v1,9d0050e0 <malloc+0x77c>
9d004e50:	00501023 	subu	v0,v0,s0
9d004e54:	28430010 	slti	v1,v0,16
9d004e58:	146000a1 	bnez	v1,9d0050e0 <malloc+0x77c>
9d004e5c:	02501821 	addu	v1,s2,s0
9d004e60:	36100001 	ori	s0,s0,0x1
9d004e64:	34440001 	ori	a0,v0,0x1
9d004e68:	ae500004 	sw	s0,4(s2)
9d004e6c:	26420008 	addiu	v0,s2,8
9d004e70:	ae230008 	sw	v1,8(s1)
9d004e74:	0b40127c 	j	9d0049f0 <malloc+0x8c>
9d004e78:	ac640004 	sw	a0,4(v1)
9d004e7c:	14600021 	bnez	v1,9d004f04 <malloc+0x5a0>
9d004e80:	00104302 	srl	t0,s0,0xc
9d004e84:	2c430155 	sltiu	v1,v0,341
9d004e88:	1060008b 	beqz	v1,9d0050b8 <malloc+0x754>
9d004e8c:	2c420555 	sltiu	v0,v0,1365
9d004e90:	001043c2 	srl	t0,s0,0xf
9d004e94:	25080077 	addiu	t0,t0,119
9d004e98:	0b40129d 	j	9d004a74 <malloc+0x110>
9d004e9c:	00083040 	sll	a2,t0,0x1
9d004ea0:	000418c0 	sll	v1,a0,0x3
9d004ea4:	02231821 	addu	v1,s1,v1
9d004ea8:	8e270004 	lw	a3,4(s1)
9d004eac:	8c650008 	lw	a1,8(v1)
9d004eb0:	00042083 	sra	a0,a0,0x2
9d004eb4:	24090001 	li	t1,1
9d004eb8:	00892004 	sllv	a0,t1,a0
9d004ebc:	00872025 	or	a0,a0,a3
9d004ec0:	ac43000c 	sw	v1,12(v0)
9d004ec4:	ac450008 	sw	a1,8(v0)
9d004ec8:	ae240004 	sw	a0,4(s1)
9d004ecc:	ac620008 	sw	v0,8(v1)
9d004ed0:	0b40133b 	j	9d004cec <malloc+0x388>
9d004ed4:	aca2000c 	sw	v0,12(a1)
9d004ed8:	2402fffc 	li	v0,-4
9d004edc:	01024024 	and	t0,t0,v0
9d004ee0:	00871024 	and	v0,a0,a3
9d004ee4:	1440ff8a 	bnez	v0,9d004d10 <malloc+0x3ac>
9d004ee8:	25080004 	addiu	t0,t0,4
9d004eec:	00073840 	sll	a3,a3,0x1
9d004ef0:	00871024 	and	v0,a0,a3
9d004ef4:	1040fffd 	beqz	v0,9d004eec <malloc+0x588>
9d004ef8:	25080004 	addiu	t0,t0,4
9d004efc:	0b401345 	j	9d004d14 <malloc+0x3b0>
9d004f00:	240afffc 	li	t2,-4
9d004f04:	2508006e 	addiu	t0,t0,110
9d004f08:	0b40129d 	j	9d004a74 <malloc+0x110>
9d004f0c:	00083040 	sll	a2,t0,0x1
9d004f10:	31820003 	andi	v0,t4,0x3
9d004f14:	1440ff83 	bnez	v0,9d004d24 <malloc+0x3c0>
9d004f18:	25290008 	addiu	t1,t1,8
9d004f1c:	0b4013cc 	j	9d004f30 <malloc+0x5cc>
9d004f20:	2562fff8 	addiu	v0,t3,-8
9d004f24:	15620009 	bne	t3,v0,9d004f4c <malloc+0x5e8>
9d004f28:	2508ffff 	addiu	t0,t0,-1
9d004f2c:	2562fff8 	addiu	v0,t3,-8
9d004f30:	31030003 	andi	v1,t0,0x3
9d004f34:	5460fffb 	bnezl	v1,9d004f24 <malloc+0x5c0>
9d004f38:	8d6b0000 	lw	t3,0(t3)
9d004f3c:	8e220004 	lw	v0,4(s1)
9d004f40:	00071827 	nor	v1,zero,a3
9d004f44:	00621024 	and	v0,v1,v0
9d004f48:	ae220004 	sw	v0,4(s1)
9d004f4c:	8e220004 	lw	v0,4(s1)
9d004f50:	00073840 	sll	a3,a3,0x1
9d004f54:	0047182b 	sltu	v1,v0,a3
9d004f58:	5460ff94 	bnezl	v1,9d004dac <malloc+0x448>
9d004f5c:	8e320008 	lw	s2,8(s1)
9d004f60:	10e0ff91 	beqz	a3,9d004da8 <malloc+0x444>
9d004f64:	00e21824 	and	v1,a3,v0
9d004f68:	1460ff6a 	bnez	v1,9d004d14 <malloc+0x3b0>
9d004f6c:	01804021 	move	t0,t4
9d004f70:	00073840 	sll	a3,a3,0x1
9d004f74:	00e21824 	and	v1,a3,v0
9d004f78:	1060fffd 	beqz	v1,9d004f70 <malloc+0x60c>
9d004f7c:	25080004 	addiu	t0,t0,4
9d004f80:	0b401346 	j	9d004d18 <malloc+0x3b4>
9d004f84:	000858c0 	sll	t3,t0,0x3
9d004f88:	8c860004 	lw	a2,4(a0)
9d004f8c:	8c43000c 	lw	v1,12(v0)
9d004f90:	8c450008 	lw	a1,8(v0)
9d004f94:	34c60001 	ori	a2,a2,0x1
9d004f98:	ac860004 	sw	a2,4(a0)
9d004f9c:	24420008 	addiu	v0,v0,8
9d004fa0:	aca3000c 	sw	v1,12(a1)
9d004fa4:	0b40127c 	j	9d0049f0 <malloc+0x8c>
9d004fa8:	ac650008 	sw	a1,8(v1)
9d004fac:	8c624754 	lw	v0,18260(v1)
9d004fb0:	26c5ffff 	addiu	a1,s6,-1
9d004fb4:	02a21021 	addu	v0,s5,v0
9d004fb8:	12f3005e 	beq	s7,s3,9d005134 <malloc+0x7d0>
9d004fbc:	ac624754 	sw	v0,18260(v1)
9d004fc0:	8fc641e8 	lw	a2,16872(s8)
9d004fc4:	2404ffff 	li	a0,-1
9d004fc8:	50c4006a 	beql	a2,a0,9d005174 <malloc+0x810>
9d004fcc:	3c02a000 	lui	v0,0xa000
9d004fd0:	0277b823 	subu	s7,s3,s7
9d004fd4:	00571021 	addu	v0,v0,s7
9d004fd8:	ac624754 	sw	v0,18260(v1)
9d004fdc:	32640007 	andi	a0,s3,0x7
9d004fe0:	10800004 	beqz	a0,9d004ff4 <malloc+0x690>
9d004fe4:	00001021 	move	v0,zero
9d004fe8:	24020008 	li	v0,8
9d004fec:	00441023 	subu	v0,v0,a0
9d004ff0:	02629821 	addu	s3,s3,v0
9d004ff4:	0275a821 	addu	s5,s3,s5
9d004ff8:	00561021 	addu	v0,v0,s6
9d004ffc:	02a52824 	and	a1,s5,a1
9d005000:	0045a823 	subu	s5,v0,a1
9d005004:	02a02021 	move	a0,s5
9d005008:	0f402fc8 	jal	9d00bf20 <.LFE1>
9d00500c:	afa30010 	sw	v1,16(sp)
9d005010:	2404ffff 	li	a0,-1
9d005014:	10440054 	beq	v0,a0,9d005168 <malloc+0x804>
9d005018:	8fa30010 	lw	v1,16(sp)
9d00501c:	00531023 	subu	v0,v0,s3
9d005020:	02a22021 	addu	a0,s5,v0
9d005024:	34840001 	ori	a0,a0,0x1
9d005028:	8c624754 	lw	v0,18260(v1)
9d00502c:	ae330008 	sw	s3,8(s1)
9d005030:	02a21021 	addu	v0,s5,v0
9d005034:	ac624754 	sw	v0,18260(v1)
9d005038:	12510010 	beq	s2,s1,9d00507c <malloc+0x718>
9d00503c:	ae640004 	sw	a0,4(s3)
9d005040:	2e830010 	sltiu	v1,s4,16
9d005044:	1460002a 	bnez	v1,9d0050f0 <malloc+0x78c>
9d005048:	2403fff8 	li	v1,-8
9d00504c:	2694fff4 	addiu	s4,s4,-12
9d005050:	02831824 	and	v1,s4,v1
9d005054:	02432021 	addu	a0,s2,v1
9d005058:	24050005 	li	a1,5
9d00505c:	ac850004 	sw	a1,4(a0)
9d005060:	ac850008 	sw	a1,8(a0)
9d005064:	8e450004 	lw	a1,4(s2)
9d005068:	2c640010 	sltiu	a0,v1,16
9d00506c:	30a50001 	andi	a1,a1,0x1
9d005070:	00651825 	or	v1,v1,a1
9d005074:	10800037 	beqz	a0,9d005154 <malloc+0x7f0>
9d005078:	ae430004 	sw	v1,4(s2)
9d00507c:	3c03a000 	lui	v1,0xa000
9d005080:	8c644780 	lw	a0,18304(v1)
9d005084:	0082202b 	sltu	a0,a0,v0
9d005088:	54800001 	bnezl	a0,9d005090 <malloc+0x72c>
9d00508c:	ac624780 	sw	v0,18304(v1)
9d005090:	3c03a000 	lui	v1,0xa000
9d005094:	8c64477c 	lw	a0,18300(v1)
9d005098:	0082202b 	sltu	a0,a0,v0
9d00509c:	10800002 	beqz	a0,9d0050a8 <malloc+0x744>
9d0050a0:	8e320008 	lw	s2,8(s1)
9d0050a4:	ac62477c 	sw	v0,18300(v1)
9d0050a8:	8e430004 	lw	v1,4(s2)
9d0050ac:	2402fffc 	li	v0,-4
9d0050b0:	0b401392 	j	9d004e48 <malloc+0x4e4>
9d0050b4:	00621024 	and	v0,v1,v0
9d0050b8:	5040000b 	beqzl	v0,9d0050e8 <malloc+0x784>
9d0050bc:	240600fc 	li	a2,252
9d0050c0:	00104482 	srl	t0,s0,0x12
9d0050c4:	2508007c 	addiu	t0,t0,124
9d0050c8:	0b40129d 	j	9d004a74 <malloc+0x110>
9d0050cc:	00083040 	sll	a2,t0,0x1
9d0050d0:	50a00013 	beqzl	a1,9d005120 <malloc+0x7bc>
9d0050d4:	2c650055 	sltiu	a1,v1,85
9d0050d8:	0b4012e4 	j	9d004b90 <malloc+0x22c>
9d0050dc:	2465005b 	addiu	a1,v1,91
9d0050e0:	0b40127c 	j	9d0049f0 <malloc+0x8c>
9d0050e4:	00001021 	move	v0,zero
9d0050e8:	0b40129d 	j	9d004a74 <malloc+0x110>
9d0050ec:	2408007e 	li	t0,126
9d0050f0:	24020001 	li	v0,1
9d0050f4:	ae620004 	sw	v0,4(s3)
9d0050f8:	02609021 	move	s2,s3
9d0050fc:	0b401392 	j	9d004e48 <malloc+0x4e4>
9d005100:	00001021 	move	v0,zero
9d005104:	00052883 	sra	a1,a1,0x2
9d005108:	24070001 	li	a3,1
9d00510c:	00a72804 	sllv	a1,a3,a1
9d005110:	00a42025 	or	a0,a1,a0
9d005114:	ae240004 	sw	a0,4(s1)
9d005118:	0b4012f4 	j	9d004bd0 <malloc+0x26c>
9d00511c:	00602821 	move	a1,v1
9d005120:	50a00016 	beqzl	a1,9d00517c <malloc+0x818>
9d005124:	2c650155 	sltiu	a1,v1,341
9d005128:	00042b02 	srl	a1,a0,0xc
9d00512c:	0b4012e4 	j	9d004b90 <malloc+0x22c>
9d005130:	24a5006e 	addiu	a1,a1,110
9d005134:	02e52024 	and	a0,s7,a1
9d005138:	5480ffa2 	bnezl	a0,9d004fc4 <malloc+0x660>
9d00513c:	8fc641e8 	lw	a2,16872(s8)
9d005140:	8e230008 	lw	v1,8(s1)
9d005144:	02b42021 	addu	a0,s5,s4
9d005148:	34840001 	ori	a0,a0,0x1
9d00514c:	0b40141f 	j	9d00507c <malloc+0x718>
9d005150:	ac640004 	sw	a0,4(v1)
9d005154:	0f4023b9 	jal	9d008ee4 <free>
9d005158:	26440008 	addiu	a0,s2,8
9d00515c:	3c02a000 	lui	v0,0xa000
9d005160:	0b40141f 	j	9d00507c <malloc+0x718>
9d005164:	8c424754 	lw	v0,18260(v0)
9d005168:	24040001 	li	a0,1
9d00516c:	0b40140a 	j	9d005028 <malloc+0x6c4>
9d005170:	0000a821 	move	s5,zero
9d005174:	0b4013f7 	j	9d004fdc <malloc+0x678>
9d005178:	ac5341e8 	sw	s3,16872(v0)
9d00517c:	10a00004 	beqz	a1,9d005190 <malloc+0x82c>
9d005180:	2c630555 	sltiu	v1,v1,1365
9d005184:	00042bc2 	srl	a1,a0,0xf
9d005188:	0b4012e4 	j	9d004b90 <malloc+0x22c>
9d00518c:	24a50077 	addiu	a1,a1,119
9d005190:	1060fe7f 	beqz	v1,9d004b90 <malloc+0x22c>
9d005194:	2405007e 	li	a1,126
9d005198:	00042c82 	srl	a1,a0,0x12
9d00519c:	0b4012e4 	j	9d004b90 <malloc+0x22c>
9d0051a0:	24a5007c 	addiu	a1,a1,124

Disassembly of section .dinit:

9d0051a4 <.dinit>:
9d0051a4:	a0000048 	sb	zero,72(zero)
9d0051a8:	000041a0 	0x41a0
9d0051ac:	00000000 	nop
9d0051b0:	a0000018 	sb	zero,24(zero)
9d0051b4:	00000028 	0x28
9d0051b8:	00000000 	nop
9d0051bc:	a0000000 	sb	zero,0(zero)
9d0051c0:	00000010 	mfhi	zero
9d0051c4:	00000001 	movf	zero,zero,$fcc0
9d0051c8:	3f400000 	0x3f400000
9d0051cc:	3d4ccccd 	0x3d4ccccd
9d0051d0:	43160000 	c0	0x1160000
9d0051d4:	459c4000 	0x459c4000
9d0051d8:	a0000040 	sb	zero,64(zero)
9d0051dc:	00000004 	sllv	zero,zero,zero
9d0051e0:	00000000 	nop
9d0051e4:	a00045f8 	sb	zero,17912(zero)
9d0051e8:	000000d4 	0xd4
9d0051ec:	00000001 	movf	zero,zero,$fcc0
9d0051f0:	a000465c 	sb	zero,18012(zero)
9d0051f4:	a0004678 	sb	zero,18040(zero)
9d0051f8:	a0004694 	sb	zero,18068(zero)
9d0051fc:	a0004658 	sb	zero,18008(zero)
9d005200:	a00046cc 	sb	zero,18124(zero)
9d005204:	00000001 	movf	zero,zero,$fcc0
	...
9d005254:	ffffffff 	sdc3	$31,-1(ra)
9d005258:	ffffffff 	sdc3	$31,-1(ra)
9d00525c:	00000000 	nop
9d005260:	00000040 	ssnop
9d005264:	00001009 	jalr	v0,zero
9d005268:	00000000 	nop
9d00526c:	9d00c52c 	0x9d00c52c
9d005270:	ffffffff 	sdc3	$31,-1(ra)
	...
9d005280:	00011002 	srl	v0,at,0x0
9d005284:	00000000 	nop
9d005288:	9d00c52c 	0x9d00c52c
9d00528c:	ffffffff 	sdc3	$31,-1(ra)
	...
9d00529c:	00020002 	srl	zero,v0,0x0
9d0052a0:	00000000 	nop
9d0052a4:	9d00c52c 	0x9d00c52c
9d0052a8:	fffffffd 	sdc3	$31,-3(ra)
	...
9d0052c4:	a00046cc 	sb	zero,18124(zero)
9d0052c8:	00000088 	0x88
9d0052cc:	00000000 	nop
9d0052d0:	a0000010 	sb	zero,16(zero)
9d0052d4:	00000004 	sllv	zero,zero,zero
9d0052d8:	00000001 	movf	zero,zero,$fcc0
9d0052dc:	a00045f8 	sb	zero,17912(zero)
9d0052e0:	a00047cc 	sb	zero,18380(zero)
9d0052e4:	00000004 	sllv	zero,zero,zero
9d0052e8:	00000000 	nop
9d0052ec:	a00041e8 	sb	zero,16872(zero)
9d0052f0:	00000410 	0x410
9d0052f4:	00000001 	movf	zero,zero,$fcc0
9d0052f8:	ffffffff 	sdc3	$31,-1(ra)
9d0052fc:	00002000 	sll	a0,zero,0x0
	...
9d005308:	a00041f0 	sb	zero,16880(zero)
9d00530c:	a00041f0 	sb	zero,16880(zero)
9d005310:	a00041f8 	sb	zero,16888(zero)
9d005314:	a00041f8 	sb	zero,16888(zero)
9d005318:	a0004200 	sb	zero,16896(zero)
9d00531c:	a0004200 	sb	zero,16896(zero)
9d005320:	a0004208 	sb	zero,16904(zero)
9d005324:	a0004208 	sb	zero,16904(zero)
9d005328:	a0004210 	sb	zero,16912(zero)
9d00532c:	a0004210 	sb	zero,16912(zero)
9d005330:	a0004218 	sb	zero,16920(zero)
9d005334:	a0004218 	sb	zero,16920(zero)
9d005338:	a0004220 	sb	zero,16928(zero)
9d00533c:	a0004220 	sb	zero,16928(zero)
9d005340:	a0004228 	sb	zero,16936(zero)
9d005344:	a0004228 	sb	zero,16936(zero)
9d005348:	a0004230 	sb	zero,16944(zero)
9d00534c:	a0004230 	sb	zero,16944(zero)
9d005350:	a0004238 	sb	zero,16952(zero)
9d005354:	a0004238 	sb	zero,16952(zero)
9d005358:	a0004240 	sb	zero,16960(zero)
9d00535c:	a0004240 	sb	zero,16960(zero)
9d005360:	a0004248 	sb	zero,16968(zero)
9d005364:	a0004248 	sb	zero,16968(zero)
9d005368:	a0004250 	sb	zero,16976(zero)
9d00536c:	a0004250 	sb	zero,16976(zero)
9d005370:	a0004258 	sb	zero,16984(zero)
9d005374:	a0004258 	sb	zero,16984(zero)
9d005378:	a0004260 	sb	zero,16992(zero)
9d00537c:	a0004260 	sb	zero,16992(zero)
9d005380:	a0004268 	sb	zero,17000(zero)
9d005384:	a0004268 	sb	zero,17000(zero)
9d005388:	a0004270 	sb	zero,17008(zero)
9d00538c:	a0004270 	sb	zero,17008(zero)
9d005390:	a0004278 	sb	zero,17016(zero)
9d005394:	a0004278 	sb	zero,17016(zero)
9d005398:	a0004280 	sb	zero,17024(zero)
9d00539c:	a0004280 	sb	zero,17024(zero)
9d0053a0:	a0004288 	sb	zero,17032(zero)
9d0053a4:	a0004288 	sb	zero,17032(zero)
9d0053a8:	a0004290 	sb	zero,17040(zero)
9d0053ac:	a0004290 	sb	zero,17040(zero)
9d0053b0:	a0004298 	sb	zero,17048(zero)
9d0053b4:	a0004298 	sb	zero,17048(zero)
9d0053b8:	a00042a0 	sb	zero,17056(zero)
9d0053bc:	a00042a0 	sb	zero,17056(zero)
9d0053c0:	a00042a8 	sb	zero,17064(zero)
9d0053c4:	a00042a8 	sb	zero,17064(zero)
9d0053c8:	a00042b0 	sb	zero,17072(zero)
9d0053cc:	a00042b0 	sb	zero,17072(zero)
9d0053d0:	a00042b8 	sb	zero,17080(zero)
9d0053d4:	a00042b8 	sb	zero,17080(zero)
9d0053d8:	a00042c0 	sb	zero,17088(zero)
9d0053dc:	a00042c0 	sb	zero,17088(zero)
9d0053e0:	a00042c8 	sb	zero,17096(zero)
9d0053e4:	a00042c8 	sb	zero,17096(zero)
9d0053e8:	a00042d0 	sb	zero,17104(zero)
9d0053ec:	a00042d0 	sb	zero,17104(zero)
9d0053f0:	a00042d8 	sb	zero,17112(zero)
9d0053f4:	a00042d8 	sb	zero,17112(zero)
9d0053f8:	a00042e0 	sb	zero,17120(zero)
9d0053fc:	a00042e0 	sb	zero,17120(zero)
9d005400:	a00042e8 	sb	zero,17128(zero)
9d005404:	a00042e8 	sb	zero,17128(zero)
9d005408:	a00042f0 	sb	zero,17136(zero)
9d00540c:	a00042f0 	sb	zero,17136(zero)
9d005410:	a00042f8 	sb	zero,17144(zero)
9d005414:	a00042f8 	sb	zero,17144(zero)
9d005418:	a0004300 	sb	zero,17152(zero)
9d00541c:	a0004300 	sb	zero,17152(zero)
9d005420:	a0004308 	sb	zero,17160(zero)
9d005424:	a0004308 	sb	zero,17160(zero)
9d005428:	a0004310 	sb	zero,17168(zero)
9d00542c:	a0004310 	sb	zero,17168(zero)
9d005430:	a0004318 	sb	zero,17176(zero)
9d005434:	a0004318 	sb	zero,17176(zero)
9d005438:	a0004320 	sb	zero,17184(zero)
9d00543c:	a0004320 	sb	zero,17184(zero)
9d005440:	a0004328 	sb	zero,17192(zero)
9d005444:	a0004328 	sb	zero,17192(zero)
9d005448:	a0004330 	sb	zero,17200(zero)
9d00544c:	a0004330 	sb	zero,17200(zero)
9d005450:	a0004338 	sb	zero,17208(zero)
9d005454:	a0004338 	sb	zero,17208(zero)
9d005458:	a0004340 	sb	zero,17216(zero)
9d00545c:	a0004340 	sb	zero,17216(zero)
9d005460:	a0004348 	sb	zero,17224(zero)
9d005464:	a0004348 	sb	zero,17224(zero)
9d005468:	a0004350 	sb	zero,17232(zero)
9d00546c:	a0004350 	sb	zero,17232(zero)
9d005470:	a0004358 	sb	zero,17240(zero)
9d005474:	a0004358 	sb	zero,17240(zero)
9d005478:	a0004360 	sb	zero,17248(zero)
9d00547c:	a0004360 	sb	zero,17248(zero)
9d005480:	a0004368 	sb	zero,17256(zero)
9d005484:	a0004368 	sb	zero,17256(zero)
9d005488:	a0004370 	sb	zero,17264(zero)
9d00548c:	a0004370 	sb	zero,17264(zero)
9d005490:	a0004378 	sb	zero,17272(zero)
9d005494:	a0004378 	sb	zero,17272(zero)
9d005498:	a0004380 	sb	zero,17280(zero)
9d00549c:	a0004380 	sb	zero,17280(zero)
9d0054a0:	a0004388 	sb	zero,17288(zero)
9d0054a4:	a0004388 	sb	zero,17288(zero)
9d0054a8:	a0004390 	sb	zero,17296(zero)
9d0054ac:	a0004390 	sb	zero,17296(zero)
9d0054b0:	a0004398 	sb	zero,17304(zero)
9d0054b4:	a0004398 	sb	zero,17304(zero)
9d0054b8:	a00043a0 	sb	zero,17312(zero)
9d0054bc:	a00043a0 	sb	zero,17312(zero)
9d0054c0:	a00043a8 	sb	zero,17320(zero)
9d0054c4:	a00043a8 	sb	zero,17320(zero)
9d0054c8:	a00043b0 	sb	zero,17328(zero)
9d0054cc:	a00043b0 	sb	zero,17328(zero)
9d0054d0:	a00043b8 	sb	zero,17336(zero)
9d0054d4:	a00043b8 	sb	zero,17336(zero)
9d0054d8:	a00043c0 	sb	zero,17344(zero)
9d0054dc:	a00043c0 	sb	zero,17344(zero)
9d0054e0:	a00043c8 	sb	zero,17352(zero)
9d0054e4:	a00043c8 	sb	zero,17352(zero)
9d0054e8:	a00043d0 	sb	zero,17360(zero)
9d0054ec:	a00043d0 	sb	zero,17360(zero)
9d0054f0:	a00043d8 	sb	zero,17368(zero)
9d0054f4:	a00043d8 	sb	zero,17368(zero)
9d0054f8:	a00043e0 	sb	zero,17376(zero)
9d0054fc:	a00043e0 	sb	zero,17376(zero)
9d005500:	a00043e8 	sb	zero,17384(zero)
9d005504:	a00043e8 	sb	zero,17384(zero)
9d005508:	a00043f0 	sb	zero,17392(zero)
9d00550c:	a00043f0 	sb	zero,17392(zero)
9d005510:	a00043f8 	sb	zero,17400(zero)
9d005514:	a00043f8 	sb	zero,17400(zero)
9d005518:	a0004400 	sb	zero,17408(zero)
9d00551c:	a0004400 	sb	zero,17408(zero)
9d005520:	a0004408 	sb	zero,17416(zero)
9d005524:	a0004408 	sb	zero,17416(zero)
9d005528:	a0004410 	sb	zero,17424(zero)
9d00552c:	a0004410 	sb	zero,17424(zero)
9d005530:	a0004418 	sb	zero,17432(zero)
9d005534:	a0004418 	sb	zero,17432(zero)
9d005538:	a0004420 	sb	zero,17440(zero)
9d00553c:	a0004420 	sb	zero,17440(zero)
9d005540:	a0004428 	sb	zero,17448(zero)
9d005544:	a0004428 	sb	zero,17448(zero)
9d005548:	a0004430 	sb	zero,17456(zero)
9d00554c:	a0004430 	sb	zero,17456(zero)
9d005550:	a0004438 	sb	zero,17464(zero)
9d005554:	a0004438 	sb	zero,17464(zero)
9d005558:	a0004440 	sb	zero,17472(zero)
9d00555c:	a0004440 	sb	zero,17472(zero)
9d005560:	a0004448 	sb	zero,17480(zero)
9d005564:	a0004448 	sb	zero,17480(zero)
9d005568:	a0004450 	sb	zero,17488(zero)
9d00556c:	a0004450 	sb	zero,17488(zero)
9d005570:	a0004458 	sb	zero,17496(zero)
9d005574:	a0004458 	sb	zero,17496(zero)
9d005578:	a0004460 	sb	zero,17504(zero)
9d00557c:	a0004460 	sb	zero,17504(zero)
9d005580:	a0004468 	sb	zero,17512(zero)
9d005584:	a0004468 	sb	zero,17512(zero)
9d005588:	a0004470 	sb	zero,17520(zero)
9d00558c:	a0004470 	sb	zero,17520(zero)
9d005590:	a0004478 	sb	zero,17528(zero)
9d005594:	a0004478 	sb	zero,17528(zero)
9d005598:	a0004480 	sb	zero,17536(zero)
9d00559c:	a0004480 	sb	zero,17536(zero)
9d0055a0:	a0004488 	sb	zero,17544(zero)
9d0055a4:	a0004488 	sb	zero,17544(zero)
9d0055a8:	a0004490 	sb	zero,17552(zero)
9d0055ac:	a0004490 	sb	zero,17552(zero)
9d0055b0:	a0004498 	sb	zero,17560(zero)
9d0055b4:	a0004498 	sb	zero,17560(zero)
9d0055b8:	a00044a0 	sb	zero,17568(zero)
9d0055bc:	a00044a0 	sb	zero,17568(zero)
9d0055c0:	a00044a8 	sb	zero,17576(zero)
9d0055c4:	a00044a8 	sb	zero,17576(zero)
9d0055c8:	a00044b0 	sb	zero,17584(zero)
9d0055cc:	a00044b0 	sb	zero,17584(zero)
9d0055d0:	a00044b8 	sb	zero,17592(zero)
9d0055d4:	a00044b8 	sb	zero,17592(zero)
9d0055d8:	a00044c0 	sb	zero,17600(zero)
9d0055dc:	a00044c0 	sb	zero,17600(zero)
9d0055e0:	a00044c8 	sb	zero,17608(zero)
9d0055e4:	a00044c8 	sb	zero,17608(zero)
9d0055e8:	a00044d0 	sb	zero,17616(zero)
9d0055ec:	a00044d0 	sb	zero,17616(zero)
9d0055f0:	a00044d8 	sb	zero,17624(zero)
9d0055f4:	a00044d8 	sb	zero,17624(zero)
9d0055f8:	a00044e0 	sb	zero,17632(zero)
9d0055fc:	a00044e0 	sb	zero,17632(zero)
9d005600:	a00044e8 	sb	zero,17640(zero)
9d005604:	a00044e8 	sb	zero,17640(zero)
9d005608:	a00044f0 	sb	zero,17648(zero)
9d00560c:	a00044f0 	sb	zero,17648(zero)
9d005610:	a00044f8 	sb	zero,17656(zero)
9d005614:	a00044f8 	sb	zero,17656(zero)
9d005618:	a0004500 	sb	zero,17664(zero)
9d00561c:	a0004500 	sb	zero,17664(zero)
9d005620:	a0004508 	sb	zero,17672(zero)
9d005624:	a0004508 	sb	zero,17672(zero)
9d005628:	a0004510 	sb	zero,17680(zero)
9d00562c:	a0004510 	sb	zero,17680(zero)
9d005630:	a0004518 	sb	zero,17688(zero)
9d005634:	a0004518 	sb	zero,17688(zero)
9d005638:	a0004520 	sb	zero,17696(zero)
9d00563c:	a0004520 	sb	zero,17696(zero)
9d005640:	a0004528 	sb	zero,17704(zero)
9d005644:	a0004528 	sb	zero,17704(zero)
9d005648:	a0004530 	sb	zero,17712(zero)
9d00564c:	a0004530 	sb	zero,17712(zero)
9d005650:	a0004538 	sb	zero,17720(zero)
9d005654:	a0004538 	sb	zero,17720(zero)
9d005658:	a0004540 	sb	zero,17728(zero)
9d00565c:	a0004540 	sb	zero,17728(zero)
9d005660:	a0004548 	sb	zero,17736(zero)
9d005664:	a0004548 	sb	zero,17736(zero)
9d005668:	a0004550 	sb	zero,17744(zero)
9d00566c:	a0004550 	sb	zero,17744(zero)
9d005670:	a0004558 	sb	zero,17752(zero)
9d005674:	a0004558 	sb	zero,17752(zero)
9d005678:	a0004560 	sb	zero,17760(zero)
9d00567c:	a0004560 	sb	zero,17760(zero)
9d005680:	a0004568 	sb	zero,17768(zero)
9d005684:	a0004568 	sb	zero,17768(zero)
9d005688:	a0004570 	sb	zero,17776(zero)
9d00568c:	a0004570 	sb	zero,17776(zero)
9d005690:	a0004578 	sb	zero,17784(zero)
9d005694:	a0004578 	sb	zero,17784(zero)
9d005698:	a0004580 	sb	zero,17792(zero)
9d00569c:	a0004580 	sb	zero,17792(zero)
9d0056a0:	a0004588 	sb	zero,17800(zero)
9d0056a4:	a0004588 	sb	zero,17800(zero)
9d0056a8:	a0004590 	sb	zero,17808(zero)
9d0056ac:	a0004590 	sb	zero,17808(zero)
9d0056b0:	a0004598 	sb	zero,17816(zero)
9d0056b4:	a0004598 	sb	zero,17816(zero)
9d0056b8:	a00045a0 	sb	zero,17824(zero)
9d0056bc:	a00045a0 	sb	zero,17824(zero)
9d0056c0:	a00045a8 	sb	zero,17832(zero)
9d0056c4:	a00045a8 	sb	zero,17832(zero)
9d0056c8:	a00045b0 	sb	zero,17840(zero)
9d0056cc:	a00045b0 	sb	zero,17840(zero)
9d0056d0:	a00045b8 	sb	zero,17848(zero)
9d0056d4:	a00045b8 	sb	zero,17848(zero)
9d0056d8:	a00045c0 	sb	zero,17856(zero)
9d0056dc:	a00045c0 	sb	zero,17856(zero)
9d0056e0:	a00045c8 	sb	zero,17864(zero)
9d0056e4:	a00045c8 	sb	zero,17864(zero)
9d0056e8:	a00045d0 	sb	zero,17872(zero)
9d0056ec:	a00045d0 	sb	zero,17872(zero)
9d0056f0:	a00045d8 	sb	zero,17880(zero)
9d0056f4:	a00045d8 	sb	zero,17880(zero)
9d0056f8:	a00045e0 	sb	zero,17888(zero)
9d0056fc:	a00045e0 	sb	zero,17888(zero)
9d005700:	a00045e8 	sb	zero,17896(zero)
9d005704:	a00045e8 	sb	zero,17896(zero)
9d005708:	a0004754 	sb	zero,18260(zero)
9d00570c:	00000034 	teq	zero,zero
9d005710:	00000000 	nop
9d005714:	a0000044 	sb	zero,68(zero)
9d005718:	00000004 	sllv	zero,zero,zero
9d00571c:	00000000 	nop
9d005720:	a00047ac 	sb	zero,18348(zero)
9d005724:	00000020 	add	zero,zero,zero
9d005728:	00000001 	movf	zero,zero,$fcc0
9d00572c:	00000000 	nop
9d005730:	ffffffff 	sdc3	$31,-1(ra)
	...
9d00574c:	a00047d0 	sb	zero,18384(zero)
9d005750:	00000004 	sllv	zero,zero,zero
9d005754:	00000000 	nop
9d005758:	a0004788 	sb	zero,18312(zero)
9d00575c:	00000024 	and	zero,zero,zero
9d005760:	00000000 	nop
9d005764:	a0000014 	sb	zero,20(zero)
9d005768:	00000004 	sllv	zero,zero,zero
9d00576c:	00000001 	movf	zero,zero,$fcc0
9d005770:	00000002 	srl	zero,zero,0x0
9d005774:	00000000 	nop
9d005778:	22222222 	addi	v0,s1,8738
9d00577c:	22222222 	addi	v0,s1,8738
9d005780:	22222222 	addi	v0,s1,8738

Disassembly of section .text.realloc:

9d005784 <realloc>:
9d005784:	27bdffc8 	addiu	sp,sp,-56
9d005788:	afbf0034 	sw	ra,52(sp)
9d00578c:	afbe0030 	sw	s8,48(sp)
9d005790:	afb7002c 	sw	s7,44(sp)
9d005794:	afb60028 	sw	s6,40(sp)
9d005798:	afb50024 	sw	s5,36(sp)
9d00579c:	afb40020 	sw	s4,32(sp)
9d0057a0:	afb3001c 	sw	s3,28(sp)
9d0057a4:	afb20018 	sw	s2,24(sp)
9d0057a8:	afb10014 	sw	s1,20(sp)
9d0057ac:	afb00010 	sw	s0,16(sp)
9d0057b0:	108000e9 	beqz	a0,9d005b58 <realloc+0x3d4>
9d0057b4:	00808021 	move	s0,a0
9d0057b8:	8c94fffc 	lw	s4,-4(a0)
9d0057bc:	24a2000b 	addiu	v0,a1,11
9d0057c0:	2c430017 	sltiu	v1,v0,23
9d0057c4:	2493fff8 	addiu	s3,a0,-8
9d0057c8:	2411fffc 	li	s1,-4
9d0057cc:	10600047 	beqz	v1,9d0058ec <realloc+0x168>
9d0057d0:	02918824 	and	s1,s4,s1
9d0057d4:	24030010 	li	v1,16
9d0057d8:	24120010 	li	s2,16
9d0057dc:	0245102b 	sltu	v0,s2,a1
9d0057e0:	14400046 	bnez	v0,9d0058fc <realloc+0x178>
9d0057e4:	0223102a 	slt	v0,s1,v1
9d0057e8:	10400054 	beqz	v0,9d00593c <realloc+0x1b8>
9d0057ec:	32950001 	andi	s5,s4,0x1
9d0057f0:	3c17a000 	lui	s7,0xa000
9d0057f4:	26f741f0 	addiu	s7,s7,16880
9d0057f8:	8ee40008 	lw	a0,8(s7)
9d0057fc:	02711021 	addu	v0,s3,s1
9d005800:	108200b9 	beq	a0,v0,9d005ae8 <realloc+0x364>
9d005804:	2407fffe 	li	a3,-2
9d005808:	8c460004 	lw	a2,4(v0)
9d00580c:	00c73824 	and	a3,a2,a3
9d005810:	00473821 	addu	a3,v0,a3
9d005814:	8ce70004 	lw	a3,4(a3)
9d005818:	30e70001 	andi	a3,a3,0x1
9d00581c:	10e0005f 	beqz	a3,9d00599c <realloc+0x218>
9d005820:	2407fffc 	li	a3,-4
9d005824:	00003021 	move	a2,zero
9d005828:	00001021 	move	v0,zero
9d00582c:	32950001 	andi	s5,s4,0x1
9d005830:	16a00075 	bnez	s5,9d005a08 <realloc+0x284>
9d005834:	2407fffc 	li	a3,-4
9d005838:	8e16fff8 	lw	s6,-8(s0)
9d00583c:	0276b023 	subu	s6,s3,s6
9d005840:	8ec80004 	lw	t0,4(s6)
9d005844:	104000cd 	beqz	v0,9d005b7c <realloc+0x3f8>
9d005848:	01073824 	and	a3,t0,a3
9d00584c:	104400cd 	beq	v0,a0,9d005b84 <realloc+0x400>
9d005850:	00f13821 	addu	a3,a3,s1
9d005854:	00c7b821 	addu	s7,a2,a3
9d005858:	02e3202a 	slt	a0,s7,v1
9d00585c:	54800090 	bnezl	a0,9d005aa0 <realloc+0x31c>
9d005860:	00e0b821 	move	s7,a3
9d005864:	8c43000c 	lw	v1,12(v0)
9d005868:	8c420008 	lw	v0,8(v0)
9d00586c:	2626fffc 	addiu	a2,s1,-4
9d005870:	2cc40025 	sltiu	a0,a2,37
9d005874:	ac43000c 	sw	v1,12(v0)
9d005878:	ac620008 	sw	v0,8(v1)
9d00587c:	8ec2000c 	lw	v0,12(s6)
9d005880:	8ec30008 	lw	v1,8(s6)
9d005884:	26d40008 	addiu	s4,s6,8
9d005888:	ac62000c 	sw	v0,12(v1)
9d00588c:	1080008e 	beqz	a0,9d005ac8 <realloc+0x344>
9d005890:	ac430008 	sw	v1,8(v0)
9d005894:	2cc20014 	sltiu	v0,a2,20
9d005898:	14400009 	bnez	v0,9d0058c0 <realloc+0x13c>
9d00589c:	02801821 	move	v1,s4
9d0058a0:	8e030000 	lw	v1,0(s0)
9d0058a4:	2cc2001c 	sltiu	v0,a2,28
9d0058a8:	aec30008 	sw	v1,8(s6)
9d0058ac:	8e030004 	lw	v1,4(s0)
9d0058b0:	104000ed 	beqz	v0,9d005c68 <realloc+0x4e4>
9d0058b4:	aec3000c 	sw	v1,12(s6)
9d0058b8:	26c30010 	addiu	v1,s6,16
9d0058bc:	26100008 	addiu	s0,s0,8
9d0058c0:	8e020000 	lw	v0,0(s0)
9d0058c4:	02e08821 	move	s1,s7
9d0058c8:	ac620000 	sw	v0,0(v1)
9d0058cc:	8e020004 	lw	v0,4(s0)
9d0058d0:	02c09821 	move	s3,s6
9d0058d4:	ac620004 	sw	v0,4(v1)
9d0058d8:	8e020008 	lw	v0,8(s0)
9d0058dc:	ac620008 	sw	v0,8(v1)
9d0058e0:	8ed50004 	lw	s5,4(s6)
9d0058e4:	0b401650 	j	9d005940 <realloc+0x1bc>
9d0058e8:	32b50001 	andi	s5,s5,0x1
9d0058ec:	2412fff8 	li	s2,-8
9d0058f0:	00529024 	and	s2,v0,s2
9d0058f4:	0641ffb9 	bgez	s2,9d0057dc <realloc+0x58>
9d0058f8:	02401821 	move	v1,s2
9d0058fc:	2403000c 	li	v1,12
9d005900:	3c02a000 	lui	v0,0xa000
9d005904:	ac430044 	sw	v1,68(v0)
9d005908:	00001021 	move	v0,zero
9d00590c:	8fbf0034 	lw	ra,52(sp)
9d005910:	8fbe0030 	lw	s8,48(sp)
9d005914:	8fb7002c 	lw	s7,44(sp)
9d005918:	8fb60028 	lw	s6,40(sp)
9d00591c:	8fb50024 	lw	s5,36(sp)
9d005920:	8fb40020 	lw	s4,32(sp)
9d005924:	8fb3001c 	lw	s3,28(sp)
9d005928:	8fb20018 	lw	s2,24(sp)
9d00592c:	8fb10014 	lw	s1,20(sp)
9d005930:	8fb00010 	lw	s0,16(sp)
9d005934:	03e00008 	jr	ra
9d005938:	27bd0038 	addiu	sp,sp,56
9d00593c:	0200a021 	move	s4,s0
9d005940:	02321823 	subu	v1,s1,s2
9d005944:	2c650010 	sltiu	a1,v1,16
9d005948:	10a00023 	beqz	a1,9d0059d8 <realloc+0x254>
9d00594c:	02722021 	addu	a0,s3,s2
9d005950:	02b1a825 	or	s5,s5,s1
9d005954:	ae750004 	sw	s5,4(s3)
9d005958:	02718821 	addu	s1,s3,s1
9d00595c:	8e220004 	lw	v0,4(s1)
9d005960:	34420001 	ori	v0,v0,0x1
9d005964:	ae220004 	sw	v0,4(s1)
9d005968:	02801021 	move	v0,s4
9d00596c:	8fbf0034 	lw	ra,52(sp)
9d005970:	8fbe0030 	lw	s8,48(sp)
9d005974:	8fb7002c 	lw	s7,44(sp)
9d005978:	8fb60028 	lw	s6,40(sp)
9d00597c:	8fb50024 	lw	s5,36(sp)
9d005980:	8fb40020 	lw	s4,32(sp)
9d005984:	8fb3001c 	lw	s3,28(sp)
9d005988:	8fb20018 	lw	s2,24(sp)
9d00598c:	8fb10014 	lw	s1,20(sp)
9d005990:	8fb00010 	lw	s0,16(sp)
9d005994:	03e00008 	jr	ra
9d005998:	27bd0038 	addiu	sp,sp,56
9d00599c:	00c73024 	and	a2,a2,a3
9d0059a0:	00d13821 	addu	a3,a2,s1
9d0059a4:	00e3402a 	slt	t0,a3,v1
9d0059a8:	1500ffa1 	bnez	t0,9d005830 <realloc+0xac>
9d0059ac:	32950001 	andi	s5,s4,0x1
9d0059b0:	8c43000c 	lw	v1,12(v0)
9d0059b4:	8c420008 	lw	v0,8(v0)
9d0059b8:	ac43000c 	sw	v1,12(v0)
9d0059bc:	00e08821 	move	s1,a3
9d0059c0:	ac620008 	sw	v0,8(v1)
9d0059c4:	02321823 	subu	v1,s1,s2
9d0059c8:	2c650010 	sltiu	a1,v1,16
9d0059cc:	14a0ffe0 	bnez	a1,9d005950 <realloc+0x1cc>
9d0059d0:	0200a021 	move	s4,s0
9d0059d4:	02722021 	addu	a0,s3,s2
9d0059d8:	02b29025 	or	s2,s5,s2
9d0059dc:	34620001 	ori	v0,v1,0x1
9d0059e0:	ae720004 	sw	s2,4(s3)
9d0059e4:	00831821 	addu	v1,a0,v1
9d0059e8:	ac820004 	sw	v0,4(a0)
9d0059ec:	8c620004 	lw	v0,4(v1)
9d0059f0:	24840008 	addiu	a0,a0,8
9d0059f4:	34420001 	ori	v0,v0,0x1
9d0059f8:	0f4023b9 	jal	9d008ee4 <free>
9d0059fc:	ac620004 	sw	v0,4(v1)
9d005a00:	0b40165b 	j	9d00596c <realloc+0x1e8>
9d005a04:	02801021 	move	v0,s4
9d005a08:	0f401259 	jal	9d004964 <malloc>
9d005a0c:	00a02021 	move	a0,a1
9d005a10:	104000b0 	beqz	v0,9d005cd4 <realloc+0x550>
9d005a14:	0040b021 	move	s6,v0
9d005a18:	2402fffe 	li	v0,-2
9d005a1c:	0282a024 	and	s4,s4,v0
9d005a20:	26c2fff8 	addiu	v0,s6,-8
9d005a24:	0274a021 	addu	s4,s3,s4
9d005a28:	10540089 	beq	v0,s4,9d005c50 <realloc+0x4cc>
9d005a2c:	2626fffc 	addiu	a2,s1,-4
9d005a30:	2cc20025 	sltiu	v0,a2,37
9d005a34:	1040004c 	beqz	v0,9d005b68 <realloc+0x3e4>
9d005a38:	2cc20014 	sltiu	v0,a2,20
9d005a3c:	50400034 	beqzl	v0,9d005b10 <realloc+0x38c>
9d005a40:	8e040000 	lw	a0,0(s0)
9d005a44:	02c01021 	move	v0,s6
9d005a48:	02001821 	move	v1,s0
9d005a4c:	8c650000 	lw	a1,0(v1)
9d005a50:	8c640004 	lw	a0,4(v1)
9d005a54:	8c630008 	lw	v1,8(v1)
9d005a58:	ac450000 	sw	a1,0(v0)
9d005a5c:	ac440004 	sw	a0,4(v0)
9d005a60:	ac430008 	sw	v1,8(v0)
9d005a64:	0f4023b9 	jal	9d008ee4 <free>
9d005a68:	02002021 	move	a0,s0
9d005a6c:	02c01021 	move	v0,s6
9d005a70:	8fbf0034 	lw	ra,52(sp)
9d005a74:	8fbe0030 	lw	s8,48(sp)
9d005a78:	8fb7002c 	lw	s7,44(sp)
9d005a7c:	8fb60028 	lw	s6,40(sp)
9d005a80:	8fb50024 	lw	s5,36(sp)
9d005a84:	8fb40020 	lw	s4,32(sp)
9d005a88:	8fb3001c 	lw	s3,28(sp)
9d005a8c:	8fb20018 	lw	s2,24(sp)
9d005a90:	8fb10014 	lw	s1,20(sp)
9d005a94:	8fb00010 	lw	s0,16(sp)
9d005a98:	03e00008 	jr	ra
9d005a9c:	27bd0038 	addiu	sp,sp,56
9d005aa0:	02e3182a 	slt	v1,s7,v1
9d005aa4:	1460ffd8 	bnez	v1,9d005a08 <realloc+0x284>
9d005aa8:	2626fffc 	addiu	a2,s1,-4
9d005aac:	8ec2000c 	lw	v0,12(s6)
9d005ab0:	8ec30008 	lw	v1,8(s6)
9d005ab4:	2cc40025 	sltiu	a0,a2,37
9d005ab8:	ac62000c 	sw	v0,12(v1)
9d005abc:	26d40008 	addiu	s4,s6,8
9d005ac0:	1480ff74 	bnez	a0,9d005894 <realloc+0x110>
9d005ac4:	ac430008 	sw	v1,8(v0)
9d005ac8:	02802021 	move	a0,s4
9d005acc:	0f402f0c 	jal	9d00bc30 <memmove>
9d005ad0:	02002821 	move	a1,s0
9d005ad4:	8ed50004 	lw	s5,4(s6)
9d005ad8:	02e08821 	move	s1,s7
9d005adc:	32b50001 	andi	s5,s5,0x1
9d005ae0:	0b401650 	j	9d005940 <realloc+0x1bc>
9d005ae4:	02c09821 	move	s3,s6
9d005ae8:	8c860004 	lw	a2,4(a0)
9d005aec:	26470010 	addiu	a3,s2,16
9d005af0:	2402fffc 	li	v0,-4
9d005af4:	00c23024 	and	a2,a2,v0
9d005af8:	00d11021 	addu	v0,a2,s1
9d005afc:	0047382a 	slt	a3,v0,a3
9d005b00:	50e0000b 	beqzl	a3,9d005b30 <realloc+0x3ac>
9d005b04:	00521023 	subu	v0,v0,s2
9d005b08:	0b40160b 	j	9d00582c <realloc+0xa8>
9d005b0c:	00801021 	move	v0,a0
9d005b10:	8e030004 	lw	v1,4(s0)
9d005b14:	2cc2001c 	sltiu	v0,a2,28
9d005b18:	aec40000 	sw	a0,0(s6)
9d005b1c:	10400042 	beqz	v0,9d005c28 <realloc+0x4a4>
9d005b20:	aec30004 	sw	v1,4(s6)
9d005b24:	26c20008 	addiu	v0,s6,8
9d005b28:	0b401693 	j	9d005a4c <realloc+0x2c8>
9d005b2c:	26030008 	addiu	v1,s0,8
9d005b30:	02729821 	addu	s3,s3,s2
9d005b34:	34420001 	ori	v0,v0,0x1
9d005b38:	aef30008 	sw	s3,8(s7)
9d005b3c:	ae620004 	sw	v0,4(s3)
9d005b40:	8e03fffc 	lw	v1,-4(s0)
9d005b44:	02001021 	move	v0,s0
9d005b48:	30630001 	andi	v1,v1,0x1
9d005b4c:	02439025 	or	s2,s2,v1
9d005b50:	0b40165b 	j	9d00596c <realloc+0x1e8>
9d005b54:	ae12fffc 	sw	s2,-4(s0)
9d005b58:	0f401259 	jal	9d004964 <malloc>
9d005b5c:	00a02021 	move	a0,a1
9d005b60:	0b40165c 	j	9d005970 <realloc+0x1ec>
9d005b64:	8fbf0034 	lw	ra,52(sp)
9d005b68:	02c02021 	move	a0,s6
9d005b6c:	0f402f0c 	jal	9d00bc30 <memmove>
9d005b70:	02002821 	move	a1,s0
9d005b74:	0b401699 	j	9d005a64 <realloc+0x2e0>
9d005b78:	00000000 	nop
9d005b7c:	0b4016a8 	j	9d005aa0 <realloc+0x31c>
9d005b80:	00f1b821 	addu	s7,a3,s1
9d005b84:	00c7f021 	addu	s8,a2,a3
9d005b88:	26420010 	addiu	v0,s2,16
9d005b8c:	03c2102a 	slt	v0,s8,v0
9d005b90:	5440ffc3 	bnezl	v0,9d005aa0 <realloc+0x31c>
9d005b94:	00e0b821 	move	s7,a3
9d005b98:	8ec3000c 	lw	v1,12(s6)
9d005b9c:	8ec50008 	lw	a1,8(s6)
9d005ba0:	2626fffc 	addiu	a2,s1,-4
9d005ba4:	2cc20025 	sltiu	v0,a2,37
9d005ba8:	aca3000c 	sw	v1,12(a1)
9d005bac:	26c70008 	addiu	a3,s6,8
9d005bb0:	10400043 	beqz	v0,9d005cc0 <realloc+0x53c>
9d005bb4:	ac650008 	sw	a1,8(v1)
9d005bb8:	2cc20014 	sltiu	v0,a2,20
9d005bbc:	14400009 	bnez	v0,9d005be4 <realloc+0x460>
9d005bc0:	00e01821 	move	v1,a3
9d005bc4:	8e030000 	lw	v1,0(s0)
9d005bc8:	2cc2001c 	sltiu	v0,a2,28
9d005bcc:	aec30008 	sw	v1,8(s6)
9d005bd0:	8e030004 	lw	v1,4(s0)
9d005bd4:	10400041 	beqz	v0,9d005cdc <realloc+0x558>
9d005bd8:	aec3000c 	sw	v1,12(s6)
9d005bdc:	26c30010 	addiu	v1,s6,16
9d005be0:	26100008 	addiu	s0,s0,8
9d005be4:	8e020000 	lw	v0,0(s0)
9d005be8:	ac620000 	sw	v0,0(v1)
9d005bec:	8e020004 	lw	v0,4(s0)
9d005bf0:	ac620004 	sw	v0,4(v1)
9d005bf4:	8e020008 	lw	v0,8(s0)
9d005bf8:	ac620008 	sw	v0,8(v1)
9d005bfc:	03d21023 	subu	v0,s8,s2
9d005c00:	02d21821 	addu	v1,s6,s2
9d005c04:	34420001 	ori	v0,v0,0x1
9d005c08:	aee30008 	sw	v1,8(s7)
9d005c0c:	ac620004 	sw	v0,4(v1)
9d005c10:	8ec30004 	lw	v1,4(s6)
9d005c14:	00e01021 	move	v0,a3
9d005c18:	30630001 	andi	v1,v1,0x1
9d005c1c:	02439025 	or	s2,s2,v1
9d005c20:	0b40165b 	j	9d00596c <realloc+0x1e8>
9d005c24:	aed20004 	sw	s2,4(s6)
9d005c28:	8e030008 	lw	v1,8(s0)
9d005c2c:	8e02000c 	lw	v0,12(s0)
9d005c30:	aec30008 	sw	v1,8(s6)
9d005c34:	aec2000c 	sw	v0,12(s6)
9d005c38:	24020024 	li	v0,36
9d005c3c:	50c20014 	beql	a2,v0,9d005c90 <realloc+0x50c>
9d005c40:	8e030010 	lw	v1,16(s0)
9d005c44:	26c20010 	addiu	v0,s6,16
9d005c48:	0b401693 	j	9d005a4c <realloc+0x2c8>
9d005c4c:	26030010 	addiu	v1,s0,16
9d005c50:	8ec3fffc 	lw	v1,-4(s6)
9d005c54:	0200a021 	move	s4,s0
9d005c58:	2402fffc 	li	v0,-4
9d005c5c:	00621024 	and	v0,v1,v0
9d005c60:	0b401650 	j	9d005940 <realloc+0x1bc>
9d005c64:	02228821 	addu	s1,s1,v0
9d005c68:	8e020008 	lw	v0,8(s0)
9d005c6c:	aec20010 	sw	v0,16(s6)
9d005c70:	8e02000c 	lw	v0,12(s0)
9d005c74:	aec20014 	sw	v0,20(s6)
9d005c78:	24020024 	li	v0,36
9d005c7c:	50c2000a 	beql	a2,v0,9d005ca8 <realloc+0x524>
9d005c80:	8e020010 	lw	v0,16(s0)
9d005c84:	26c30018 	addiu	v1,s6,24
9d005c88:	0b401630 	j	9d0058c0 <realloc+0x13c>
9d005c8c:	26100010 	addiu	s0,s0,16
9d005c90:	8e040014 	lw	a0,20(s0)
9d005c94:	26c20018 	addiu	v0,s6,24
9d005c98:	aec30010 	sw	v1,16(s6)
9d005c9c:	26030018 	addiu	v1,s0,24
9d005ca0:	0b401693 	j	9d005a4c <realloc+0x2c8>
9d005ca4:	aec40014 	sw	a0,20(s6)
9d005ca8:	26c30020 	addiu	v1,s6,32
9d005cac:	aec20018 	sw	v0,24(s6)
9d005cb0:	8e020014 	lw	v0,20(s0)
9d005cb4:	26100018 	addiu	s0,s0,24
9d005cb8:	0b401630 	j	9d0058c0 <realloc+0x13c>
9d005cbc:	aec2001c 	sw	v0,28(s6)
9d005cc0:	00e02021 	move	a0,a3
9d005cc4:	0f402f0c 	jal	9d00bc30 <memmove>
9d005cc8:	02002821 	move	a1,s0
9d005ccc:	0b4016ff 	j	9d005bfc <realloc+0x478>
9d005cd0:	00403821 	move	a3,v0
9d005cd4:	0b40165b 	j	9d00596c <realloc+0x1e8>
9d005cd8:	00001021 	move	v0,zero
9d005cdc:	8e020008 	lw	v0,8(s0)
9d005ce0:	aec20010 	sw	v0,16(s6)
9d005ce4:	8e02000c 	lw	v0,12(s0)
9d005ce8:	aec20014 	sw	v0,20(s6)
9d005cec:	24020024 	li	v0,36
9d005cf0:	50c20004 	beql	a2,v0,9d005d04 <realloc+0x580>
9d005cf4:	8e020010 	lw	v0,16(s0)
9d005cf8:	26c30018 	addiu	v1,s6,24
9d005cfc:	0b4016f9 	j	9d005be4 <realloc+0x460>
9d005d00:	26100010 	addiu	s0,s0,16
9d005d04:	26c30020 	addiu	v1,s6,32
9d005d08:	aec20018 	sw	v0,24(s6)
9d005d0c:	8e020014 	lw	v0,20(s0)
9d005d10:	26100018 	addiu	s0,s0,24
9d005d14:	0b4016f9 	j	9d005be4 <realloc+0x460>
9d005d18:	aec2001c 	sw	v0,28(s6)

Disassembly of section .text._fconvert:

9d005d1c <_fconvert>:
9d005d1c:	27bdfda8 	addiu	sp,sp,-600
9d005d20:	afbf0254 	sw	ra,596(sp)
9d005d24:	afbe0250 	sw	s8,592(sp)
9d005d28:	afb7024c 	sw	s7,588(sp)
9d005d2c:	afb60248 	sw	s6,584(sp)
9d005d30:	afb50244 	sw	s5,580(sp)
9d005d34:	afb40240 	sw	s4,576(sp)
9d005d38:	afb3023c 	sw	s3,572(sp)
9d005d3c:	afb20238 	sw	s2,568(sp)
9d005d40:	afb10234 	sw	s1,564(sp)
9d005d44:	afb00230 	sw	s0,560(sp)
9d005d48:	8fb50268 	lw	s5,616(sp)
9d005d4c:	afa40258 	sw	a0,600(sp)
9d005d50:	00a02021 	move	a0,a1
9d005d54:	afa60260 	sw	a2,608(sp)
9d005d58:	00e0b821 	move	s7,a3
9d005d5c:	97a3026c 	lhu	v1,620(sp)
9d005d60:	2402ffff 	li	v0,-1
9d005d64:	12a2010c 	beq	s5,v0,9d006198 <_fconvert+0x47c>
9d005d68:	afa30220 	sw	v1,544(sp)
9d005d6c:	2aa20028 	slti	v0,s5,40
9d005d70:	104000a3 	beqz	v0,9d006000 <_fconvert+0x2e4>
9d005d74:	afa00224 	sw	zero,548(sp)
9d005d78:	a3a00011 	sb	zero,17(sp)
9d005d7c:	04810005 	bgez	a0,9d005d94 <_fconvert+0x78>
9d005d80:	afa00228 	sw	zero,552(sp)
9d005d84:	3c028000 	lui	v0,0x8000
9d005d88:	00442026 	xor	a0,v0,a0
9d005d8c:	2403002d 	li	v1,45
9d005d90:	afa30228 	sw	v1,552(sp)
9d005d94:	0f402c0b 	jal	9d00b02c <.LFE0>
9d005d98:	27a5021c 	addiu	a1,sp,540
9d005d9c:	0040b021 	move	s6,v0
9d005da0:	8fbe021c 	lw	s8,540(sp)
9d005da4:	00002821 	move	a1,zero
9d005da8:	0f402d68 	jal	9d00b5a0 <__eqsf2>
9d005dac:	03c02021 	move	a0,s8
9d005db0:	10400119 	beqz	v0,9d006218 <_fconvert+0x4fc>
9d005db4:	3c029d01 	lui	v0,0x9d01
9d005db8:	3c109d01 	lui	s0,0x9d01
9d005dbc:	8e12bec4 	lw	s2,-16700(s0)
9d005dc0:	8c54bec8 	lw	s4,-16696(v0)
9d005dc4:	00008821 	move	s1,zero
9d005dc8:	27b00210 	addiu	s0,sp,528
9d005dcc:	02409821 	move	s3,s2
9d005dd0:	03c02021 	move	a0,s8
9d005dd4:	0f4026d2 	jal	9d009b48 <.LFE6>
9d005dd8:	02402821 	move	a1,s2
9d005ddc:	00402021 	move	a0,v0
9d005de0:	0f402c0b 	jal	9d00b02c <.LFE0>
9d005de4:	27a5021c 	addiu	a1,sp,540
9d005de8:	00402021 	move	a0,v0
9d005dec:	02802821 	move	a1,s4
9d005df0:	0f40259b 	jal	9d00966c <__addsf3>
9d005df4:	afa20218 	sw	v0,536(sp)
9d005df8:	00402021 	move	a0,v0
9d005dfc:	0f40275e 	jal	9d009d78 <__mulsf3>
9d005e00:	02602821 	move	a1,s3
9d005e04:	0f402dff 	jal	9d00b7fc <__fixsfsi>
9d005e08:	00402021 	move	a0,v0
9d005e0c:	8fbe021c 	lw	s8,540(sp)
9d005e10:	2610ffff 	addiu	s0,s0,-1
9d005e14:	24420030 	addiu	v0,v0,48
9d005e18:	03c02021 	move	a0,s8
9d005e1c:	00002821 	move	a1,zero
9d005e20:	a2020001 	sb	v0,1(s0)
9d005e24:	0f402d68 	jal	9d00b5a0 <__eqsf2>
9d005e28:	26310001 	addiu	s1,s1,1
9d005e2c:	1440ffe9 	bnez	v0,9d005dd4 <_fconvert+0xb8>
9d005e30:	03c02021 	move	a0,s8
9d005e34:	24020066 	li	v0,102
9d005e38:	8fa30260 	lw	v1,608(sp)
9d005e3c:	14620038 	bne	v1,v0,9d005f20 <_fconvert+0x204>
9d005e40:	00009821 	move	s3,zero
9d005e44:	12200077 	beqz	s1,9d006024 <_fconvert+0x308>
9d005e48:	24020030 	li	v0,48
9d005e4c:	26020001 	addiu	v0,s0,1
9d005e50:	27a50211 	addiu	a1,sp,529
9d005e54:	0045182b 	sltu	v1,v0,a1
9d005e58:	106000fd 	beqz	v1,9d006250 <_fconvert+0x534>
9d005e5c:	27b20012 	addiu	s2,sp,18
9d005e60:	02401821 	move	v1,s2
9d005e64:	80440000 	lb	a0,0(v0)
9d005e68:	24630001 	addiu	v1,v1,1
9d005e6c:	24420001 	addiu	v0,v0,1
9d005e70:	1445fffc 	bne	v0,a1,9d005e64 <_fconvert+0x148>
9d005e74:	a064ffff 	sb	a0,-1(v1)
9d005e78:	03b08023 	subu	s0,sp,s0
9d005e7c:	26100210 	addiu	s0,s0,528
9d005e80:	02508021 	addu	s0,s2,s0
9d005e84:	12a0006c 	beqz	s5,9d006038 <_fconvert+0x31c>
9d005e88:	8fa30220 	lw	v1,544(sp)
9d005e8c:	02c02021 	move	a0,s6
9d005e90:	00002821 	move	a1,zero
9d005e94:	26130001 	addiu	s3,s0,1
9d005e98:	2402002e 	li	v0,46
9d005e9c:	0f402d68 	jal	9d00b5a0 <__eqsf2>
9d005ea0:	a2020000 	sb	v0,0(s0)
9d005ea4:	104000b4 	beqz	v0,9d006178 <_fconvert+0x45c>
9d005ea8:	26a3ffff 	addiu	v1,s5,-1
9d005eac:	3c109d01 	lui	s0,0x9d01
9d005eb0:	0b4017b2 	j	9d005ec8 <_fconvert+0x1ac>
9d005eb4:	8e11bec4 	lw	s1,-16700(s0)
9d005eb8:	0f402d68 	jal	9d00b5a0 <__eqsf2>
9d005ebc:	00000000 	nop
9d005ec0:	104000ad 	beqz	v0,9d006178 <_fconvert+0x45c>
9d005ec4:	26a3ffff 	addiu	v1,s5,-1
9d005ec8:	02c02021 	move	a0,s6
9d005ecc:	0f40275e 	jal	9d009d78 <__mulsf3>
9d005ed0:	02202821 	move	a1,s1
9d005ed4:	00402021 	move	a0,v0
9d005ed8:	0f402c0b 	jal	9d00b02c <.LFE0>
9d005edc:	27a50218 	addiu	a1,sp,536
9d005ee0:	0040b021 	move	s6,v0
9d005ee4:	8fa40218 	lw	a0,536(sp)
9d005ee8:	26730001 	addiu	s3,s3,1
9d005eec:	0f402dff 	jal	9d00b7fc <__fixsfsi>
9d005ef0:	26b5ffff 	addiu	s5,s5,-1
9d005ef4:	02c02021 	move	a0,s6
9d005ef8:	00002821 	move	a1,zero
9d005efc:	24420030 	addiu	v0,v0,48
9d005f00:	16a0ffed 	bnez	s5,9d005eb8 <_fconvert+0x19c>
9d005f04:	a262ffff 	sb	v0,-1(s3)
9d005f08:	02c02021 	move	a0,s6
9d005f0c:	0f402d68 	jal	9d00b5a0 <__eqsf2>
9d005f10:	00002821 	move	a1,zero
9d005f14:	54400051 	bnezl	v0,9d00605c <_fconvert+0x340>
9d005f18:	8e05bec4 	lw	a1,-16700(s0)
9d005f1c:	02729823 	subu	s3,s3,s2
9d005f20:	83a40011 	lb	a0,17(sp)
9d005f24:	27a20011 	addiu	v0,sp,17
9d005f28:	27a30012 	addiu	v1,sp,18
9d005f2c:	0064100a 	movz	v0,v1,a0
9d005f30:	8fa30228 	lw	v1,552(sp)
9d005f34:	1060002a 	beqz	v1,9d005fe0 <_fconvert+0x2c4>
9d005f38:	8fa40220 	lw	a0,544(sp)
9d005f3c:	2452ffff 	addiu	s2,v0,-1
9d005f40:	a043ffff 	sb	v1,-1(v0)
9d005f44:	26730001 	addiu	s3,s3,1
9d005f48:	8fa30220 	lw	v1,544(sp)
9d005f4c:	30710008 	andi	s1,v1,0x8
9d005f50:	3231ffff 	andi	s1,s1,0xffff
9d005f54:	8fa30224 	lw	v1,548(sp)
9d005f58:	16200004 	bnez	s1,9d005f6c <_fconvert+0x250>
9d005f5c:	02638021 	addu	s0,s3,v1
9d005f60:	0217102a 	slt	v0,s0,s7
9d005f64:	1440005a 	bnez	v0,9d0060d0 <_fconvert+0x3b4>
9d005f68:	8fa30220 	lw	v1,544(sp)
9d005f6c:	02402021 	move	a0,s2
9d005f70:	02602821 	move	a1,s3
9d005f74:	0f402ef2 	jal	9d00bbc8 <__sputn>
9d005f78:	8fa60258 	lw	a2,600(sp)
9d005f7c:	2412ffff 	li	s2,-1
9d005f80:	10520008 	beq	v0,s2,9d005fa4 <_fconvert+0x288>
9d005f84:	8fa30224 	lw	v1,548(sp)
9d005f88:	14600071 	bnez	v1,9d006150 <_fconvert+0x434>
9d005f8c:	8fa40258 	lw	a0,600(sp)
9d005f90:	12200005 	beqz	s1,9d005fa8 <_fconvert+0x28c>
9d005f94:	0217102a 	slt	v0,s0,s7
9d005f98:	0217102a 	slt	v0,s0,s7
9d005f9c:	14400081 	bnez	v0,9d0061a4 <_fconvert+0x488>
9d005fa0:	8fa40258 	lw	a0,600(sp)
9d005fa4:	0217102a 	slt	v0,s0,s7
9d005fa8:	0202b80a 	movz	s7,s0,v0
9d005fac:	02e01021 	move	v0,s7
9d005fb0:	8fbf0254 	lw	ra,596(sp)
9d005fb4:	8fbe0250 	lw	s8,592(sp)
9d005fb8:	8fb7024c 	lw	s7,588(sp)
9d005fbc:	8fb60248 	lw	s6,584(sp)
9d005fc0:	8fb50244 	lw	s5,580(sp)
9d005fc4:	8fb40240 	lw	s4,576(sp)
9d005fc8:	8fb3023c 	lw	s3,572(sp)
9d005fcc:	8fb20238 	lw	s2,568(sp)
9d005fd0:	8fb10234 	lw	s1,564(sp)
9d005fd4:	8fb00230 	lw	s0,560(sp)
9d005fd8:	03e00008 	jr	ra
9d005fdc:	27bd0258 	addiu	sp,sp,600
9d005fe0:	30830002 	andi	v1,a0,0x2
9d005fe4:	10600052 	beqz	v1,9d006130 <_fconvert+0x414>
9d005fe8:	8fa40220 	lw	a0,544(sp)
9d005fec:	2452ffff 	addiu	s2,v0,-1
9d005ff0:	2403002b 	li	v1,43
9d005ff4:	a043ffff 	sb	v1,-1(v0)
9d005ff8:	0b4017d2 	j	9d005f48 <_fconvert+0x22c>
9d005ffc:	26730001 	addiu	s3,s3,1
9d006000:	2403ffdf 	li	v1,-33
9d006004:	00c31824 	and	v1,a2,v1
9d006008:	24020047 	li	v0,71
9d00600c:	1062007d 	beq	v1,v0,9d006204 <_fconvert+0x4e8>
9d006010:	8fa30220 	lw	v1,544(sp)
9d006014:	26b5ffd9 	addiu	s5,s5,-39
9d006018:	afb50224 	sw	s5,548(sp)
9d00601c:	0b40175e 	j	9d005d78 <_fconvert+0x5c>
9d006020:	24150027 	li	s5,39
9d006024:	a3a20012 	sb	v0,18(sp)
9d006028:	27b00013 	addiu	s0,sp,19
9d00602c:	16a0ff97 	bnez	s5,9d005e8c <_fconvert+0x170>
9d006030:	27b20012 	addiu	s2,sp,18
9d006034:	8fa30220 	lw	v1,544(sp)
9d006038:	30620800 	andi	v0,v1,0x800
9d00603c:	14400079 	bnez	v0,9d006224 <_fconvert+0x508>
9d006040:	02c02021 	move	a0,s6
9d006044:	0f402d68 	jal	9d00b5a0 <__eqsf2>
9d006048:	00002821 	move	a1,zero
9d00604c:	1040ffb3 	beqz	v0,9d005f1c <_fconvert+0x200>
9d006050:	02009821 	move	s3,s0
9d006054:	3c109d01 	lui	s0,0x9d01
9d006058:	8e05bec4 	lw	a1,-16700(s0)
9d00605c:	02c02021 	move	a0,s6
9d006060:	0f40275e 	jal	9d009d78 <__mulsf3>
9d006064:	2670ffff 	addiu	s0,s3,-1
9d006068:	00402021 	move	a0,v0
9d00606c:	0f402c0b 	jal	9d00b02c <.LFE0>
9d006070:	27a50214 	addiu	a1,sp,532
9d006074:	3c029d01 	lui	v0,0x9d01
9d006078:	8c44becc 	lw	a0,-16692(v0)
9d00607c:	0f402d68 	jal	9d00b5a0 <__eqsf2>
9d006080:	8fa50214 	lw	a1,532(sp)
9d006084:	2404002e 	li	a0,46
9d006088:	0440000b 	bltz	v0,9d0060b8 <_fconvert+0x39c>
9d00608c:	24050030 	li	a1,48
9d006090:	0b4017c8 	j	9d005f20 <_fconvert+0x204>
9d006094:	02729823 	subu	s3,s3,s2
9d006098:	24420001 	addiu	v0,v0,1
9d00609c:	7c021420 	seb	v0,v0
9d0060a0:	2843003a 	slti	v1,v0,58
9d0060a4:	54600068 	bnezl	v1,9d006248 <_fconvert+0x52c>
9d0060a8:	a2020000 	sb	v0,0(s0)
9d0060ac:	1212006a 	beq	s0,s2,9d006258 <_fconvert+0x53c>
9d0060b0:	a2050000 	sb	a1,0(s0)
9d0060b4:	2610ffff 	addiu	s0,s0,-1
9d0060b8:	82020000 	lb	v0,0(s0)
9d0060bc:	5444fff7 	bnel	v0,a0,9d00609c <_fconvert+0x380>
9d0060c0:	24420001 	addiu	v0,v0,1
9d0060c4:	8202ffff 	lb	v0,-1(s0)
9d0060c8:	0b401826 	j	9d006098 <_fconvert+0x37c>
9d0060cc:	2610ffff 	addiu	s0,s0,-1
9d0060d0:	30620004 	andi	v0,v1,0x4
9d0060d4:	8fa40258 	lw	a0,600(sp)
9d0060d8:	14400045 	bnez	v0,9d0061f0 <_fconvert+0x4d4>
9d0060dc:	02f02823 	subu	a1,s7,s0
9d0060e0:	3c069d01 	lui	a2,0x9d01
9d0060e4:	0f402d1a 	jal	9d00b468 <repl>
9d0060e8:	24c6bea4 	addiu	a2,a2,-16732
9d0060ec:	2403ffff 	li	v1,-1
9d0060f0:	1443ff9e 	bne	v0,v1,9d005f6c <_fconvert+0x250>
9d0060f4:	0217102a 	slt	v0,s0,s7
9d0060f8:	0202b80a 	movz	s7,s0,v0
9d0060fc:	02e01021 	move	v0,s7
9d006100:	8fbf0254 	lw	ra,596(sp)
9d006104:	8fbe0250 	lw	s8,592(sp)
9d006108:	8fb7024c 	lw	s7,588(sp)
9d00610c:	8fb60248 	lw	s6,584(sp)
9d006110:	8fb50244 	lw	s5,580(sp)
9d006114:	8fb40240 	lw	s4,576(sp)
9d006118:	8fb3023c 	lw	s3,572(sp)
9d00611c:	8fb20238 	lw	s2,568(sp)
9d006120:	8fb10234 	lw	s1,564(sp)
9d006124:	8fb00230 	lw	s0,560(sp)
9d006128:	03e00008 	jr	ra
9d00612c:	27bd0258 	addiu	sp,sp,600
9d006130:	30830001 	andi	v1,a0,0x1
9d006134:	1060ff84 	beqz	v1,9d005f48 <_fconvert+0x22c>
9d006138:	00409021 	move	s2,v0
9d00613c:	2452ffff 	addiu	s2,v0,-1
9d006140:	24030020 	li	v1,32
9d006144:	a043ffff 	sb	v1,-1(v0)
9d006148:	0b4017d2 	j	9d005f48 <_fconvert+0x22c>
9d00614c:	26730001 	addiu	s3,s3,1
9d006150:	8fa50224 	lw	a1,548(sp)
9d006154:	3c069d01 	lui	a2,0x9d01
9d006158:	0f402d1a 	jal	9d00b468 <repl>
9d00615c:	24c6be84 	addiu	a2,a2,-16764
9d006160:	1052ff91 	beq	v0,s2,9d005fa8 <_fconvert+0x28c>
9d006164:	0217102a 	slt	v0,s0,s7
9d006168:	5620ff8c 	bnezl	s1,9d005f9c <_fconvert+0x280>
9d00616c:	0217102a 	slt	v0,s0,s7
9d006170:	0b4017eb 	j	9d005fac <_fconvert+0x290>
9d006174:	0202b80a 	movz	s7,s0,v0
9d006178:	24630001 	addiu	v1,v1,1
9d00617c:	02631821 	addu	v1,s3,v1
9d006180:	24020030 	li	v0,48
9d006184:	26730001 	addiu	s3,s3,1
9d006188:	1663fffe 	bne	s3,v1,9d006184 <_fconvert+0x468>
9d00618c:	a262ffff 	sb	v0,-1(s3)
9d006190:	0b4017c8 	j	9d005f20 <_fconvert+0x204>
9d006194:	02729823 	subu	s3,s3,s2
9d006198:	afa00224 	sw	zero,548(sp)
9d00619c:	0b40175e 	j	9d005d78 <_fconvert+0x5c>
9d0061a0:	24150006 	li	s5,6
9d0061a4:	02f02823 	subu	a1,s7,s0
9d0061a8:	3c069d01 	lui	a2,0x9d01
9d0061ac:	0f402d1a 	jal	9d00b468 <repl>
9d0061b0:	24c6bea4 	addiu	a2,a2,-16732
9d0061b4:	0217102a 	slt	v0,s0,s7
9d0061b8:	0202b80a 	movz	s7,s0,v0
9d0061bc:	02e01021 	move	v0,s7
9d0061c0:	8fbf0254 	lw	ra,596(sp)
9d0061c4:	8fbe0250 	lw	s8,592(sp)
9d0061c8:	8fb7024c 	lw	s7,588(sp)
9d0061cc:	8fb60248 	lw	s6,584(sp)
9d0061d0:	8fb50244 	lw	s5,580(sp)
9d0061d4:	8fb40240 	lw	s4,576(sp)
9d0061d8:	8fb3023c 	lw	s3,572(sp)
9d0061dc:	8fb20238 	lw	s2,568(sp)
9d0061e0:	8fb10234 	lw	s1,564(sp)
9d0061e4:	8fb00230 	lw	s0,560(sp)
9d0061e8:	03e00008 	jr	ra
9d0061ec:	27bd0258 	addiu	sp,sp,600
9d0061f0:	3c069d01 	lui	a2,0x9d01
9d0061f4:	0f402d1a 	jal	9d00b468 <repl>
9d0061f8:	24c6be84 	addiu	a2,a2,-16764
9d0061fc:	0b40183c 	j	9d0060f0 <_fconvert+0x3d4>
9d006200:	2403ffff 	li	v1,-1
9d006204:	30620800 	andi	v0,v1,0x800
9d006208:	5440ff83 	bnezl	v0,9d006018 <_fconvert+0x2fc>
9d00620c:	26b5ffd9 	addiu	s5,s5,-39
9d006210:	0b40175e 	j	9d005d78 <_fconvert+0x5c>
9d006214:	24150027 	li	s5,39
9d006218:	00008821 	move	s1,zero
9d00621c:	0b40178d 	j	9d005e34 <_fconvert+0x118>
9d006220:	27b00210 	addiu	s0,sp,528
9d006224:	00002821 	move	a1,zero
9d006228:	26130001 	addiu	s3,s0,1
9d00622c:	2402002e 	li	v0,46
9d006230:	0f402d68 	jal	9d00b5a0 <__eqsf2>
9d006234:	a2020000 	sb	v0,0(s0)
9d006238:	5440ff87 	bnezl	v0,9d006058 <_fconvert+0x33c>
9d00623c:	3c109d01 	lui	s0,0x9d01
9d006240:	0b4017c8 	j	9d005f20 <_fconvert+0x204>
9d006244:	02729823 	subu	s3,s3,s2
9d006248:	0b4017c8 	j	9d005f20 <_fconvert+0x204>
9d00624c:	02729823 	subu	s3,s3,s2
9d006250:	0b4017a1 	j	9d005e84 <_fconvert+0x168>
9d006254:	02408021 	move	s0,s2
9d006258:	24020031 	li	v0,49
9d00625c:	a3a20011 	sb	v0,17(sp)
9d006260:	27b20011 	addiu	s2,sp,17
9d006264:	0b4017c8 	j	9d005f20 <_fconvert+0x204>
9d006268:	02729823 	subu	s3,s3,s2

Disassembly of section .text.dp32mul:

9d00626c <__divdf3>:
9d00626c:	00055040 000a5542 00054ac0 00047d42     @P..BU...J..B}..
9d00627c:	012f4825 000442c0 3c0e8000 012e4825     %H/..B.....<%H..
9d00628c:	00076840 000d6d42 000762c0 00067d42     @h..Bm...b..B}..
9d00629c:	018f6025 00065ac0 018e6025 00a72826     %`...Z..%`..&(..
9d0062ac:	00ae2824 254fffff 2de107fe 102000cb     $(....O%...-.. .
9d0062bc:	00000000                                ....

9d0062c0 <Dlab1>:
9d0062c0:	25afffff 	addiu	t7,t5,-1
9d0062c4:	2de107fe 	sltiu	at,t7,2046
9d0062c8:	102000f4 	beqz	at,9d00669c <DspecB>
9d0062cc:	00000000 	nop

9d0062d0 <Dlab2>:
9d0062d0:	014d5023 	subu	t2,t2,t5
9d0062d4:	254a03ff 	addiu	t2,t2,1023
9d0062d8:	00084042 	srl	t0,t0,0x1
9d0062dc:	00097fc0 	sll	t7,t1,0x1f
9d0062e0:	010f4025 	or	t0,t0,t7
9d0062e4:	00094842 	srl	t1,t1,0x1
9d0062e8:	000c3c02 	srl	a3,t4,0x10
9d0062ec:	00e001f4 	teq	a3,zero,0x7
9d0062f0:	0127001b 	divu	zero,t1,a3
9d0062f4:	00007012 	mflo	t6
9d0062f8:	00004810 	mfhi	t1
9d0062fc:	3186ffff 	andi	a2,t4,0xffff
9d006300:	00ce0019 	multu	a2,t6
9d006304:	00002012 	mflo	a0
9d006308:	00094c00 	sll	t1,t1,0x10
9d00630c:	00087c02 	srl	t7,t0,0x10
9d006310:	012f4825 	or	t1,t1,t7
9d006314:	0124782b 	sltu	t7,t1,a0
9d006318:	11e00006 	beqz	t7,9d006334 <i20>
9d00631c:	01244823 	subu	t1,t1,a0

9d006320 <b21>:
9d006320:	25ceffff 	addiu	t6,t6,-1
9d006324:	012c4821 	addu	t1,t1,t4
9d006328:	012c082b 	sltu	at,t1,t4
9d00632c:	1020fffc 	beqz	at,9d006320 <b21>
9d006330:	00000000 	nop

9d006334 <i20>:
9d006334:	00e001f4 	teq	a3,zero,0x7
9d006338:	0127001b 	divu	zero,t1,a3
9d00633c:	00003812 	mflo	a3
9d006340:	00004810 	mfhi	t1
9d006344:	00c70019 	multu	a2,a3
9d006348:	00002012 	mflo	a0
9d00634c:	00094c00 	sll	t1,t1,0x10
9d006350:	310fffff 	andi	t7,t0,0xffff
9d006354:	012f4825 	or	t1,t1,t7
9d006358:	0124782b 	sltu	t7,t1,a0
9d00635c:	11e00006 	beqz	t7,9d006378 <i22>
9d006360:	01244823 	subu	t1,t1,a0

9d006364 <b23>:
9d006364:	24e7ffff 	addiu	a3,a3,-1
9d006368:	012c4821 	addu	t1,t1,t4
9d00636c:	012c082b 	sltu	at,t1,t4
9d006370:	1020fffc 	beqz	at,9d006364 <b23>
9d006374:	00000000 	nop

9d006378 <i22>:
9d006378:	000e7400 	sll	t6,t6,0x10
9d00637c:	01c77021 	addu	t6,t6,a3
9d006380:	01cb0019 	multu	t6,t3
9d006384:	00003812 	mflo	a3
9d006388:	00002010 	mfhi	a0
9d00638c:	24080000 	li	t0,0
9d006390:	0107782b 	sltu	t7,t0,a3
9d006394:	01074023 	subu	t0,t0,a3
9d006398:	012f102b 	sltu	v0,t1,t7
9d00639c:	012f4823 	subu	t1,t1,t7
9d0063a0:	0124782b 	sltu	t7,t1,a0
9d0063a4:	01e27825 	or	t7,t7,v0
9d0063a8:	11e0000b 	beqz	t7,9d0063d8 <i24>
9d0063ac:	01244823 	subu	t1,t1,a0

9d0063b0 <Dlab3>:
9d0063b0:	25ceffff 	addiu	t6,t6,-1
9d0063b4:	010b4021 	addu	t0,t0,t3
9d0063b8:	010b782b 	sltu	t7,t0,t3
9d0063bc:	012c4821 	addu	t1,t1,t4
9d0063c0:	012f4821 	addu	t1,t1,t7
9d0063c4:	112c0002 	beq	t1,t4,9d0063d0 <L31>
9d0063c8:	00000000 	nop
9d0063cc:	012c782b 	sltu	t7,t1,t4

9d0063d0 <L31>:
9d0063d0:	11e0fff7 	beqz	t7,9d0063b0 <Dlab3>
9d0063d4:	00000000 	nop

9d0063d8 <i24>:
9d0063d8:	152c0006 	bne	t1,t4,9d0063f4 <i25>
9d0063dc:	00000000 	nop
9d0063e0:	000b2025 	or	a0,zero,t3
9d0063e4:	00084825 	or	t1,zero,t0
9d0063e8:	240d0000 	li	t5,0
9d0063ec:	1000002a 	b	9d006498 <e25>
9d0063f0:	000d3825 	or	a3,zero,t5

9d0063f4 <i25>:
9d0063f4:	000c3c02 	srl	a3,t4,0x10
9d0063f8:	00e001f4 	teq	a3,zero,0x7
9d0063fc:	0127001b 	divu	zero,t1,a3
9d006400:	00006812 	mflo	t5
9d006404:	00004810 	mfhi	t1
9d006408:	3186ffff 	andi	a2,t4,0xffff
9d00640c:	00cd0019 	multu	a2,t5
9d006410:	00002012 	mflo	a0
9d006414:	00094c00 	sll	t1,t1,0x10
9d006418:	00087c02 	srl	t7,t0,0x10
9d00641c:	012f4825 	or	t1,t1,t7
9d006420:	0124782b 	sltu	t7,t1,a0
9d006424:	11e00006 	beqz	t7,9d006440 <i26>
9d006428:	01244823 	subu	t1,t1,a0

9d00642c <b27>:
9d00642c:	25adffff 	addiu	t5,t5,-1
9d006430:	012c4821 	addu	t1,t1,t4
9d006434:	012c082b 	sltu	at,t1,t4
9d006438:	1020fffc 	beqz	at,9d00642c <b27>
9d00643c:	00000000 	nop

9d006440 <i26>:
9d006440:	00e001f4 	teq	a3,zero,0x7
9d006444:	0127001b 	divu	zero,t1,a3
9d006448:	00003812 	mflo	a3
9d00644c:	00004810 	mfhi	t1
9d006450:	00c70019 	multu	a2,a3
9d006454:	00002012 	mflo	a0
9d006458:	00094c00 	sll	t1,t1,0x10
9d00645c:	310fffff 	andi	t7,t0,0xffff
9d006460:	012f4825 	or	t1,t1,t7
9d006464:	0124782b 	sltu	t7,t1,a0
9d006468:	11e00006 	beqz	t7,9d006484 <i28>
9d00646c:	01244823 	subu	t1,t1,a0

9d006470 <b29>:
9d006470:	24e7ffff 	addiu	a3,a3,-1
9d006474:	012c4821 	addu	t1,t1,t4
9d006478:	012c082b 	sltu	at,t1,t4
9d00647c:	1020fffc 	beqz	at,9d006470 <b29>
9d006480:	00000000 	nop

9d006484 <i28>:
9d006484:	000d6c00 	sll	t5,t5,0x10
9d006488:	01a76821 	addu	t5,t5,a3
9d00648c:	01ab0019 	multu	t5,t3
9d006490:	00003812 	mflo	a3
9d006494:	00002010 	mfhi	a0

9d006498 <e25>:
9d006498:	24080000 	li	t0,0
9d00649c:	0107782b 	sltu	t7,t0,a3
9d0064a0:	01074023 	subu	t0,t0,a3
9d0064a4:	012f102b 	sltu	v0,t1,t7
9d0064a8:	012f4823 	subu	t1,t1,t7
9d0064ac:	0124782b 	sltu	t7,t1,a0
9d0064b0:	01e27825 	or	t7,t7,v0
9d0064b4:	11e0000b 	beqz	t7,9d0064e4 <i30>
9d0064b8:	01244823 	subu	t1,t1,a0

9d0064bc <Dlab4>:
9d0064bc:	25adffff 	addiu	t5,t5,-1
9d0064c0:	010b4021 	addu	t0,t0,t3
9d0064c4:	010b782b 	sltu	t7,t0,t3
9d0064c8:	012c4821 	addu	t1,t1,t4
9d0064cc:	012f4821 	addu	t1,t1,t7
9d0064d0:	112c0002 	beq	t1,t4,9d0064dc <L32>
9d0064d4:	00000000 	nop
9d0064d8:	012c782b 	sltu	t7,t1,t4

9d0064dc <L32>:
9d0064dc:	11e0fff7 	beqz	t7,9d0064bc <Dlab4>
9d0064e0:	00000000 	nop

9d0064e4 <i30>:
9d0064e4:	05c00006 	bltz	t6,9d006500 <i31>
9d0064e8:	00000000 	nop
9d0064ec:	01a0782a 	slt	t7,t5,zero
9d0064f0:	01ad6821 	addu	t5,t5,t5
9d0064f4:	01ce7021 	addu	t6,t6,t6
9d0064f8:	01cf7021 	addu	t6,t6,t7
9d0064fc:	254affff 	addiu	t2,t2,-1

9d006500 <i31>:
9d006500:	01287825 	or	t7,t1,t0
9d006504:	11e00002 	beqz	t7,9d006510 <i32>
9d006508:	00000000 	nop
9d00650c:	35ad0001 	ori	t5,t5,0x1

9d006510 <i32>:
9d006510:	000e4825 	or	t1,zero,t6
9d006514:	000d4025 	or	t0,zero,t5
9d006518:	254fffff 	addiu	t7,t2,-1
9d00651c:	2de107fe 	sltiu	at,t7,2046
9d006520:	10200015 	beqz	at,9d006578 <Doveund>
9d006524:	00000000 	nop
9d006528:	25080400 	addiu	t0,t0,1024
9d00652c:	2d0f0400 	sltiu	t7,t0,1024
9d006530:	012f4821 	addu	t1,t1,t7
9d006534:	012f782b 	sltu	t7,t1,t7
9d006538:	014f5021 	addu	t2,t2,t7

9d00653c <Dlab8>:
9d00653c:	00087ac2 	srl	t7,t0,0xb
9d006540:	31ef0001 	andi	t7,t7,0x1
9d006544:	010f4023 	subu	t0,t0,t7
9d006548:	000822c2 	srl	a0,t0,0xb
9d00654c:	00097d40 	sll	t7,t1,0x15
9d006550:	008f2025 	or	a0,a0,t7
9d006554:	00097840 	sll	t7,t1,0x1
9d006558:	000f7b02 	srl	t7,t7,0xc
9d00655c:	00af2825 	or	a1,a1,t7
9d006560:	000a7d00 	sll	t7,t2,0x14
9d006564:	00af2825 	or	a1,a1,t7

9d006568 <Dret>:
9d006568:	00041025 	or	v0,zero,a0
9d00656c:	00051825 	or	v1,zero,a1

9d006570 <D999>:
9d006570:	03e00008 	jr	ra
9d006574:	00000000 	nop

9d006578 <Doveund>:
9d006578:	1d400044 	bgtz	t2,9d00668c <Dinf>
9d00657c:	00000000 	nop
9d006580:	240e0001 	li	t6,1
9d006584:	01ca7023 	subu	t6,t6,t2

9d006588 <L33>:
9d006588:	2dc10020 	sltiu	at,t6,32
9d00658c:	14200007 	bnez	at,9d0065ac <L34>
9d006590:	00000000 	nop
9d006594:	21ceffe0 	addi	t6,t6,-32
9d006598:	0008202b 	sltu	a0,zero,t0
9d00659c:	1009000d 	beq	zero,t1,9d0065d4 <L35>
9d0065a0:	01244025 	or	t0,t1,a0
9d0065a4:	1000fff8 	b	9d006588 <L33>
9d0065a8:	34090000 	li	t1,0x0

9d0065ac <L34>:
9d0065ac:	11c00009 	beqz	t6,9d0065d4 <L35>
9d0065b0:	00000000 	nop
9d0065b4:	000e3022 	neg	a2,t6
9d0065b8:	00c82004 	sllv	a0,t0,a2
9d0065bc:	00c93004 	sllv	a2,t1,a2
9d0065c0:	01c84006 	srlv	t0,t0,t6
9d0065c4:	01c94806 	srlv	t1,t1,t6
9d0065c8:	10800002 	beqz	a0,9d0065d4 <L35>
9d0065cc:	00c84025 	or	t0,a2,t0
9d0065d0:	35080002 	ori	t0,t0,0x2

9d0065d4 <L35>:
9d0065d4:	25080400 	addiu	t0,t0,1024
9d0065d8:	2d0f0400 	sltiu	t7,t0,1024
9d0065dc:	012f4821 	addu	t1,t1,t7
9d0065e0:	1000ffd6 	b	9d00653c <Dlab8>
9d0065e4:	000957c2 	srl	t2,t1,0x1f

9d0065e8 <DspecA>:
9d0065e8:	0100782a 	slt	t7,t0,zero
9d0065ec:	01084021 	addu	t0,t0,t0
9d0065f0:	01294821 	addu	t1,t1,t1
9d0065f4:	15400017 	bnez	t2,9d006654 <i33>
9d0065f8:	012f4821 	addu	t1,t1,t7
9d0065fc:	01287825 	or	t7,t1,t0
9d006600:	11e00014 	beqz	t7,9d006654 <i33>
9d006604:	00000000 	nop
9d006608:	15200008 	bnez	t1,9d00662c <L36>
9d00660c:	00000000 	nop
9d006610:	15000003 	bnez	t0,9d006620 <L37>
9d006614:	00000000 	nop
9d006618:	1000ff29 	b	9d0062c0 <Dlab1>
9d00661c:	240a0000 	li	t2,0

9d006620 <L37>:
9d006620:	01004825 	move	t1,t0
9d006624:	24080000 	li	t0,0
9d006628:	254affe0 	addiu	t2,t2,-32

9d00662c <L36>:
9d00662c:	712e7020 	clz	t6,t1
9d006630:	11c0ff23 	beqz	t6,9d0062c0 <Dlab1>
9d006634:	00000000 	nop
9d006638:	014e5023 	subu	t2,t2,t6
9d00663c:	000e3022 	neg	a2,t6
9d006640:	00c83006 	srlv	a2,t0,a2
9d006644:	01c84004 	sllv	t0,t0,t6
9d006648:	01c94804 	sllv	t1,t1,t6
9d00664c:	1000ff1c 	b	9d0062c0 <Dlab1>
9d006650:	01264825 	or	t1,t1,a2

9d006654 <i33>:
9d006654:	154d0005 	bne	t2,t5,9d00666c <i35>
9d006658:	00000000 	nop
9d00665c:	000c7840 	sll	t7,t4,0x1
9d006660:	01eb7825 	or	t7,t7,t3
9d006664:	11e0002b 	beqz	t7,9d006714 <Dnan>
9d006668:	00000000 	nop

9d00666c <i35>:
9d00666c:	240107ff 	li	at,2047
9d006670:	11a1000a 	beq	t5,at,9d00669c <DspecB>
9d006674:	00000000 	nop
9d006678:	1140ffbb 	beqz	t2,9d006568 <Dret>
9d00667c:	00000000 	nop
9d006680:	01287825 	or	t7,t1,t0
9d006684:	15e00023 	bnez	t7,9d006714 <Dnan>
9d006688:	00000000 	nop

9d00668c <Dinf>:
9d00668c:	3c017ff0 	lui	at,0x7ff0
9d006690:	00a12825 	or	a1,a1,at
9d006694:	1000ffb4 	b	9d006568 <Dret>
9d006698:	24040000 	li	a0,0

9d00669c <DspecB>:
9d00669c:	0160782a 	slt	t7,t3,zero
9d0066a0:	016b5821 	addu	t3,t3,t3
9d0066a4:	018c6021 	addu	t4,t4,t4
9d0066a8:	15a00017 	bnez	t5,9d006708 <i36>
9d0066ac:	018f6021 	addu	t4,t4,t7
9d0066b0:	018b7825 	or	t7,t4,t3
9d0066b4:	11e0fff5 	beqz	t7,9d00668c <Dinf>
9d0066b8:	00000000 	nop
9d0066bc:	15800008 	bnez	t4,9d0066e0 <L39>
9d0066c0:	00000000 	nop
9d0066c4:	15600003 	bnez	t3,9d0066d4 <L40>
9d0066c8:	00000000 	nop
9d0066cc:	1000ff00 	b	9d0062d0 <Dlab2>
9d0066d0:	240d0000 	li	t5,0

9d0066d4 <L40>:
9d0066d4:	01606025 	move	t4,t3
9d0066d8:	240b0000 	li	t3,0
9d0066dc:	25adffe0 	addiu	t5,t5,-32

9d0066e0 <L39>:
9d0066e0:	718e7020 	clz	t6,t4
9d0066e4:	11c0fefa 	beqz	t6,9d0062d0 <Dlab2>
9d0066e8:	00000000 	nop
9d0066ec:	01ae6823 	subu	t5,t5,t6
9d0066f0:	000e3022 	neg	a2,t6
9d0066f4:	00cb3006 	srlv	a2,t3,a2
9d0066f8:	01cb5804 	sllv	t3,t3,t6
9d0066fc:	01cc6004 	sllv	t4,t4,t6
9d006700:	1000fef3 	b	9d0062d0 <Dlab2>
9d006704:	01866025 	or	t4,t4,a2

9d006708 <i36>:
9d006708:	018b7825 	or	t7,t4,t3
9d00670c:	11e00002 	beqz	t7,9d006718 <i38>
9d006710:	00000000 	nop

9d006714 <Dnan>:
9d006714:	3c05fff8 	lui	a1,0xfff8

9d006718 <i38>:
9d006718:	1000ff93 	b	9d006568 <Dret>
9d00671c:	24040000 	li	a0,0
9d006720:	00000000 	nop

Disassembly of section .text:

9d006724 <__divdi3>:
9d006724:	04a00052 	bltz	a1,9d006870 <__divdi3+0x14c>
9d006728:	00004821 	move	t1,zero
9d00672c:	04e20057 	bltzl	a3,9d00688c <__divdi3+0x168>
9d006730:	00063023 	negu	a2,a2
9d006734:	00c04021 	move	t0,a2
9d006738:	00805021 	move	t2,a0
9d00673c:	14e00046 	bnez	a3,9d006858 <__divdi3+0x134>
9d006740:	00a01821 	move	v1,a1
9d006744:	00a6102b 	sltu	v0,a1,a2
9d006748:	1040005d 	beqz	v0,9d0068c0 <__divdi3+0x19c>
9d00674c:	70c21020 	clz	v0,a2
9d006750:	50400008 	beqzl	v0,9d006774 <__divdi3+0x50>
9d006754:	00082c02 	srl	a1,t0,0x10
9d006758:	00022023 	negu	a0,v0
9d00675c:	008a2006 	srlv	a0,t2,a0
9d006760:	00451804 	sllv	v1,a1,v0
9d006764:	00464004 	sllv	t0,a2,v0
9d006768:	00831825 	or	v1,a0,v1
9d00676c:	004a5004 	sllv	t2,t2,v0
9d006770:	00082c02 	srl	a1,t0,0x10
9d006774:	0065001b 	divu	zero,v1,a1
9d006778:	00a001f4 	teq	a1,zero,0x7
9d00677c:	00006010 	mfhi	t4
9d006780:	00005812 	mflo	t3
9d006784:	3107ffff 	andi	a3,t0,0xffff
9d006788:	000a2402 	srl	a0,t2,0x10
9d00678c:	00001012 	mflo	v0
9d006790:	71673002 	mul	a2,t3,a3
9d006794:	000c6400 	sll	t4,t4,0x10
9d006798:	01842025 	or	a0,t4,a0
9d00679c:	0086602b 	sltu	t4,a0,a2
9d0067a0:	0065001b 	divu	zero,v1,a1
9d0067a4:	00a001f4 	teq	a1,zero,0x7
9d0067a8:	1180000b 	beqz	t4,9d0067d8 <__divdi3+0xb4>
9d0067ac:	00861823 	subu	v1,a0,a2
9d0067b0:	00882021 	addu	a0,a0,t0
9d0067b4:	0088182b 	sltu	v1,a0,t0
9d0067b8:	14600006 	bnez	v1,9d0067d4 <__divdi3+0xb0>
9d0067bc:	2562ffff 	addiu	v0,t3,-1
9d0067c0:	0086182b 	sltu	v1,a0,a2
9d0067c4:	10600004 	beqz	v1,9d0067d8 <__divdi3+0xb4>
9d0067c8:	00861823 	subu	v1,a0,a2
9d0067cc:	2562fffe 	addiu	v0,t3,-2
9d0067d0:	00882021 	addu	a0,a0,t0
9d0067d4:	00861823 	subu	v1,a0,a2
9d0067d8:	314affff 	andi	t2,t2,0xffff
9d0067dc:	0065001b 	divu	zero,v1,a1
9d0067e0:	00a001f4 	teq	a1,zero,0x7
9d0067e4:	00005810 	mfhi	t3
9d0067e8:	00003012 	mflo	a2
9d0067ec:	00002012 	mflo	a0
9d0067f0:	70c73802 	mul	a3,a2,a3
9d0067f4:	000b5c00 	sll	t3,t3,0x10
9d0067f8:	016a5025 	or	t2,t3,t2
9d0067fc:	0147582b 	sltu	t3,t2,a3
9d006800:	0065001b 	divu	zero,v1,a1
9d006804:	00a001f4 	teq	a1,zero,0x7
9d006808:	51600009 	beqzl	t3,9d006830 <__divdi3+0x10c>
9d00680c:	00021400 	sll	v0,v0,0x10
9d006810:	01485021 	addu	t2,t2,t0
9d006814:	0148402b 	sltu	t0,t2,t0
9d006818:	15000004 	bnez	t0,9d00682c <__divdi3+0x108>
9d00681c:	24c4ffff 	addiu	a0,a2,-1
9d006820:	0147382b 	sltu	a3,t2,a3
9d006824:	24c6fffe 	addiu	a2,a2,-2
9d006828:	00c7200b 	movn	a0,a2,a3
9d00682c:	00021400 	sll	v0,v0,0x10
9d006830:	00821025 	or	v0,a0,v0
9d006834:	00001821 	move	v1,zero
9d006838:	11200005 	beqz	t1,9d006850 <__divdi3+0x12c>
9d00683c:	00000000 	nop
9d006840:	00021023 	negu	v0,v0
9d006844:	0002202b 	sltu	a0,zero,v0
9d006848:	00031823 	negu	v1,v1
9d00684c:	00641823 	subu	v1,v1,a0
9d006850:	03e00008 	jr	ra
9d006854:	00000000 	nop
9d006858:	00a7102b 	sltu	v0,a1,a3
9d00685c:	10400010 	beqz	v0,9d0068a0 <__divdi3+0x17c>
9d006860:	70e84020 	clz	t0,a3
9d006864:	00001821 	move	v1,zero
9d006868:	0b401a0e 	j	9d006838 <__divdi3+0x114>
9d00686c:	00001021 	move	v0,zero
9d006870:	00042023 	negu	a0,a0
9d006874:	0004102b 	sltu	v0,zero,a0
9d006878:	00052823 	negu	a1,a1
9d00687c:	00a22823 	subu	a1,a1,v0
9d006880:	04e1ffac 	bgez	a3,9d006734 <__divdi3+0x10>
9d006884:	2409ffff 	li	t1,-1
9d006888:	00063023 	negu	a2,a2
9d00688c:	0006102b 	sltu	v0,zero,a2
9d006890:	00073823 	negu	a3,a3
9d006894:	00094827 	nor	t1,zero,t1
9d006898:	0b4019cd 	j	9d006734 <__divdi3+0x10>
9d00689c:	00e23823 	subu	a3,a3,v0
9d0068a0:	1500007e 	bnez	t0,9d006a9c <__divdi3+0x378>
9d0068a4:	24020020 	li	v0,32
9d0068a8:	00e5282b 	sltu	a1,a3,a1
9d0068ac:	14a000c6 	bnez	a1,9d006bc8 <__divdi3+0x4a4>
9d0068b0:	00001821 	move	v1,zero
9d0068b4:	0086102b 	sltu	v0,a0,a2
9d0068b8:	0b401a0e 	j	9d006838 <__divdi3+0x114>
9d0068bc:	38420001 	xori	v0,v0,0x1
9d0068c0:	14c00006 	bnez	a2,9d0068dc <__divdi3+0x1b8>
9d0068c4:	71021020 	clz	v0,t0
9d0068c8:	24080001 	li	t0,1
9d0068cc:	0107001b 	divu	zero,t0,a3
9d0068d0:	00e001f4 	teq	a3,zero,0x7
9d0068d4:	00004012 	mflo	t0
9d0068d8:	71021020 	clz	v0,t0
9d0068dc:	54400033 	bnezl	v0,9d0069ac <__divdi3+0x288>
9d0068e0:	00484004 	sllv	t0,t0,v0
9d0068e4:	00a82023 	subu	a0,a1,t0
9d0068e8:	00083c02 	srl	a3,t0,0x10
9d0068ec:	310cffff 	andi	t4,t0,0xffff
9d0068f0:	24030001 	li	v1,1
9d0068f4:	000a3402 	srl	a2,t2,0x10
9d0068f8:	0087001b 	divu	zero,a0,a3
9d0068fc:	00e001f4 	teq	a3,zero,0x7
9d006900:	00007010 	mfhi	t6
9d006904:	00006812 	mflo	t5
9d006908:	00001012 	mflo	v0
9d00690c:	71ac5802 	mul	t3,t5,t4
9d006910:	000e7400 	sll	t6,t6,0x10
9d006914:	01c63025 	or	a2,t6,a2
9d006918:	00cb702b 	sltu	t6,a2,t3
9d00691c:	0087001b 	divu	zero,a0,a3
9d006920:	00e001f4 	teq	a3,zero,0x7
9d006924:	11c00009 	beqz	t6,9d00694c <__divdi3+0x228>
9d006928:	00cb2823 	subu	a1,a2,t3
9d00692c:	00c83021 	addu	a2,a2,t0
9d006930:	00c8202b 	sltu	a0,a2,t0
9d006934:	14800004 	bnez	a0,9d006948 <__divdi3+0x224>
9d006938:	25a2ffff 	addiu	v0,t5,-1
9d00693c:	00cb202b 	sltu	a0,a2,t3
9d006940:	548000a3 	bnezl	a0,9d006bd0 <__divdi3+0x4ac>
9d006944:	25a2fffe 	addiu	v0,t5,-2
9d006948:	00cb2823 	subu	a1,a2,t3
9d00694c:	314affff 	andi	t2,t2,0xffff
9d006950:	00a7001b 	divu	zero,a1,a3
9d006954:	00e001f4 	teq	a3,zero,0x7
9d006958:	00005810 	mfhi	t3
9d00695c:	00003012 	mflo	a2
9d006960:	00002012 	mflo	a0
9d006964:	70cc6002 	mul	t4,a2,t4
9d006968:	000b5c00 	sll	t3,t3,0x10
9d00696c:	016a5025 	or	t2,t3,t2
9d006970:	014c582b 	sltu	t3,t2,t4
9d006974:	00a7001b 	divu	zero,a1,a3
9d006978:	00e001f4 	teq	a3,zero,0x7
9d00697c:	51600009 	beqzl	t3,9d0069a4 <__divdi3+0x280>
9d006980:	00021400 	sll	v0,v0,0x10
9d006984:	01485021 	addu	t2,t2,t0
9d006988:	0148402b 	sltu	t0,t2,t0
9d00698c:	15000004 	bnez	t0,9d0069a0 <__divdi3+0x27c>
9d006990:	24c4ffff 	addiu	a0,a2,-1
9d006994:	014c502b 	sltu	t2,t2,t4
9d006998:	24c6fffe 	addiu	a2,a2,-2
9d00699c:	00ca200b 	movn	a0,a2,t2
9d0069a0:	00021400 	sll	v0,v0,0x10
9d0069a4:	0b401a0e 	j	9d006838 <__divdi3+0x114>
9d0069a8:	00821025 	or	v0,a0,v0
9d0069ac:	24030020 	li	v1,32
9d0069b0:	00621823 	subu	v1,v1,v0
9d0069b4:	00653006 	srlv	a2,a1,v1
9d0069b8:	00083c02 	srl	a3,t0,0x10
9d0069bc:	00c7001b 	divu	zero,a2,a3
9d0069c0:	00e001f4 	teq	a3,zero,0x7
9d0069c4:	00007810 	mfhi	t7
9d0069c8:	00006812 	mflo	t5
9d0069cc:	310cffff 	andi	t4,t0,0xffff
9d0069d0:	00452804 	sllv	a1,a1,v0
9d0069d4:	00641806 	srlv	v1,a0,v1
9d0069d8:	00652825 	or	a1,v1,a1
9d0069dc:	00057402 	srl	t6,a1,0x10
9d0069e0:	00445004 	sllv	t2,a0,v0
9d0069e4:	00001812 	mflo	v1
9d0069e8:	71ac5802 	mul	t3,t5,t4
9d0069ec:	000f1400 	sll	v0,t7,0x10
9d0069f0:	01c21025 	or	v0,t6,v0
9d0069f4:	004b202b 	sltu	a0,v0,t3
9d0069f8:	00c7001b 	divu	zero,a2,a3
9d0069fc:	00e001f4 	teq	a3,zero,0x7
9d006a00:	5080000b 	beqzl	a0,9d006a30 <__divdi3+0x30c>
9d006a04:	004b1023 	subu	v0,v0,t3
9d006a08:	00481021 	addu	v0,v0,t0
9d006a0c:	0048202b 	sltu	a0,v0,t0
9d006a10:	14800006 	bnez	a0,9d006a2c <__divdi3+0x308>
9d006a14:	25a3ffff 	addiu	v1,t5,-1
9d006a18:	004b202b 	sltu	a0,v0,t3
9d006a1c:	50800004 	beqzl	a0,9d006a30 <__divdi3+0x30c>
9d006a20:	004b1023 	subu	v0,v0,t3
9d006a24:	25a3fffe 	addiu	v1,t5,-2
9d006a28:	00481021 	addu	v0,v0,t0
9d006a2c:	004b1023 	subu	v0,v0,t3
9d006a30:	30adffff 	andi	t5,a1,0xffff
9d006a34:	0047001b 	divu	zero,v0,a3
9d006a38:	00e001f4 	teq	a3,zero,0x7
9d006a3c:	00002010 	mfhi	a0
9d006a40:	00005812 	mflo	t3
9d006a44:	00003012 	mflo	a2
9d006a48:	716c2802 	mul	a1,t3,t4
9d006a4c:	00042400 	sll	a0,a0,0x10
9d006a50:	008d2025 	or	a0,a0,t5
9d006a54:	0085682b 	sltu	t5,a0,a1
9d006a58:	0047001b 	divu	zero,v0,a3
9d006a5c:	00e001f4 	teq	a3,zero,0x7
9d006a60:	51a0000b 	beqzl	t5,9d006a90 <__divdi3+0x36c>
9d006a64:	00031c00 	sll	v1,v1,0x10
9d006a68:	00882021 	addu	a0,a0,t0
9d006a6c:	0088102b 	sltu	v0,a0,t0
9d006a70:	14400006 	bnez	v0,9d006a8c <__divdi3+0x368>
9d006a74:	2566ffff 	addiu	a2,t3,-1
9d006a78:	0085102b 	sltu	v0,a0,a1
9d006a7c:	50400004 	beqzl	v0,9d006a90 <__divdi3+0x36c>
9d006a80:	00031c00 	sll	v1,v1,0x10
9d006a84:	2566fffe 	addiu	a2,t3,-2
9d006a88:	00882021 	addu	a0,a0,t0
9d006a8c:	00031c00 	sll	v1,v1,0x10
9d006a90:	00852023 	subu	a0,a0,a1
9d006a94:	0b401a3d 	j	9d0068f4 <__divdi3+0x1d0>
9d006a98:	00c31825 	or	v1,a2,v1
9d006a9c:	00481023 	subu	v0,v0,t0
9d006aa0:	01073804 	sllv	a3,a3,t0
9d006aa4:	00461806 	srlv	v1,a2,v0
9d006aa8:	00673825 	or	a3,v1,a3
9d006aac:	00455806 	srlv	t3,a1,v0
9d006ab0:	00071c02 	srl	v1,a3,0x10
9d006ab4:	0163001b 	divu	zero,t3,v1
9d006ab8:	006001f4 	teq	v1,zero,0x7
9d006abc:	00005010 	mfhi	t2
9d006ac0:	00007012 	mflo	t6
9d006ac4:	30ecffff 	andi	t4,a3,0xffff
9d006ac8:	01052804 	sllv	a1,a1,t0
9d006acc:	00441006 	srlv	v0,a0,v0
9d006ad0:	00452825 	or	a1,v0,a1
9d006ad4:	00057c02 	srl	t7,a1,0x10
9d006ad8:	00001012 	mflo	v0
9d006adc:	71cc6802 	mul	t5,t6,t4
9d006ae0:	000a5400 	sll	t2,t2,0x10
9d006ae4:	014f5025 	or	t2,t2,t7
9d006ae8:	014d782b 	sltu	t7,t2,t5
9d006aec:	0163001b 	divu	zero,t3,v1
9d006af0:	006001f4 	teq	v1,zero,0x7
9d006af4:	11e0000a 	beqz	t7,9d006b20 <__divdi3+0x3fc>
9d006af8:	01063004 	sllv	a2,a2,t0
9d006afc:	01475021 	addu	t2,t2,a3
9d006b00:	0147582b 	sltu	t3,t2,a3
9d006b04:	15600006 	bnez	t3,9d006b20 <__divdi3+0x3fc>
9d006b08:	25c2ffff 	addiu	v0,t6,-1
9d006b0c:	014d582b 	sltu	t3,t2,t5
9d006b10:	51600004 	beqzl	t3,9d006b24 <__divdi3+0x400>
9d006b14:	014d5023 	subu	t2,t2,t5
9d006b18:	25c2fffe 	addiu	v0,t6,-2
9d006b1c:	01475021 	addu	t2,t2,a3
9d006b20:	014d5023 	subu	t2,t2,t5
9d006b24:	30a5ffff 	andi	a1,a1,0xffff
9d006b28:	0143001b 	divu	zero,t2,v1
9d006b2c:	006001f4 	teq	v1,zero,0x7
9d006b30:	00007010 	mfhi	t6
9d006b34:	00006812 	mflo	t5
9d006b38:	00005812 	mflo	t3
9d006b3c:	71ac6002 	mul	t4,t5,t4
9d006b40:	000e7400 	sll	t6,t6,0x10
9d006b44:	01c52825 	or	a1,t6,a1
9d006b48:	00ac702b 	sltu	t6,a1,t4
9d006b4c:	0143001b 	divu	zero,t2,v1
9d006b50:	006001f4 	teq	v1,zero,0x7
9d006b54:	51c0000b 	beqzl	t6,9d006b84 <__divdi3+0x460>
9d006b58:	00021400 	sll	v0,v0,0x10
9d006b5c:	00a72821 	addu	a1,a1,a3
9d006b60:	00a7182b 	sltu	v1,a1,a3
9d006b64:	14600006 	bnez	v1,9d006b80 <__divdi3+0x45c>
9d006b68:	25abffff 	addiu	t3,t5,-1
9d006b6c:	00ac182b 	sltu	v1,a1,t4
9d006b70:	50600004 	beqzl	v1,9d006b84 <__divdi3+0x460>
9d006b74:	00021400 	sll	v0,v0,0x10
9d006b78:	25abfffe 	addiu	t3,t5,-2
9d006b7c:	00a72821 	addu	a1,a1,a3
9d006b80:	00021400 	sll	v0,v0,0x10
9d006b84:	01621025 	or	v0,t3,v0
9d006b88:	00ac2823 	subu	a1,a1,t4
9d006b8c:	00460019 	multu	v0,a2
9d006b90:	00003810 	mfhi	a3
9d006b94:	00a7182b 	sltu	v1,a1,a3
9d006b98:	14600008 	bnez	v1,9d006bbc <__divdi3+0x498>
9d006b9c:	00003012 	mflo	a2
9d006ba0:	50a70003 	beql	a1,a3,9d006bb0 <__divdi3+0x48c>
9d006ba4:	01042004 	sllv	a0,a0,t0
9d006ba8:	0b401a0e 	j	9d006838 <__divdi3+0x114>
9d006bac:	00001821 	move	v1,zero
9d006bb0:	0086302b 	sltu	a2,a0,a2
9d006bb4:	50c0ff20 	beqzl	a2,9d006838 <__divdi3+0x114>
9d006bb8:	00001821 	move	v1,zero
9d006bbc:	2442ffff 	addiu	v0,v0,-1
9d006bc0:	0b401a0e 	j	9d006838 <__divdi3+0x114>
9d006bc4:	00001821 	move	v1,zero
9d006bc8:	0b401a0e 	j	9d006838 <__divdi3+0x114>
9d006bcc:	24020001 	li	v0,1
9d006bd0:	0b401a52 	j	9d006948 <__divdi3+0x224>
9d006bd4:	00c83021 	addu	a2,a2,t0

9d006bd8 <__umoddi3>:
9d006bd8:	00c04021 	move	t0,a2
9d006bdc:	00804821 	move	t1,a0
9d006be0:	14e0003b 	bnez	a3,9d006cd0 <__umoddi3+0xf8>
9d006be4:	00a01821 	move	v1,a1
9d006be8:	00a6102b 	sltu	v0,a1,a2
9d006bec:	10400048 	beqz	v0,9d006d10 <__umoddi3+0x138>
9d006bf0:	70c21020 	clz	v0,a2
9d006bf4:	50400008 	beqzl	v0,9d006c18 <__umoddi3+0x40>
9d006bf8:	00083402 	srl	a2,t0,0x10
9d006bfc:	00021823 	negu	v1,v0
9d006c00:	00452804 	sllv	a1,a1,v0
9d006c04:	00641806 	srlv	v1,a0,v1
9d006c08:	00464004 	sllv	t0,a2,v0
9d006c0c:	00651825 	or	v1,v1,a1
9d006c10:	00444804 	sllv	t1,a0,v0
9d006c14:	00083402 	srl	a2,t0,0x10
9d006c18:	0066001b 	divu	zero,v1,a2
9d006c1c:	00c001f4 	teq	a2,zero,0x7
9d006c20:	00002010 	mfhi	a0
9d006c24:	00005812 	mflo	t3
9d006c28:	310cffff 	andi	t4,t0,0xffff
9d006c2c:	00095402 	srl	t2,t1,0x10
9d006c30:	716c5802 	mul	t3,t3,t4
9d006c34:	00042400 	sll	a0,a0,0x10
9d006c38:	008a5025 	or	t2,a0,t2
9d006c3c:	014b682b 	sltu	t5,t2,t3
9d006c40:	0066001b 	divu	zero,v1,a2
9d006c44:	00c001f4 	teq	a2,zero,0x7
9d006c48:	51a00009 	beqzl	t5,9d006c70 <__umoddi3+0x98>
9d006c4c:	014b5023 	subu	t2,t2,t3
9d006c50:	01485021 	addu	t2,t2,t0
9d006c54:	0148182b 	sltu	v1,t2,t0
9d006c58:	54600005 	bnezl	v1,9d006c70 <__umoddi3+0x98>
9d006c5c:	014b5023 	subu	t2,t2,t3
9d006c60:	014b202b 	sltu	a0,t2,t3
9d006c64:	01481821 	addu	v1,t2,t0
9d006c68:	0064500b 	movn	t2,v1,a0
9d006c6c:	014b5023 	subu	t2,t2,t3
9d006c70:	3123ffff 	andi	v1,t1,0xffff
9d006c74:	0146001b 	divu	zero,t2,a2
9d006c78:	00c001f4 	teq	a2,zero,0x7
9d006c7c:	00004810 	mfhi	t1
9d006c80:	00002012 	mflo	a0
9d006c84:	708c2002 	mul	a0,a0,t4
9d006c88:	00094c00 	sll	t1,t1,0x10
9d006c8c:	01234825 	or	t1,t1,v1
9d006c90:	0124182b 	sltu	v1,t1,a0
9d006c94:	0146001b 	divu	zero,t2,a2
9d006c98:	00c001f4 	teq	a2,zero,0x7
9d006c9c:	50600009 	beqzl	v1,9d006cc4 <__umoddi3+0xec>
9d006ca0:	01244823 	subu	t1,t1,a0
9d006ca4:	01284821 	addu	t1,t1,t0
9d006ca8:	0128182b 	sltu	v1,t1,t0
9d006cac:	54600005 	bnezl	v1,9d006cc4 <__umoddi3+0xec>
9d006cb0:	01244823 	subu	t1,t1,a0
9d006cb4:	0124182b 	sltu	v1,t1,a0
9d006cb8:	01284021 	addu	t0,t1,t0
9d006cbc:	0103480b 	movn	t1,t0,v1
9d006cc0:	01244823 	subu	t1,t1,a0
9d006cc4:	00491006 	srlv	v0,t1,v0
9d006cc8:	03e00008 	jr	ra
9d006ccc:	00001821 	move	v1,zero
9d006cd0:	00a7102b 	sltu	v0,a1,a3
9d006cd4:	14400047 	bnez	v0,9d006df4 <__umoddi3+0x21c>
9d006cd8:	70ea5020 	clz	t2,a3
9d006cdc:	15400048 	bnez	t2,9d006e00 <__umoddi3+0x228>
9d006ce0:	240b0020 	li	t3,32
9d006ce4:	00e5102b 	sltu	v0,a3,a1
9d006ce8:	14400005 	bnez	v0,9d006d00 <__umoddi3+0x128>
9d006cec:	00861023 	subu	v0,a0,a2
9d006cf0:	0086402b 	sltu	t0,a0,a2
9d006cf4:	15000089 	bnez	t0,9d006f1c <__umoddi3+0x344>
9d006cf8:	00801021 	move	v0,a0
9d006cfc:	00861023 	subu	v0,a0,a2
9d006d00:	00a72823 	subu	a1,a1,a3
9d006d04:	0082202b 	sltu	a0,a0,v0
9d006d08:	03e00008 	jr	ra
9d006d0c:	00a41823 	subu	v1,a1,a0
9d006d10:	14c00006 	bnez	a2,9d006d2c <__umoddi3+0x154>
9d006d14:	71021020 	clz	v0,t0
9d006d18:	24020001 	li	v0,1
9d006d1c:	0046001b 	divu	zero,v0,a2
9d006d20:	00c001f4 	teq	a2,zero,0x7
9d006d24:	00004012 	mflo	t0
9d006d28:	71021020 	clz	v0,t0
9d006d2c:	5440007d 	bnezl	v0,9d006f24 <__umoddi3+0x34c>
9d006d30:	00484004 	sllv	t0,t0,v0
9d006d34:	00a82823 	subu	a1,a1,t0
9d006d38:	00081c02 	srl	v1,t0,0x10
9d006d3c:	3107ffff 	andi	a3,t0,0xffff
9d006d40:	00092402 	srl	a0,t1,0x10
9d006d44:	00a3001b 	divu	zero,a1,v1
9d006d48:	006001f4 	teq	v1,zero,0x7
9d006d4c:	00005010 	mfhi	t2
9d006d50:	00003012 	mflo	a2
9d006d54:	70c73002 	mul	a2,a2,a3
9d006d58:	000a5400 	sll	t2,t2,0x10
9d006d5c:	01442025 	or	a0,t2,a0
9d006d60:	0086502b 	sltu	t2,a0,a2
9d006d64:	00a3001b 	divu	zero,a1,v1
9d006d68:	006001f4 	teq	v1,zero,0x7
9d006d6c:	51400009 	beqzl	t2,9d006d94 <__umoddi3+0x1bc>
9d006d70:	00862023 	subu	a0,a0,a2
9d006d74:	00882021 	addu	a0,a0,t0
9d006d78:	0088282b 	sltu	a1,a0,t0
9d006d7c:	54a00005 	bnezl	a1,9d006d94 <__umoddi3+0x1bc>
9d006d80:	00862023 	subu	a0,a0,a2
9d006d84:	0086502b 	sltu	t2,a0,a2
9d006d88:	00882821 	addu	a1,a0,t0
9d006d8c:	00aa200b 	movn	a0,a1,t2
9d006d90:	00862023 	subu	a0,a0,a2
9d006d94:	3126ffff 	andi	a2,t1,0xffff
9d006d98:	0083001b 	divu	zero,a0,v1
9d006d9c:	006001f4 	teq	v1,zero,0x7
9d006da0:	00004810 	mfhi	t1
9d006da4:	00002812 	mflo	a1
9d006da8:	70a72802 	mul	a1,a1,a3
9d006dac:	00094c00 	sll	t1,t1,0x10
9d006db0:	01264825 	or	t1,t1,a2
9d006db4:	0125302b 	sltu	a2,t1,a1
9d006db8:	0083001b 	divu	zero,a0,v1
9d006dbc:	006001f4 	teq	v1,zero,0x7
9d006dc0:	50c00009 	beqzl	a2,9d006de8 <__umoddi3+0x210>
9d006dc4:	01254823 	subu	t1,t1,a1
9d006dc8:	01284821 	addu	t1,t1,t0
9d006dcc:	0128182b 	sltu	v1,t1,t0
9d006dd0:	54600005 	bnezl	v1,9d006de8 <__umoddi3+0x210>
9d006dd4:	01254823 	subu	t1,t1,a1
9d006dd8:	0125182b 	sltu	v1,t1,a1
9d006ddc:	01284021 	addu	t0,t1,t0
9d006de0:	0103480b 	movn	t1,t0,v1
9d006de4:	01254823 	subu	t1,t1,a1
9d006de8:	00491006 	srlv	v0,t1,v0
9d006dec:	03e00008 	jr	ra
9d006df0:	00001821 	move	v1,zero
9d006df4:	00801021 	move	v0,a0
9d006df8:	03e00008 	jr	ra
9d006dfc:	00a01821 	move	v1,a1
9d006e00:	016a5823 	subu	t3,t3,t2
9d006e04:	01473804 	sllv	a3,a3,t2
9d006e08:	01661006 	srlv	v0,a2,t3
9d006e0c:	00473825 	or	a3,v0,a3
9d006e10:	01656806 	srlv	t5,a1,t3
9d006e14:	00074c02 	srl	t1,a3,0x10
9d006e18:	01a9001b 	divu	zero,t5,t1
9d006e1c:	012001f4 	teq	t1,zero,0x7
9d006e20:	00006010 	mfhi	t4
9d006e24:	00001812 	mflo	v1
9d006e28:	30eeffff 	andi	t6,a3,0xffff
9d006e2c:	01452804 	sllv	a1,a1,t2
9d006e30:	01641006 	srlv	v0,a0,t3
9d006e34:	00451025 	or	v0,v0,a1
9d006e38:	00022c02 	srl	a1,v0,0x10
9d006e3c:	01463004 	sllv	a2,a2,t2
9d006e40:	00004012 	mflo	t0
9d006e44:	706e7802 	mul	t7,v1,t6
9d006e48:	000c6400 	sll	t4,t4,0x10
9d006e4c:	01856025 	or	t4,t4,a1
9d006e50:	018f282b 	sltu	a1,t4,t7
9d006e54:	01a9001b 	divu	zero,t5,t1
9d006e58:	012001f4 	teq	t1,zero,0x7
9d006e5c:	10a0000a 	beqz	a1,9d006e88 <__umoddi3+0x2b0>
9d006e60:	01442004 	sllv	a0,a0,t2
9d006e64:	01876021 	addu	t4,t4,a3
9d006e68:	0187282b 	sltu	a1,t4,a3
9d006e6c:	14a00006 	bnez	a1,9d006e88 <__umoddi3+0x2b0>
9d006e70:	2468ffff 	addiu	t0,v1,-1
9d006e74:	018f282b 	sltu	a1,t4,t7
9d006e78:	50a00004 	beqzl	a1,9d006e8c <__umoddi3+0x2b4>
9d006e7c:	018f6023 	subu	t4,t4,t7
9d006e80:	2468fffe 	addiu	t0,v1,-2
9d006e84:	01876021 	addu	t4,t4,a3
9d006e88:	018f6023 	subu	t4,t4,t7
9d006e8c:	3042ffff 	andi	v0,v0,0xffff
9d006e90:	0189001b 	divu	zero,t4,t1
9d006e94:	012001f4 	teq	t1,zero,0x7
9d006e98:	00002810 	mfhi	a1
9d006e9c:	00001812 	mflo	v1
9d006ea0:	00006812 	mflo	t5
9d006ea4:	706e7002 	mul	t6,v1,t6
9d006ea8:	00052c00 	sll	a1,a1,0x10
9d006eac:	00a21025 	or	v0,a1,v0
9d006eb0:	004e282b 	sltu	a1,v0,t6
9d006eb4:	0189001b 	divu	zero,t4,t1
9d006eb8:	012001f4 	teq	t1,zero,0x7
9d006ebc:	50a00006 	beqzl	a1,9d006ed8 <__umoddi3+0x300>
9d006ec0:	00084400 	sll	t0,t0,0x10
9d006ec4:	00471021 	addu	v0,v0,a3
9d006ec8:	0047282b 	sltu	a1,v0,a3
9d006ecc:	10a0004c 	beqz	a1,9d007000 <__umoddi3+0x428>
9d006ed0:	246dffff 	addiu	t5,v1,-1
9d006ed4:	00084400 	sll	t0,t0,0x10
9d006ed8:	01a84025 	or	t0,t5,t0
9d006edc:	004e1023 	subu	v0,v0,t6
9d006ee0:	01060019 	multu	t0,a2
9d006ee4:	00004810 	mfhi	t1
9d006ee8:	0049182b 	sltu	v1,v0,t1
9d006eec:	1460003e 	bnez	v1,9d006fe8 <__umoddi3+0x410>
9d006ef0:	00004012 	mflo	t0
9d006ef4:	1049004b 	beq	v0,t1,9d007024 <__umoddi3+0x44c>
9d006ef8:	00491823 	subu	v1,v0,t1
9d006efc:	00003012 	mflo	a2
9d006f00:	00863023 	subu	a2,a0,a2
9d006f04:	0086202b 	sltu	a0,a0,a2
9d006f08:	00641823 	subu	v1,v1,a0
9d006f0c:	01631004 	sllv	v0,v1,t3
9d006f10:	01463006 	srlv	a2,a2,t2
9d006f14:	00461025 	or	v0,v0,a2
9d006f18:	01431806 	srlv	v1,v1,t2
9d006f1c:	03e00008 	jr	ra
9d006f20:	00000000 	nop
9d006f24:	24090020 	li	t1,32
9d006f28:	01224823 	subu	t1,t1,v0
9d006f2c:	01255006 	srlv	t2,a1,t1
9d006f30:	00081c02 	srl	v1,t0,0x10
9d006f34:	0143001b 	divu	zero,t2,v1
9d006f38:	006001f4 	teq	v1,zero,0x7
9d006f3c:	00003010 	mfhi	a2
9d006f40:	00005812 	mflo	t3
9d006f44:	3107ffff 	andi	a3,t0,0xffff
9d006f48:	00452804 	sllv	a1,a1,v0
9d006f4c:	01244806 	srlv	t1,a0,t1
9d006f50:	01252825 	or	a1,t1,a1
9d006f54:	00056402 	srl	t4,a1,0x10
9d006f58:	00444804 	sllv	t1,a0,v0
9d006f5c:	71675802 	mul	t3,t3,a3
9d006f60:	00063400 	sll	a2,a2,0x10
9d006f64:	01863025 	or	a2,t4,a2
9d006f68:	00cb202b 	sltu	a0,a2,t3
9d006f6c:	0143001b 	divu	zero,t2,v1
9d006f70:	006001f4 	teq	v1,zero,0x7
9d006f74:	50800006 	beqzl	a0,9d006f90 <__umoddi3+0x3b8>
9d006f78:	00cb3023 	subu	a2,a2,t3
9d006f7c:	00c83021 	addu	a2,a2,t0
9d006f80:	00c8202b 	sltu	a0,a2,t0
9d006f84:	10800024 	beqz	a0,9d007018 <__umoddi3+0x440>
9d006f88:	00cb502b 	sltu	t2,a2,t3
9d006f8c:	00cb3023 	subu	a2,a2,t3
9d006f90:	30aaffff 	andi	t2,a1,0xffff
9d006f94:	00c3001b 	divu	zero,a2,v1
9d006f98:	006001f4 	teq	v1,zero,0x7
9d006f9c:	00002010 	mfhi	a0
9d006fa0:	00002812 	mflo	a1
9d006fa4:	70a72802 	mul	a1,a1,a3
9d006fa8:	00042400 	sll	a0,a0,0x10
9d006fac:	008a2025 	or	a0,a0,t2
9d006fb0:	0085502b 	sltu	t2,a0,a1
9d006fb4:	00c3001b 	divu	zero,a2,v1
9d006fb8:	006001f4 	teq	v1,zero,0x7
9d006fbc:	5140ff60 	beqzl	t2,9d006d40 <__umoddi3+0x168>
9d006fc0:	00852823 	subu	a1,a0,a1
9d006fc4:	00882021 	addu	a0,a0,t0
9d006fc8:	0088302b 	sltu	a2,a0,t0
9d006fcc:	54c0ff5c 	bnezl	a2,9d006d40 <__umoddi3+0x168>
9d006fd0:	00852823 	subu	a1,a0,a1
9d006fd4:	0085502b 	sltu	t2,a0,a1
9d006fd8:	00883021 	addu	a2,a0,t0
9d006fdc:	00ca200b 	movn	a0,a2,t2
9d006fe0:	0b401b50 	j	9d006d40 <__umoddi3+0x168>
9d006fe4:	00852823 	subu	a1,a0,a1
9d006fe8:	01063023 	subu	a2,t0,a2
9d006fec:	01271823 	subu	v1,t1,a3
9d006ff0:	0106402b 	sltu	t0,t0,a2
9d006ff4:	00681823 	subu	v1,v1,t0
9d006ff8:	0b401bc0 	j	9d006f00 <__umoddi3+0x328>
9d006ffc:	00431823 	subu	v1,v0,v1
9d007000:	004e282b 	sltu	a1,v0,t6
9d007004:	50a0ffb4 	beqzl	a1,9d006ed8 <__umoddi3+0x300>
9d007008:	00084400 	sll	t0,t0,0x10
9d00700c:	246dfffe 	addiu	t5,v1,-2
9d007010:	0b401bb5 	j	9d006ed4 <__umoddi3+0x2fc>
9d007014:	00471021 	addu	v0,v0,a3
9d007018:	00c82021 	addu	a0,a2,t0
9d00701c:	0b401be3 	j	9d006f8c <__umoddi3+0x3b4>
9d007020:	008a300b 	movn	a2,a0,t2
9d007024:	0088182b 	sltu	v1,a0,t0
9d007028:	5460fff0 	bnezl	v1,9d006fec <__umoddi3+0x414>
9d00702c:	01063023 	subu	a2,t0,a2
9d007030:	00003012 	mflo	a2
9d007034:	0b401bc0 	j	9d006f00 <__umoddi3+0x328>
9d007038:	00001821 	move	v1,zero

9d00703c <__udivdi3>:
9d00703c:	00c04021 	move	t0,a2
9d007040:	00801021 	move	v0,a0
9d007044:	14e0003f 	bnez	a3,9d007144 <__udivdi3+0x108>
9d007048:	00a04821 	move	t1,a1
9d00704c:	00a6182b 	sltu	v1,a1,a2
9d007050:	10600047 	beqz	v1,9d007170 <__udivdi3+0x134>
9d007054:	70c31820 	clz	v1,a2
9d007058:	50600008 	beqzl	v1,9d00707c <__udivdi3+0x40>
9d00705c:	00081c02 	srl	v1,t0,0x10
9d007060:	00034823 	negu	t1,v1
9d007064:	00652804 	sllv	a1,a1,v1
9d007068:	01244806 	srlv	t1,a0,t1
9d00706c:	00664004 	sllv	t0,a2,v1
9d007070:	01254825 	or	t1,t1,a1
9d007074:	00641004 	sllv	v0,a0,v1
9d007078:	00081c02 	srl	v1,t0,0x10
9d00707c:	0123001b 	divu	zero,t1,v1
9d007080:	006001f4 	teq	v1,zero,0x7
9d007084:	00006010 	mfhi	t4
9d007088:	00005812 	mflo	t3
9d00708c:	310affff 	andi	t2,t0,0xffff
9d007090:	00022402 	srl	a0,v0,0x10
9d007094:	00003012 	mflo	a2
9d007098:	716a3802 	mul	a3,t3,t2
9d00709c:	000c6400 	sll	t4,t4,0x10
9d0070a0:	01842025 	or	a0,t4,a0
9d0070a4:	0087602b 	sltu	t4,a0,a3
9d0070a8:	0123001b 	divu	zero,t1,v1
9d0070ac:	006001f4 	teq	v1,zero,0x7
9d0070b0:	1180000b 	beqz	t4,9d0070e0 <__udivdi3+0xa4>
9d0070b4:	00872823 	subu	a1,a0,a3
9d0070b8:	00882021 	addu	a0,a0,t0
9d0070bc:	0088282b 	sltu	a1,a0,t0
9d0070c0:	14a00006 	bnez	a1,9d0070dc <__udivdi3+0xa0>
9d0070c4:	2566ffff 	addiu	a2,t3,-1
9d0070c8:	0087282b 	sltu	a1,a0,a3
9d0070cc:	10a00004 	beqz	a1,9d0070e0 <__udivdi3+0xa4>
9d0070d0:	00872823 	subu	a1,a0,a3
9d0070d4:	2566fffe 	addiu	a2,t3,-2
9d0070d8:	00882021 	addu	a0,a0,t0
9d0070dc:	00872823 	subu	a1,a0,a3
9d0070e0:	3042ffff 	andi	v0,v0,0xffff
9d0070e4:	00a3001b 	divu	zero,a1,v1
9d0070e8:	006001f4 	teq	v1,zero,0x7
9d0070ec:	00004810 	mfhi	t1
9d0070f0:	00003812 	mflo	a3
9d0070f4:	00002012 	mflo	a0
9d0070f8:	70ea5002 	mul	t2,a3,t2
9d0070fc:	00094c00 	sll	t1,t1,0x10
9d007100:	01221025 	or	v0,t1,v0
9d007104:	004a482b 	sltu	t1,v0,t2
9d007108:	00a3001b 	divu	zero,a1,v1
9d00710c:	006001f4 	teq	v1,zero,0x7
9d007110:	51200009 	beqzl	t1,9d007138 <__udivdi3+0xfc>
9d007114:	00061400 	sll	v0,a2,0x10
9d007118:	00481021 	addu	v0,v0,t0
9d00711c:	0048402b 	sltu	t0,v0,t0
9d007120:	15000004 	bnez	t0,9d007134 <__udivdi3+0xf8>
9d007124:	24e4ffff 	addiu	a0,a3,-1
9d007128:	004a502b 	sltu	t2,v0,t2
9d00712c:	24e7fffe 	addiu	a3,a3,-2
9d007130:	00ea200b 	movn	a0,a3,t2
9d007134:	00061400 	sll	v0,a2,0x10
9d007138:	00821025 	or	v0,a0,v0
9d00713c:	03e00008 	jr	ra
9d007140:	00001821 	move	v1,zero
9d007144:	00a7102b 	sltu	v0,a1,a3
9d007148:	14400044 	bnez	v0,9d00725c <__udivdi3+0x220>
9d00714c:	70e84020 	clz	t0,a3
9d007150:	55000045 	bnezl	t0,9d007268 <__udivdi3+0x22c>
9d007154:	24020020 	li	v0,32
9d007158:	00e5282b 	sltu	a1,a3,a1
9d00715c:	14a000c8 	bnez	a1,9d007480 <__udivdi3+0x444>
9d007160:	0086302b 	sltu	a2,a0,a2
9d007164:	38c20001 	xori	v0,a2,0x1
9d007168:	03e00008 	jr	ra
9d00716c:	00001821 	move	v1,zero
9d007170:	14c00006 	bnez	a2,9d00718c <__udivdi3+0x150>
9d007174:	71031820 	clz	v1,t0
9d007178:	24030001 	li	v1,1
9d00717c:	0066001b 	divu	zero,v1,a2
9d007180:	00c001f4 	teq	a2,zero,0x7
9d007184:	00004012 	mflo	t0
9d007188:	71031820 	clz	v1,t0
9d00718c:	5460007b 	bnezl	v1,9d00737c <__udivdi3+0x340>
9d007190:	00684004 	sllv	t0,t0,v1
9d007194:	00a82023 	subu	a0,a1,t0
9d007198:	00083c02 	srl	a3,t0,0x10
9d00719c:	310bffff 	andi	t3,t0,0xffff
9d0071a0:	24030001 	li	v1,1
9d0071a4:	00023402 	srl	a2,v0,0x10
9d0071a8:	0087001b 	divu	zero,a0,a3
9d0071ac:	00e001f4 	teq	a3,zero,0x7
9d0071b0:	00006810 	mfhi	t5
9d0071b4:	00006012 	mflo	t4
9d0071b8:	00004812 	mflo	t1
9d0071bc:	718b5002 	mul	t2,t4,t3
9d0071c0:	000d6c00 	sll	t5,t5,0x10
9d0071c4:	01a63025 	or	a2,t5,a2
9d0071c8:	00ca682b 	sltu	t5,a2,t2
9d0071cc:	0087001b 	divu	zero,a0,a3
9d0071d0:	00e001f4 	teq	a3,zero,0x7
9d0071d4:	11a00009 	beqz	t5,9d0071fc <__udivdi3+0x1c0>
9d0071d8:	00ca2823 	subu	a1,a2,t2
9d0071dc:	00c83021 	addu	a2,a2,t0
9d0071e0:	00c8202b 	sltu	a0,a2,t0
9d0071e4:	14800004 	bnez	a0,9d0071f8 <__udivdi3+0x1bc>
9d0071e8:	2589ffff 	addiu	t1,t4,-1
9d0071ec:	00ca202b 	sltu	a0,a2,t2
9d0071f0:	548000a6 	bnezl	a0,9d00748c <__udivdi3+0x450>
9d0071f4:	2589fffe 	addiu	t1,t4,-2
9d0071f8:	00ca2823 	subu	a1,a2,t2
9d0071fc:	3042ffff 	andi	v0,v0,0xffff
9d007200:	00a7001b 	divu	zero,a1,a3
9d007204:	00e001f4 	teq	a3,zero,0x7
9d007208:	00005010 	mfhi	t2
9d00720c:	00003012 	mflo	a2
9d007210:	00002012 	mflo	a0
9d007214:	70cb5802 	mul	t3,a2,t3
9d007218:	000a5400 	sll	t2,t2,0x10
9d00721c:	01421025 	or	v0,t2,v0
9d007220:	004b502b 	sltu	t2,v0,t3
9d007224:	00a7001b 	divu	zero,a1,a3
9d007228:	00e001f4 	teq	a3,zero,0x7
9d00722c:	51400009 	beqzl	t2,9d007254 <__udivdi3+0x218>
9d007230:	00091400 	sll	v0,t1,0x10
9d007234:	00481021 	addu	v0,v0,t0
9d007238:	0048402b 	sltu	t0,v0,t0
9d00723c:	15000004 	bnez	t0,9d007250 <__udivdi3+0x214>
9d007240:	24c4ffff 	addiu	a0,a2,-1
9d007244:	004b582b 	sltu	t3,v0,t3
9d007248:	24c6fffe 	addiu	a2,a2,-2
9d00724c:	00cb200b 	movn	a0,a2,t3
9d007250:	00091400 	sll	v0,t1,0x10
9d007254:	03e00008 	jr	ra
9d007258:	00821025 	or	v0,a0,v0
9d00725c:	00001821 	move	v1,zero
9d007260:	03e00008 	jr	ra
9d007264:	00001021 	move	v0,zero
9d007268:	00481023 	subu	v0,v0,t0
9d00726c:	01073804 	sllv	a3,a3,t0
9d007270:	00461806 	srlv	v1,a2,v0
9d007274:	00673825 	or	a3,v1,a3
9d007278:	00455006 	srlv	t2,a1,v0
9d00727c:	00071c02 	srl	v1,a3,0x10
9d007280:	0143001b 	divu	zero,t2,v1
9d007284:	006001f4 	teq	v1,zero,0x7
9d007288:	00004810 	mfhi	t1
9d00728c:	00006812 	mflo	t5
9d007290:	30ebffff 	andi	t3,a3,0xffff
9d007294:	01052804 	sllv	a1,a1,t0
9d007298:	00441006 	srlv	v0,a0,v0
9d00729c:	00452825 	or	a1,v0,a1
9d0072a0:	00057402 	srl	t6,a1,0x10
9d0072a4:	00001012 	mflo	v0
9d0072a8:	71ab6002 	mul	t4,t5,t3
9d0072ac:	00094c00 	sll	t1,t1,0x10
9d0072b0:	012e4825 	or	t1,t1,t6
9d0072b4:	012c702b 	sltu	t6,t1,t4
9d0072b8:	0143001b 	divu	zero,t2,v1
9d0072bc:	006001f4 	teq	v1,zero,0x7
9d0072c0:	11c0000a 	beqz	t6,9d0072ec <__udivdi3+0x2b0>
9d0072c4:	01063004 	sllv	a2,a2,t0
9d0072c8:	01274821 	addu	t1,t1,a3
9d0072cc:	0127502b 	sltu	t2,t1,a3
9d0072d0:	15400006 	bnez	t2,9d0072ec <__udivdi3+0x2b0>
9d0072d4:	25a2ffff 	addiu	v0,t5,-1
9d0072d8:	012c502b 	sltu	t2,t1,t4
9d0072dc:	51400004 	beqzl	t2,9d0072f0 <__udivdi3+0x2b4>
9d0072e0:	012c4823 	subu	t1,t1,t4
9d0072e4:	25a2fffe 	addiu	v0,t5,-2
9d0072e8:	01274821 	addu	t1,t1,a3
9d0072ec:	012c4823 	subu	t1,t1,t4
9d0072f0:	30a5ffff 	andi	a1,a1,0xffff
9d0072f4:	0123001b 	divu	zero,t1,v1
9d0072f8:	006001f4 	teq	v1,zero,0x7
9d0072fc:	00006810 	mfhi	t5
9d007300:	00006012 	mflo	t4
9d007304:	00005012 	mflo	t2
9d007308:	718b5802 	mul	t3,t4,t3
9d00730c:	000d6c00 	sll	t5,t5,0x10
9d007310:	01a52825 	or	a1,t5,a1
9d007314:	00ab682b 	sltu	t5,a1,t3
9d007318:	0123001b 	divu	zero,t1,v1
9d00731c:	006001f4 	teq	v1,zero,0x7
9d007320:	51a0000b 	beqzl	t5,9d007350 <__udivdi3+0x314>
9d007324:	00021400 	sll	v0,v0,0x10
9d007328:	00a72821 	addu	a1,a1,a3
9d00732c:	00a7182b 	sltu	v1,a1,a3
9d007330:	14600006 	bnez	v1,9d00734c <__udivdi3+0x310>
9d007334:	258affff 	addiu	t2,t4,-1
9d007338:	00ab182b 	sltu	v1,a1,t3
9d00733c:	50600004 	beqzl	v1,9d007350 <__udivdi3+0x314>
9d007340:	00021400 	sll	v0,v0,0x10
9d007344:	258afffe 	addiu	t2,t4,-2
9d007348:	00a72821 	addu	a1,a1,a3
9d00734c:	00021400 	sll	v0,v0,0x10
9d007350:	01421025 	or	v0,t2,v0
9d007354:	00ab2823 	subu	a1,a1,t3
9d007358:	00460019 	multu	v0,a2
9d00735c:	00003810 	mfhi	a3
9d007360:	00a7182b 	sltu	v1,a1,a3
9d007364:	14600044 	bnez	v1,9d007478 <__udivdi3+0x43c>
9d007368:	00003012 	mflo	a2
9d00736c:	10a7003f 	beq	a1,a3,9d00746c <__udivdi3+0x430>
9d007370:	01042004 	sllv	a0,a0,t0
9d007374:	03e00008 	jr	ra
9d007378:	00001821 	move	v1,zero
9d00737c:	24020020 	li	v0,32
9d007380:	00431023 	subu	v0,v0,v1
9d007384:	00454806 	srlv	t1,a1,v0
9d007388:	00083c02 	srl	a3,t0,0x10
9d00738c:	0127001b 	divu	zero,t1,a3
9d007390:	00e001f4 	teq	a3,zero,0x7
9d007394:	00003010 	mfhi	a2
9d007398:	00006012 	mflo	t4
9d00739c:	310bffff 	andi	t3,t0,0xffff
9d0073a0:	00652804 	sllv	a1,a1,v1
9d0073a4:	00441006 	srlv	v0,a0,v0
9d0073a8:	00452825 	or	a1,v0,a1
9d0073ac:	00056c02 	srl	t5,a1,0x10
9d0073b0:	00641004 	sllv	v0,a0,v1
9d0073b4:	00001812 	mflo	v1
9d0073b8:	718b5002 	mul	t2,t4,t3
9d0073bc:	00063400 	sll	a2,a2,0x10
9d0073c0:	01a63025 	or	a2,t5,a2
9d0073c4:	00ca202b 	sltu	a0,a2,t2
9d0073c8:	0127001b 	divu	zero,t1,a3
9d0073cc:	00e001f4 	teq	a3,zero,0x7
9d0073d0:	5080000b 	beqzl	a0,9d007400 <__udivdi3+0x3c4>
9d0073d4:	00ca3023 	subu	a2,a2,t2
9d0073d8:	00c83021 	addu	a2,a2,t0
9d0073dc:	00c8202b 	sltu	a0,a2,t0
9d0073e0:	14800006 	bnez	a0,9d0073fc <__udivdi3+0x3c0>
9d0073e4:	2583ffff 	addiu	v1,t4,-1
9d0073e8:	00ca202b 	sltu	a0,a2,t2
9d0073ec:	50800004 	beqzl	a0,9d007400 <__udivdi3+0x3c4>
9d0073f0:	00ca3023 	subu	a2,a2,t2
9d0073f4:	2583fffe 	addiu	v1,t4,-2
9d0073f8:	00c83021 	addu	a2,a2,t0
9d0073fc:	00ca3023 	subu	a2,a2,t2
9d007400:	30acffff 	andi	t4,a1,0xffff
9d007404:	00c7001b 	divu	zero,a2,a3
9d007408:	00e001f4 	teq	a3,zero,0x7
9d00740c:	00002010 	mfhi	a0
9d007410:	00005012 	mflo	t2
9d007414:	00004812 	mflo	t1
9d007418:	714b2802 	mul	a1,t2,t3
9d00741c:	00042400 	sll	a0,a0,0x10
9d007420:	008c2025 	or	a0,a0,t4
9d007424:	0085602b 	sltu	t4,a0,a1
9d007428:	00c7001b 	divu	zero,a2,a3
9d00742c:	00e001f4 	teq	a3,zero,0x7
9d007430:	5180000b 	beqzl	t4,9d007460 <__udivdi3+0x424>
9d007434:	00031c00 	sll	v1,v1,0x10
9d007438:	00882021 	addu	a0,a0,t0
9d00743c:	0088302b 	sltu	a2,a0,t0
9d007440:	14c00006 	bnez	a2,9d00745c <__udivdi3+0x420>
9d007444:	2549ffff 	addiu	t1,t2,-1
9d007448:	0085302b 	sltu	a2,a0,a1
9d00744c:	50c00004 	beqzl	a2,9d007460 <__udivdi3+0x424>
9d007450:	00031c00 	sll	v1,v1,0x10
9d007454:	2549fffe 	addiu	t1,t2,-2
9d007458:	00882021 	addu	a0,a0,t0
9d00745c:	00031c00 	sll	v1,v1,0x10
9d007460:	00852023 	subu	a0,a0,a1
9d007464:	0b401c69 	j	9d0071a4 <__udivdi3+0x168>
9d007468:	01231825 	or	v1,t1,v1
9d00746c:	0086302b 	sltu	a2,a0,a2
9d007470:	10c0ffc0 	beqz	a2,9d007374 <__udivdi3+0x338>
9d007474:	00000000 	nop
9d007478:	0b401cdd 	j	9d007374 <__udivdi3+0x338>
9d00747c:	2442ffff 	addiu	v0,v0,-1
9d007480:	00001821 	move	v1,zero
9d007484:	03e00008 	jr	ra
9d007488:	24020001 	li	v0,1
9d00748c:	0b401c7e 	j	9d0071f8 <__udivdi3+0x1bc>
9d007490:	00c83021 	addu	a2,a2,t0

Disassembly of section .text.dp32subadd:

9d007494 <__subdf3>:
9d007494:	3c018000 00e13826                       ...<&8..

9d00749c <__adddf3>:
9d00749c:	00055840 000b5d42 000552c0 00047d42     @X..B]...R..B}..
9d0074ac:	014f5025 00044ac0 3c088000 01485025     %PO..J.....<%PH.
9d0074bc:	00077040 000e7542 00076ac0 00067d42     @p..Bu...j..B}..
9d0074cc:	01af6825 000662c0 01a86825 256fffff     %h...b..%h....o%
9d0074dc:	2de107fe 1020008d 00000000              ...-.. .....

9d0074e8 <Blab1>:
9d0074e8:	25cfffff 	addiu	t7,t6,-1
9d0074ec:	2de107fe 	sltiu	at,t7,2046
9d0074f0:	102000bb 	beqz	at,9d0077e0 <BspecB>
9d0074f4:	00000000 	nop

9d0074f8 <Blab2>:
9d0074f8:	3c018000 	lui	at,0x8000
9d0074fc:	00a12824 	and	a1,a1,at
9d007500:	016e4023 	subu	t0,t3,t6
9d007504:	1100002c 	beqz	t0,9d0075b8 <Badd3>
9d007508:	00000000 	nop
9d00750c:	19000015 	blez	t0,9d007564 <i1>
9d007510:	00000000 	nop

9d007514 <L1>:
9d007514:	2d010020 	sltiu	at,t0,32
9d007518:	14200007 	bnez	at,9d007538 <L2>
9d00751c:	00000000 	nop
9d007520:	2108ffe0 	addi	t0,t0,-32
9d007524:	000c302b 	sltu	a2,zero,t4
9d007528:	100d0023 	beq	zero,t5,9d0075b8 <Badd3>
9d00752c:	01a66025 	or	t4,t5,a2
9d007530:	1000fff8 	b	9d007514 <L1>
9d007534:	340d0000 	li	t5,0x0

9d007538 <L2>:
9d007538:	1100001f 	beqz	t0,9d0075b8 <Badd3>
9d00753c:	00000000 	nop
9d007540:	00082022 	neg	a0,t0
9d007544:	008c3004 	sllv	a2,t4,a0
9d007548:	008d2004 	sllv	a0,t5,a0
9d00754c:	010c6006 	srlv	t4,t4,t0
9d007550:	010d6806 	srlv	t5,t5,t0
9d007554:	10c00018 	beqz	a2,9d0075b8 <Badd3>
9d007558:	008c6025 	or	t4,a0,t4
9d00755c:	10000016 	b	9d0075b8 <Badd3>
9d007560:	358c0002 	ori	t4,t4,0x2

9d007564 <i1>:
9d007564:	000e5825 	or	t3,zero,t6
9d007568:	00084023 	negu	t0,t0

9d00756c <L4>:
9d00756c:	2d010020 	sltiu	at,t0,32
9d007570:	14200007 	bnez	at,9d007590 <L5>
9d007574:	00000000 	nop
9d007578:	2108ffe0 	addi	t0,t0,-32
9d00757c:	0009302b 	sltu	a2,zero,t1
9d007580:	100a000d 	beq	zero,t2,9d0075b8 <Badd3>
9d007584:	01464825 	or	t1,t2,a2
9d007588:	1000fff8 	b	9d00756c <L4>
9d00758c:	340a0000 	li	t2,0x0

9d007590 <L5>:
9d007590:	11000009 	beqz	t0,9d0075b8 <Badd3>
9d007594:	00000000 	nop
9d007598:	00082022 	neg	a0,t0
9d00759c:	00893004 	sllv	a2,t1,a0
9d0075a0:	008a2004 	sllv	a0,t2,a0
9d0075a4:	01094806 	srlv	t1,t1,t0
9d0075a8:	010a5006 	srlv	t2,t2,t0
9d0075ac:	10c00002 	beqz	a2,9d0075b8 <Badd3>
9d0075b0:	00894825 	or	t1,a0,t1
9d0075b4:	35290002 	ori	t1,t1,0x2

9d0075b8 <Badd3>:
9d0075b8:	00a77826 	xor	t7,a1,a3
9d0075bc:	05e0001c 	bltz	t7,9d007630 <Bsub1>
9d0075c0:	00000000 	nop
9d0075c4:	012c4821 	addu	t1,t1,t4
9d0075c8:	012c782b 	sltu	t7,t1,t4
9d0075cc:	014d5021 	addu	t2,t2,t5
9d0075d0:	014f5021 	addu	t2,t2,t7
9d0075d4:	114d0002 	beq	t2,t5,9d0075e0 <L7>
9d0075d8:	00000000 	nop
9d0075dc:	014d782b 	sltu	t7,t2,t5

9d0075e0 <L7>:
9d0075e0:	11e00037 	beqz	t7,9d0076c0 <Bres>
9d0075e4:	00000000 	nop
9d0075e8:	312f0001 	andi	t7,t1,0x1
9d0075ec:	11e00002 	beqz	t7,9d0075f8 <i3>
9d0075f0:	00000000 	nop
9d0075f4:	35290002 	ori	t1,t1,0x2

9d0075f8 <i3>:
9d0075f8:	00094842 	srl	t1,t1,0x1
9d0075fc:	000a7fc0 	sll	t7,t2,0x1f
9d007600:	012f4825 	or	t1,t1,t7
9d007604:	000a5042 	srl	t2,t2,0x1
9d007608:	3c018000 	lui	at,0x8000
9d00760c:	01415025 	or	t2,t2,at
9d007610:	256b0001 	addiu	t3,t3,1
9d007614:	240107ff 	li	at,2047
9d007618:	15610029 	bne	t3,at,9d0076c0 <Bres>
9d00761c:	00000000 	nop
9d007620:	3c017ff0 	lui	at,0x7ff0
9d007624:	00a12825 	or	a1,a1,at
9d007628:	10000037 	b	9d007708 <BretA>
9d00762c:	24040000 	li	a0,0

9d007630 <Bsub1>:
9d007630:	012c782b 	sltu	t7,t1,t4
9d007634:	012c4823 	subu	t1,t1,t4
9d007638:	014f102b 	sltu	v0,t2,t7
9d00763c:	014f5023 	subu	t2,t2,t7
9d007640:	014d782b 	sltu	t7,t2,t5
9d007644:	01e27825 	or	t7,t7,v0
9d007648:	11e00007 	beqz	t7,9d007668 <i5>
9d00764c:	014d5023 	subu	t2,t2,t5
9d007650:	3c018000 	lui	at,0x8000
9d007654:	00a12826 	xor	a1,a1,at
9d007658:	0009782b 	sltu	t7,zero,t1
9d00765c:	00094823 	negu	t1,t1
9d007660:	000a5023 	negu	t2,t2
9d007664:	014f5023 	subu	t2,t2,t7

9d007668 <i5>:
9d007668:	15400008 	bnez	t2,9d00768c <L8>
9d00766c:	00000000 	nop
9d007670:	15200003 	bnez	t1,9d007680 <L9>
9d007674:	00000000 	nop
9d007678:	1000000d 	b	9d0076b0 <L10>
9d00767c:	240b0000 	li	t3,0

9d007680 <L9>:
9d007680:	01205025 	move	t2,t1
9d007684:	24090000 	li	t1,0
9d007688:	256bffe0 	addiu	t3,t3,-32

9d00768c <L8>:
9d00768c:	71484020 	clz	t0,t2
9d007690:	11000007 	beqz	t0,9d0076b0 <L10>
9d007694:	00000000 	nop
9d007698:	01685823 	subu	t3,t3,t0
9d00769c:	00082022 	neg	a0,t0
9d0076a0:	00892006 	srlv	a0,t1,a0
9d0076a4:	01094804 	sllv	t1,t1,t0
9d0076a8:	010a5004 	sllv	t2,t2,t0
9d0076ac:	01445025 	or	t2,t2,a0

9d0076b0 <L10>:
9d0076b0:	01497825 	or	t7,t2,t1
9d0076b4:	15e00002 	bnez	t7,9d0076c0 <Bres>
9d0076b8:	00000000 	nop
9d0076bc:	24050000 	li	a1,0

9d0076c0 <Bres>:
9d0076c0:	19600068 	blez	t3,9d007864 <Bund>
9d0076c4:	00000000 	nop

9d0076c8 <Blab8>:
9d0076c8:	25290400 	addiu	t1,t1,1024
9d0076cc:	2d2f0400 	sltiu	t7,t1,1024
9d0076d0:	014f5021 	addu	t2,t2,t7
9d0076d4:	014f782b 	sltu	t7,t2,t7
9d0076d8:	016f5821 	addu	t3,t3,t7
9d0076dc:	00097ac2 	srl	t7,t1,0xb
9d0076e0:	31ef0001 	andi	t7,t7,0x1
9d0076e4:	012f4823 	subu	t1,t1,t7
9d0076e8:	000922c2 	srl	a0,t1,0xb
9d0076ec:	000a7d40 	sll	t7,t2,0x15
9d0076f0:	008f2025 	or	a0,a0,t7
9d0076f4:	000a7840 	sll	t7,t2,0x1
9d0076f8:	000f7b02 	srl	t7,t7,0xc
9d0076fc:	00af2825 	or	a1,a1,t7
9d007700:	000b7d00 	sll	t7,t3,0x14
9d007704:	00af2825 	or	a1,a1,t7

9d007708 <BretA>:
9d007708:	00041025 	or	v0,zero,a0
9d00770c:	00051825 	or	v1,zero,a1

9d007710 <B999>:
9d007710:	03e00008 	jr	ra
9d007714:	00000000 	nop

9d007718 <BspecA>:
9d007718:	0120782a 	slt	t7,t1,zero
9d00771c:	01294821 	addu	t1,t1,t1
9d007720:	014a5021 	addu	t2,t2,t2
9d007724:	15600023 	bnez	t3,9d0077b4 <i7>
9d007728:	014f5021 	addu	t2,t2,t7
9d00772c:	01497825 	or	t7,t2,t1
9d007730:	11e00014 	beqz	t7,9d007784 <i8>
9d007734:	00000000 	nop
9d007738:	15400008 	bnez	t2,9d00775c <L11>
9d00773c:	00000000 	nop
9d007740:	15200003 	bnez	t1,9d007750 <L12>
9d007744:	00000000 	nop
9d007748:	1000ff67 	b	9d0074e8 <Blab1>
9d00774c:	240b0000 	li	t3,0

9d007750 <L12>:
9d007750:	01205025 	move	t2,t1
9d007754:	24090000 	li	t1,0
9d007758:	256bffe0 	addiu	t3,t3,-32

9d00775c <L11>:
9d00775c:	71484020 	clz	t0,t2
9d007760:	1100ff61 	beqz	t0,9d0074e8 <Blab1>
9d007764:	00000000 	nop
9d007768:	01685823 	subu	t3,t3,t0
9d00776c:	00082022 	neg	a0,t0
9d007770:	00892006 	srlv	a0,t1,a0
9d007774:	01094804 	sllv	t1,t1,t0
9d007778:	010a5004 	sllv	t2,t2,t0
9d00777c:	1000ff5a 	b	9d0074e8 <Blab1>
9d007780:	01445025 	or	t2,t2,a0

9d007784 <i8>:
9d007784:	240107ff 	li	at,2047
9d007788:	11c10015 	beq	t6,at,9d0077e0 <BspecB>
9d00778c:	00000000 	nop
9d007790:	00e74021 	addu	t0,a3,a3
9d007794:	01067825 	or	t7,t0,a2
9d007798:	15e00003 	bnez	t7,9d0077a8 <BretB>
9d00779c:	00000000 	nop
9d0077a0:	04e0ffd9 	bltz	a3,9d007708 <BretA>
9d0077a4:	00000000 	nop

9d0077a8 <BretB>:
9d0077a8:	00061025 	or	v0,zero,a2
9d0077ac:	1000ffd8 	b	9d007710 <B999>
9d0077b0:	00071825 	or	v1,zero,a3

9d0077b4 <i7>:
9d0077b4:	01497825 	or	t7,t2,t1
9d0077b8:	15e00027 	bnez	t7,9d007858 <Bnan>
9d0077bc:	00000000 	nop
9d0077c0:	240107ff 	li	at,2047
9d0077c4:	15c1ffd0 	bne	t6,at,9d007708 <BretA>
9d0077c8:	00000000 	nop
9d0077cc:	00a77826 	xor	t7,a1,a3
9d0077d0:	05e00021 	bltz	t7,9d007858 <Bnan>
9d0077d4:	00000000 	nop
9d0077d8:	1000fff3 	b	9d0077a8 <BretB>
9d0077dc:	00000000 	nop

9d0077e0 <BspecB>:
9d0077e0:	0180782a 	slt	t7,t4,zero
9d0077e4:	018c6021 	addu	t4,t4,t4
9d0077e8:	01ad6821 	addu	t5,t5,t5
9d0077ec:	15c00017 	bnez	t6,9d00784c <i11>
9d0077f0:	01af6821 	addu	t5,t5,t7
9d0077f4:	01ac7825 	or	t7,t5,t4
9d0077f8:	11e0ffc3 	beqz	t7,9d007708 <BretA>
9d0077fc:	00000000 	nop
9d007800:	15a00008 	bnez	t5,9d007824 <L14>
9d007804:	00000000 	nop
9d007808:	15800003 	bnez	t4,9d007818 <L15>
9d00780c:	00000000 	nop
9d007810:	1000ff39 	b	9d0074f8 <Blab2>
9d007814:	240e0000 	li	t6,0

9d007818 <L15>:
9d007818:	01806825 	move	t5,t4
9d00781c:	240c0000 	li	t4,0
9d007820:	25ceffe0 	addiu	t6,t6,-32

9d007824 <L14>:
9d007824:	71a84020 	clz	t0,t5
9d007828:	1100ff33 	beqz	t0,9d0074f8 <Blab2>
9d00782c:	00000000 	nop
9d007830:	01c87023 	subu	t6,t6,t0
9d007834:	00082022 	neg	a0,t0
9d007838:	008c2006 	srlv	a0,t4,a0
9d00783c:	010c6004 	sllv	t4,t4,t0
9d007840:	010d6804 	sllv	t5,t5,t0
9d007844:	1000ff2c 	b	9d0074f8 <Blab2>
9d007848:	01a46825 	or	t5,t5,a0

9d00784c <i11>:
9d00784c:	01ac7825 	or	t7,t5,t4
9d007850:	11e0ffd5 	beqz	t7,9d0077a8 <BretB>
9d007854:	00000000 	nop

9d007858 <Bnan>:
9d007858:	3c05fff8 	lui	a1,0xfff8
9d00785c:	1000ffaa 	b	9d007708 <BretA>
9d007860:	24040000 	li	a0,0

9d007864 <Bund>:
9d007864:	24080001 	li	t0,1
9d007868:	010b4023 	subu	t0,t0,t3

9d00786c <L17>:
9d00786c:	2d010020 	sltiu	at,t0,32
9d007870:	14200007 	bnez	at,9d007890 <L18>
9d007874:	00000000 	nop
9d007878:	2108ffe0 	addi	t0,t0,-32
9d00787c:	0009302b 	sltu	a2,zero,t1
9d007880:	100a000d 	beq	zero,t2,9d0078b8 <L19>
9d007884:	01464825 	or	t1,t2,a2
9d007888:	1000fff8 	b	9d00786c <L17>
9d00788c:	340a0000 	li	t2,0x0

9d007890 <L18>:
9d007890:	11000009 	beqz	t0,9d0078b8 <L19>
9d007894:	00000000 	nop
9d007898:	00082022 	neg	a0,t0
9d00789c:	00893004 	sllv	a2,t1,a0
9d0078a0:	008a2004 	sllv	a0,t2,a0
9d0078a4:	01094806 	srlv	t1,t1,t0
9d0078a8:	010a5006 	srlv	t2,t2,t0
9d0078ac:	10c00002 	beqz	a2,9d0078b8 <L19>
9d0078b0:	00894825 	or	t1,a0,t1
9d0078b4:	35290002 	ori	t1,t1,0x2

9d0078b8 <L19>:
9d0078b8:	1000ff83 	b	9d0076c8 <Blab8>
9d0078bc:	240b0000 	li	t3,0
9d0078c0:	00000000 	nop

Disassembly of section .text.__strtod:

9d0078c4 <__strtod>:
9d0078c4:	27bdffc8 	addiu	sp,sp,-56
9d0078c8:	afbf0034 	sw	ra,52(sp)
9d0078cc:	afbe0030 	sw	s8,48(sp)
9d0078d0:	afb7002c 	sw	s7,44(sp)
9d0078d4:	afb60028 	sw	s6,40(sp)
9d0078d8:	afb50024 	sw	s5,36(sp)
9d0078dc:	afb40020 	sw	s4,32(sp)
9d0078e0:	afb3001c 	sw	s3,28(sp)
9d0078e4:	afb20018 	sw	s2,24(sp)
9d0078e8:	afb10014 	sw	s1,20(sp)
9d0078ec:	afb00010 	sw	s0,16(sp)
9d0078f0:	0080b821 	move	s7,a0
9d0078f4:	80820000 	lb	v0,0(a0)
9d0078f8:	3c1e9d01 	lui	s8,0x9d01
9d0078fc:	27dea9a1 	addiu	s8,s8,-22111
9d007900:	03c21821 	addu	v1,s8,v0
9d007904:	80630000 	lb	v1,0(v1)
9d007908:	00a0a821 	move	s5,a1
9d00790c:	30630088 	andi	v1,v1,0x88
9d007910:	10600008 	beqz	v1,9d007934 <__strtod+0x70>
9d007914:	0080a021 	move	s4,a0
9d007918:	26940001 	addiu	s4,s4,1
9d00791c:	82820000 	lb	v0,0(s4)
9d007920:	03c21821 	addu	v1,s8,v0
9d007924:	80630000 	lb	v1,0(v1)
9d007928:	30630088 	andi	v1,v1,0x88
9d00792c:	5460fffb 	bnezl	v1,9d00791c <__strtod+0x58>
9d007930:	26940001 	addiu	s4,s4,1
9d007934:	2403002d 	li	v1,45
9d007938:	10430098 	beq	v0,v1,9d007b9c <__strtod+0x2d8>
9d00793c:	3842002b 	xori	v0,v0,0x2b
9d007940:	2c420001 	sltiu	v0,v0,1
9d007944:	00009821 	move	s3,zero
9d007948:	0282a021 	addu	s4,s4,v0
9d00794c:	82860000 	lb	a2,0(s4)
9d007950:	03c61021 	addu	v0,s8,a2
9d007954:	90420000 	lbu	v0,0(v0)
9d007958:	30420004 	andi	v0,v0,0x4
9d00795c:	00008821 	move	s1,zero
9d007960:	104000bc 	beqz	v0,9d007c54 <__strtod+0x390>
9d007964:	00008021 	move	s0,zero
9d007968:	00009021 	move	s2,zero
9d00796c:	24d6ffd0 	addiu	s6,a2,-48
9d007970:	02002821 	move	a1,s0
9d007974:	02202021 	move	a0,s1
9d007978:	00003021 	move	a2,zero
9d00797c:	0f4020dd 	jal	9d008374 <.LFE23>
9d007980:	3c074024 	lui	a3,0x4024
9d007984:	00408021 	move	s0,v0
9d007988:	00608821 	move	s1,v1
9d00798c:	0f402e9c 	jal	9d00ba70 <__floatsidf>
9d007990:	02c02021 	move	a0,s6
9d007994:	02002021 	move	a0,s0
9d007998:	02202821 	move	a1,s1
9d00799c:	00403021 	move	a2,v0
9d0079a0:	00603821 	move	a3,v1
9d0079a4:	0f401d27 	jal	9d00749c <__adddf3>
9d0079a8:	26940001 	addiu	s4,s4,1
9d0079ac:	00408821 	move	s1,v0
9d0079b0:	00608021 	move	s0,v1
9d0079b4:	82860000 	lb	a2,0(s4)
9d0079b8:	03c61021 	addu	v0,s8,a2
9d0079bc:	90420000 	lbu	v0,0(v0)
9d0079c0:	30420004 	andi	v0,v0,0x4
9d0079c4:	1440ffe9 	bnez	v0,9d00796c <__strtod+0xa8>
9d0079c8:	02569025 	or	s2,s2,s6
9d0079cc:	24030001 	li	v1,1
9d0079d0:	2402002e 	li	v0,46
9d0079d4:	50c20048 	beql	a2,v0,9d007af8 <__strtod+0x234>
9d0079d8:	82820001 	lb	v0,1(s4)
9d0079dc:	54600072 	bnezl	v1,9d007ba8 <__strtod+0x2e4>
9d0079e0:	82820000 	lb	v0,0(s4)
9d0079e4:	12a0002a 	beqz	s5,9d007a90 <__strtod+0x1cc>
9d0079e8:	00000000 	nop
9d0079ec:	02e0a021 	move	s4,s7
9d0079f0:	0000b821 	move	s7,zero
9d0079f4:	aeb40000 	sw	s4,0(s5)
9d0079f8:	12e00025 	beqz	s7,9d007a90 <__strtod+0x1cc>
9d0079fc:	00004021 	move	t0,zero
9d007a00:	001717c3 	sra	v0,s7,0x1f
9d007a04:	0057b026 	xor	s6,v0,s7
9d007a08:	02c2b023 	subu	s6,s6,v0
9d007a0c:	3c159d01 	lui	s5,0x9d01
9d007a10:	26b5c120 	addiu	s5,s5,-16096
9d007a14:	3c093ff0 	lui	t1,0x3ff0
9d007a18:	0b401e8a 	j	9d007a28 <__strtod+0x164>
9d007a1c:	24140009 	li	s4,9
9d007a20:	1280000e 	beqz	s4,9d007a5c <__strtod+0x198>
9d007a24:	26b5fff8 	addiu	s5,s5,-8
9d007a28:	2694ffff 	addiu	s4,s4,-1
9d007a2c:	02961007 	srav	v0,s6,s4
9d007a30:	30420001 	andi	v0,v0,0x1
9d007a34:	1040fffa 	beqz	v0,9d007a20 <__strtod+0x15c>
9d007a38:	01002021 	move	a0,t0
9d007a3c:	8ea60000 	lw	a2,0(s5)
9d007a40:	8ea70004 	lw	a3,4(s5)
9d007a44:	0f4020dd 	jal	9d008374 <.LFE23>
9d007a48:	01202821 	move	a1,t1
9d007a4c:	00404021 	move	t0,v0
9d007a50:	00604821 	move	t1,v1
9d007a54:	1680fff4 	bnez	s4,9d007a28 <__strtod+0x164>
9d007a58:	26b5fff8 	addiu	s5,s5,-8
9d007a5c:	02202021 	move	a0,s1
9d007a60:	02002821 	move	a1,s0
9d007a64:	01003021 	move	a2,t0
9d007a68:	06e00075 	bltz	s7,9d007c40 <__strtod+0x37c>
9d007a6c:	01203821 	move	a3,t1
9d007a70:	0f4020dd 	jal	9d008374 <.LFE23>
9d007a74:	00000000 	nop
9d007a78:	00402021 	move	a0,v0
9d007a7c:	00602821 	move	a1,v1
9d007a80:	0f4027cd 	jal	9d009f34 <__ldexp>
9d007a84:	02e03021 	move	a2,s7
9d007a88:	00408821 	move	s1,v0
9d007a8c:	00608021 	move	s0,v1
9d007a90:	1220007b 	beqz	s1,9d007c80 <__strtod+0x3bc>
9d007a94:	7e02f000 	ext	v0,s0,0x0,0x1f
9d007a98:	02301025 	or	v0,s1,s0
9d007a9c:	10400073 	beqz	v0,9d007c6c <__strtod+0x3a8>
9d007aa0:	00000000 	nop
9d007aa4:	12600007 	beqz	s3,9d007ac4 <__strtod+0x200>
9d007aa8:	02201021 	move	v0,s1
9d007aac:	02202021 	move	a0,s1
9d007ab0:	0f403133 	jal	9d00c4cc <__negdf2>
9d007ab4:	02002821 	move	a1,s0
9d007ab8:	00408821 	move	s1,v0
9d007abc:	00608021 	move	s0,v1
9d007ac0:	02201021 	move	v0,s1
9d007ac4:	02001821 	move	v1,s0
9d007ac8:	8fbf0034 	lw	ra,52(sp)
9d007acc:	8fbe0030 	lw	s8,48(sp)
9d007ad0:	8fb7002c 	lw	s7,44(sp)
9d007ad4:	8fb60028 	lw	s6,40(sp)
9d007ad8:	8fb50024 	lw	s5,36(sp)
9d007adc:	8fb40020 	lw	s4,32(sp)
9d007ae0:	8fb3001c 	lw	s3,28(sp)
9d007ae4:	8fb20018 	lw	s2,24(sp)
9d007ae8:	8fb10014 	lw	s1,20(sp)
9d007aec:	8fb00010 	lw	s0,16(sp)
9d007af0:	03e00008 	jr	ra
9d007af4:	27bd0038 	addiu	sp,sp,56
9d007af8:	03c22021 	addu	a0,s8,v0
9d007afc:	90840000 	lbu	a0,0(a0)
9d007b00:	30840004 	andi	a0,a0,0x4
9d007b04:	1080ffb5 	beqz	a0,9d0079dc <__strtod+0x118>
9d007b08:	26940001 	addiu	s4,s4,1
9d007b0c:	0000b821 	move	s7,zero
9d007b10:	2456ffd0 	addiu	s6,v0,-48
9d007b14:	02002821 	move	a1,s0
9d007b18:	02202021 	move	a0,s1
9d007b1c:	00003021 	move	a2,zero
9d007b20:	0f4020dd 	jal	9d008374 <.LFE23>
9d007b24:	3c074024 	lui	a3,0x4024
9d007b28:	00408021 	move	s0,v0
9d007b2c:	00608821 	move	s1,v1
9d007b30:	0f402e9c 	jal	9d00ba70 <__floatsidf>
9d007b34:	02c02021 	move	a0,s6
9d007b38:	02002021 	move	a0,s0
9d007b3c:	02202821 	move	a1,s1
9d007b40:	00403021 	move	a2,v0
9d007b44:	00603821 	move	a3,v1
9d007b48:	0f401d27 	jal	9d00749c <__adddf3>
9d007b4c:	26940001 	addiu	s4,s4,1
9d007b50:	00408821 	move	s1,v0
9d007b54:	00608021 	move	s0,v1
9d007b58:	82820000 	lb	v0,0(s4)
9d007b5c:	02569025 	or	s2,s2,s6
9d007b60:	03c21821 	addu	v1,s8,v0
9d007b64:	90630000 	lbu	v1,0(v1)
9d007b68:	30630004 	andi	v1,v1,0x4
9d007b6c:	1460ffe8 	bnez	v1,9d007b10 <__strtod+0x24c>
9d007b70:	26f7ffff 	addiu	s7,s7,-1
9d007b74:	2403ffdf 	li	v1,-33
9d007b78:	00431824 	and	v1,v0,v1
9d007b7c:	7c031c20 	seb	v1,v1
9d007b80:	24020045 	li	v0,69
9d007b84:	5062000f 	beql	v1,v0,9d007bc4 <__strtod+0x300>
9d007b88:	82830001 	lb	v1,1(s4)
9d007b8c:	56a0ff9a 	bnezl	s5,9d0079f8 <__strtod+0x134>
9d007b90:	aeb40000 	sw	s4,0(s5)
9d007b94:	0b401e7e 	j	9d0079f8 <__strtod+0x134>
9d007b98:	00000000 	nop
9d007b9c:	26940001 	addiu	s4,s4,1
9d007ba0:	0b401e53 	j	9d00794c <__strtod+0x88>
9d007ba4:	24130001 	li	s3,1
9d007ba8:	2403ffdf 	li	v1,-33
9d007bac:	00431824 	and	v1,v0,v1
9d007bb0:	7c031c20 	seb	v1,v1
9d007bb4:	24020045 	li	v0,69
9d007bb8:	1462fff4 	bne	v1,v0,9d007b8c <__strtod+0x2c8>
9d007bbc:	0000b821 	move	s7,zero
9d007bc0:	82830001 	lb	v1,1(s4)
9d007bc4:	2402002d 	li	v0,45
9d007bc8:	10620019 	beq	v1,v0,9d007c30 <__strtod+0x36c>
9d007bcc:	2402002b 	li	v0,43
9d007bd0:	50620023 	beql	v1,v0,9d007c60 <__strtod+0x39c>
9d007bd4:	82830002 	lb	v1,2(s4)
9d007bd8:	26940001 	addiu	s4,s4,1
9d007bdc:	00003821 	move	a3,zero
9d007be0:	03c31021 	addu	v0,s8,v1
9d007be4:	90420000 	lbu	v0,0(v0)
9d007be8:	30420004 	andi	v0,v0,0x4
9d007bec:	1040000c 	beqz	v0,9d007c20 <__strtod+0x35c>
9d007bf0:	00001021 	move	v0,zero
9d007bf4:	26940001 	addiu	s4,s4,1
9d007bf8:	2465ffd0 	addiu	a1,v1,-48
9d007bfc:	82830000 	lb	v1,0(s4)
9d007c00:	00023040 	sll	a2,v0,0x1
9d007c04:	000210c0 	sll	v0,v0,0x3
9d007c08:	03c32021 	addu	a0,s8,v1
9d007c0c:	90840000 	lbu	a0,0(a0)
9d007c10:	00c21021 	addu	v0,a2,v0
9d007c14:	30840004 	andi	a0,a0,0x4
9d007c18:	1480fff6 	bnez	a0,9d007bf4 <__strtod+0x330>
9d007c1c:	00451021 	addu	v0,v0,a1
9d007c20:	00021823 	negu	v1,v0
9d007c24:	0067100b 	movn	v0,v1,a3
9d007c28:	0b401ee3 	j	9d007b8c <__strtod+0x2c8>
9d007c2c:	02e2b821 	addu	s7,s7,v0
9d007c30:	82830002 	lb	v1,2(s4)
9d007c34:	24070001 	li	a3,1
9d007c38:	0b401ef8 	j	9d007be0 <__strtod+0x31c>
9d007c3c:	26940002 	addiu	s4,s4,2
9d007c40:	0f40189b 	jal	9d00626c <__divdf3>
9d007c44:	00000000 	nop
9d007c48:	00402021 	move	a0,v0
9d007c4c:	0b401ea0 	j	9d007a80 <__strtod+0x1bc>
9d007c50:	00602821 	move	a1,v1
9d007c54:	00001821 	move	v1,zero
9d007c58:	0b401e74 	j	9d0079d0 <__strtod+0x10c>
9d007c5c:	00009021 	move	s2,zero
9d007c60:	00003821 	move	a3,zero
9d007c64:	0b401ef8 	j	9d007be0 <__strtod+0x31c>
9d007c68:	26940002 	addiu	s4,s4,2
9d007c6c:	1240ff8d 	beqz	s2,9d007aa4 <__strtod+0x1e0>
9d007c70:	24030022 	li	v1,34
9d007c74:	3c02a000 	lui	v0,0xa000
9d007c78:	0b401ea9 	j	9d007aa4 <__strtod+0x1e0>
9d007c7c:	ac430044 	sw	v1,68(v0)
9d007c80:	3c037ff0 	lui	v1,0x7ff0
9d007c84:	1443ff85 	bne	v0,v1,9d007a9c <__strtod+0x1d8>
9d007c88:	02301025 	or	v0,s1,s0
9d007c8c:	0b401f1d 	j	9d007c74 <__strtod+0x3b0>
9d007c90:	24030022 	li	v1,34

Disassembly of section .text.strtoll:

9d007c94 <strtoll>:
9d007c94:	27bdffd0 	addiu	sp,sp,-48
9d007c98:	afbf002c 	sw	ra,44(sp)
9d007c9c:	afb60028 	sw	s6,40(sp)
9d007ca0:	afb50024 	sw	s5,36(sp)
9d007ca4:	afb40020 	sw	s4,32(sp)
9d007ca8:	afb3001c 	sw	s3,28(sp)
9d007cac:	afb20018 	sw	s2,24(sp)
9d007cb0:	afb10014 	sw	s1,20(sp)
9d007cb4:	afb00010 	sw	s0,16(sp)
9d007cb8:	00809821 	move	s3,a0
9d007cbc:	80820000 	lb	v0,0(a0)
9d007cc0:	00a0a021 	move	s4,a1
9d007cc4:	104000c0 	beqz	v0,9d007fc8 <strtoll+0x334>
9d007cc8:	00c09021 	move	s2,a2
9d007ccc:	3c049d01 	lui	a0,0x9d01
9d007cd0:	2484a9a1 	addiu	a0,a0,-22111
9d007cd4:	00821821 	addu	v1,a0,v0
9d007cd8:	80630000 	lb	v1,0(v1)
9d007cdc:	30630088 	andi	v1,v1,0x88
9d007ce0:	14600007 	bnez	v1,9d007d00 <strtoll+0x6c>
9d007ce4:	02608821 	move	s1,s3
9d007ce8:	0b401fc0 	j	9d007f00 <strtoll+0x26c>
9d007cec:	2403002b 	li	v1,43
9d007cf0:	80630000 	lb	v1,0(v1)
9d007cf4:	30630088 	andi	v1,v1,0x88
9d007cf8:	50600081 	beqzl	v1,9d007f00 <strtoll+0x26c>
9d007cfc:	2403002b 	li	v1,43
9d007d00:	26310001 	addiu	s1,s1,1
9d007d04:	82220000 	lb	v0,0(s1)
9d007d08:	1440fff9 	bnez	v0,9d007cf0 <strtoll+0x5c>
9d007d0c:	00821821 	addu	v1,a0,v0
9d007d10:	00008021 	move	s0,zero
9d007d14:	0000b021 	move	s6,zero
9d007d18:	16400063 	bnez	s2,9d007ea8 <strtoll+0x214>
9d007d1c:	24020010 	li	v0,16
9d007d20:	24020030 	li	v0,48
9d007d24:	12020090 	beq	s0,v0,9d007f68 <strtoll+0x2d4>
9d007d28:	3c0fcccc 	lui	t7,0xcccc
9d007d2c:	35efcccc 	ori	t7,t7,0xcccc
9d007d30:	3c0b0ccc 	lui	t3,0xccc
9d007d34:	356bcccc 	ori	t3,t3,0xcccc
9d007d38:	240c000a 	li	t4,10
9d007d3c:	0000a821 	move	s5,zero
9d007d40:	00002021 	move	a0,zero
9d007d44:	2412000a 	li	s2,10
9d007d48:	2628ffff 	addiu	t0,s1,-1
9d007d4c:	00002821 	move	a1,zero
9d007d50:	00001021 	move	v0,zero
9d007d54:	00001821 	move	v1,zero
9d007d58:	3c079d01 	lui	a3,0x9d01
9d007d5c:	24e7a9a1 	addiu	a3,a3,-22111
9d007d60:	240e0061 	li	t6,97
9d007d64:	240d0041 	li	t5,65
9d007d68:	3c187fff 	lui	t8,0x7fff
9d007d6c:	3718ffff 	ori	t8,t8,0xffff
9d007d70:	1200002c 	beqz	s0,9d007e24 <strtoll+0x190>
9d007d74:	25080001 	addiu	t0,t0,1
9d007d78:	02074821 	addu	t1,s0,a3
9d007d7c:	91290000 	lbu	t1,0(t1)
9d007d80:	312a0004 	andi	t2,t1,0x4
9d007d84:	11400041 	beqz	t2,9d007e8c <strtoll+0x1f8>
9d007d88:	31260003 	andi	a2,t1,0x3
9d007d8c:	2610ffd0 	addiu	s0,s0,-48
9d007d90:	06000024 	bltz	s0,9d007e24 <strtoll+0x190>
9d007d94:	0212482a 	slt	t1,s0,s2
9d007d98:	11200022 	beqz	t1,9d007e24 <strtoll+0x190>
9d007d9c:	0163482a 	slt	t1,t3,v1
9d007da0:	55200037 	bnezl	t1,9d007e80 <strtoll+0x1ec>
9d007da4:	24050001 	li	a1,1
9d007da8:	146b0003 	bne	v1,t3,9d007db8 <strtoll+0x124>
9d007dac:	01e2202b 	sltu	a0,t7,v0
9d007db0:	54800033 	bnezl	a0,9d007e80 <strtoll+0x1ec>
9d007db4:	24050001 	li	a1,1
9d007db8:	14a00030 	bnez	a1,9d007e7c <strtoll+0x1e8>
9d007dbc:	02a20018 	mult	s5,v0
9d007dc0:	001027c3 	sra	a0,s0,0x1f
9d007dc4:	71830000 	madd	t4,v1
9d007dc8:	00003012 	mflo	a2
9d007dcc:	004c0019 	multu	v0,t4
9d007dd0:	00001012 	mflo	v0
9d007dd4:	00001810 	mfhi	v1
9d007dd8:	00c31821 	addu	v1,a2,v1
9d007ddc:	03033023 	subu	a2,t8,v1
9d007de0:	00c4482a 	slt	t1,a2,a0
9d007de4:	15200025 	bnez	t1,9d007e7c <strtoll+0x1e8>
9d007de8:	00025027 	nor	t2,zero,v0
9d007dec:	54860005 	bnel	a0,a2,9d007e04 <strtoll+0x170>
9d007df0:	02028021 	addu	s0,s0,v0
9d007df4:	0150502b 	sltu	t2,t2,s0
9d007df8:	55400021 	bnezl	t2,9d007e80 <strtoll+0x1ec>
9d007dfc:	24050001 	li	a1,1
9d007e00:	02028021 	addu	s0,s0,v0
9d007e04:	0202302b 	sltu	a2,s0,v0
9d007e08:	00642021 	addu	a0,v1,a0
9d007e0c:	02001021 	move	v0,s0
9d007e10:	00c41821 	addu	v1,a2,a0
9d007e14:	81100001 	lb	s0,1(t0)
9d007e18:	24040001 	li	a0,1
9d007e1c:	1600ffd6 	bnez	s0,9d007d78 <strtoll+0xe4>
9d007e20:	25080001 	addiu	t0,t0,1
9d007e24:	12c0002d 	beqz	s6,9d007edc <strtoll+0x248>
9d007e28:	00000000 	nop
9d007e2c:	54a0003b 	bnezl	a1,9d007f1c <strtoll+0x288>
9d007e30:	24030022 	li	v1,34
9d007e34:	00023823 	negu	a3,v0
9d007e38:	0007282b 	sltu	a1,zero,a3
9d007e3c:	00033023 	negu	a2,v1
9d007e40:	00e01021 	move	v0,a3
9d007e44:	00c51823 	subu	v1,a2,a1
9d007e48:	12800002 	beqz	s4,9d007e54 <strtoll+0x1c0>
9d007e4c:	0264400a 	movz	t0,s3,a0
9d007e50:	ae880000 	sw	t0,0(s4)
9d007e54:	8fbf002c 	lw	ra,44(sp)
9d007e58:	8fb60028 	lw	s6,40(sp)
9d007e5c:	8fb50024 	lw	s5,36(sp)
9d007e60:	8fb40020 	lw	s4,32(sp)
9d007e64:	8fb3001c 	lw	s3,28(sp)
9d007e68:	8fb20018 	lw	s2,24(sp)
9d007e6c:	8fb10014 	lw	s1,20(sp)
9d007e70:	8fb00010 	lw	s0,16(sp)
9d007e74:	03e00008 	jr	ra
9d007e78:	27bd0030 	addiu	sp,sp,48
9d007e7c:	24050001 	li	a1,1
9d007e80:	81100001 	lb	s0,1(t0)
9d007e84:	0b401f87 	j	9d007e1c <strtoll+0x188>
9d007e88:	24040001 	li	a0,1
9d007e8c:	10c0ffe5 	beqz	a2,9d007e24 <strtoll+0x190>
9d007e90:	31290001 	andi	t1,t1,0x1
9d007e94:	01a03021 	move	a2,t5
9d007e98:	01c9300a 	movz	a2,t6,t1
9d007e9c:	02068023 	subu	s0,s0,a2
9d007ea0:	0b401f64 	j	9d007d90 <strtoll+0xfc>
9d007ea4:	2610000a 	addiu	s0,s0,10
9d007ea8:	12420026 	beq	s2,v0,9d007f44 <strtoll+0x2b0>
9d007eac:	0012afc3 	sra	s5,s2,0x1f
9d007eb0:	2404ffff 	li	a0,-1
9d007eb4:	3c057fff 	lui	a1,0x7fff
9d007eb8:	34a5ffff 	ori	a1,a1,0xffff
9d007ebc:	02403021 	move	a2,s2
9d007ec0:	0f4019c9 	jal	9d006724 <__divdi3>
9d007ec4:	02a03821 	move	a3,s5
9d007ec8:	02406021 	move	t4,s2
9d007ecc:	00407821 	move	t7,v0
9d007ed0:	00605821 	move	t3,v1
9d007ed4:	0b401f52 	j	9d007d48 <strtoll+0xb4>
9d007ed8:	00002021 	move	a0,zero
9d007edc:	10a0ffda 	beqz	a1,9d007e48 <strtoll+0x1b4>
9d007ee0:	00000000 	nop
9d007ee4:	24030022 	li	v1,34
9d007ee8:	3c02a000 	lui	v0,0xa000
9d007eec:	ac430044 	sw	v1,68(v0)
9d007ef0:	2402ffff 	li	v0,-1
9d007ef4:	3c037fff 	lui	v1,0x7fff
9d007ef8:	0b401f92 	j	9d007e48 <strtoll+0x1b4>
9d007efc:	3463ffff 	ori	v1,v1,0xffff
9d007f00:	5443000b 	bnel	v0,v1,9d007f30 <strtoll+0x29c>
9d007f04:	2403002d 	li	v1,45
9d007f08:	3842002d 	xori	v0,v0,0x2d
9d007f0c:	82300001 	lb	s0,1(s1)
9d007f10:	2c560001 	sltiu	s6,v0,1
9d007f14:	0b401f46 	j	9d007d18 <strtoll+0x84>
9d007f18:	26310001 	addiu	s1,s1,1
9d007f1c:	3c02a000 	lui	v0,0xa000
9d007f20:	ac430044 	sw	v1,68(v0)
9d007f24:	00001021 	move	v0,zero
9d007f28:	0b401f92 	j	9d007e48 <strtoll+0x1b4>
9d007f2c:	3c038000 	lui	v1,0x8000
9d007f30:	5043fff6 	beql	v0,v1,9d007f0c <strtoll+0x278>
9d007f34:	3842002d 	xori	v0,v0,0x2d
9d007f38:	82300000 	lb	s0,0(s1)
9d007f3c:	0b401f46 	j	9d007d18 <strtoll+0x84>
9d007f40:	0000b021 	move	s6,zero
9d007f44:	24020030 	li	v0,48
9d007f48:	12020023 	beq	s0,v0,9d007fd8 <strtoll+0x344>
9d007f4c:	240fffff 	li	t7,-1
9d007f50:	3c0b07ff 	lui	t3,0x7ff
9d007f54:	356bffff 	ori	t3,t3,0xffff
9d007f58:	240c0010 	li	t4,16
9d007f5c:	0000a821 	move	s5,zero
9d007f60:	0b401f52 	j	9d007d48 <strtoll+0xb4>
9d007f64:	00002021 	move	a0,zero
9d007f68:	82300001 	lb	s0,1(s1)
9d007f6c:	2403ffdf 	li	v1,-33
9d007f70:	02031824 	and	v1,s0,v1
9d007f74:	24020058 	li	v0,88
9d007f78:	5062000a 	beql	v1,v0,9d007fa4 <strtoll+0x310>
9d007f7c:	82300002 	lb	s0,2(s1)
9d007f80:	26310001 	addiu	s1,s1,1
9d007f84:	240fffff 	li	t7,-1
9d007f88:	3c0b0fff 	lui	t3,0xfff
9d007f8c:	356bffff 	ori	t3,t3,0xffff
9d007f90:	240c0008 	li	t4,8
9d007f94:	0000a821 	move	s5,zero
9d007f98:	24040001 	li	a0,1
9d007f9c:	0b401f52 	j	9d007d48 <strtoll+0xb4>
9d007fa0:	24120008 	li	s2,8
9d007fa4:	240fffff 	li	t7,-1
9d007fa8:	26310002 	addiu	s1,s1,2
9d007fac:	3c0b07ff 	lui	t3,0x7ff
9d007fb0:	356bffff 	ori	t3,t3,0xffff
9d007fb4:	240c0010 	li	t4,16
9d007fb8:	0000a821 	move	s5,zero
9d007fbc:	24040001 	li	a0,1
9d007fc0:	0b401f52 	j	9d007d48 <strtoll+0xb4>
9d007fc4:	24120010 	li	s2,16
9d007fc8:	00008021 	move	s0,zero
9d007fcc:	00808821 	move	s1,a0
9d007fd0:	0b401f46 	j	9d007d18 <strtoll+0x84>
9d007fd4:	0000b021 	move	s6,zero
9d007fd8:	82300001 	lb	s0,1(s1)
9d007fdc:	2403ffdf 	li	v1,-33
9d007fe0:	02031824 	and	v1,s0,v1
9d007fe4:	24020058 	li	v0,88
9d007fe8:	50620009 	beql	v1,v0,9d008010 <strtoll+0x37c>
9d007fec:	82300002 	lb	s0,2(s1)
9d007ff0:	26310001 	addiu	s1,s1,1
9d007ff4:	240fffff 	li	t7,-1
9d007ff8:	3c0b07ff 	lui	t3,0x7ff
9d007ffc:	356bffff 	ori	t3,t3,0xffff
9d008000:	240c0010 	li	t4,16
9d008004:	0000a821 	move	s5,zero
9d008008:	0b401f52 	j	9d007d48 <strtoll+0xb4>
9d00800c:	24040001 	li	a0,1
9d008010:	240fffff 	li	t7,-1
9d008014:	0b401ffe 	j	9d007ff8 <strtoll+0x364>
9d008018:	26310002 	addiu	s1,s1,2

Disassembly of section .text.__strtof:

9d00801c <__strtof>:
9d00801c:	27bdffc8 	addiu	sp,sp,-56
9d008020:	afbf0034 	sw	ra,52(sp)
9d008024:	afb70030 	sw	s7,48(sp)
9d008028:	afb6002c 	sw	s6,44(sp)
9d00802c:	afb50028 	sw	s5,40(sp)
9d008030:	afb40024 	sw	s4,36(sp)
9d008034:	afb30020 	sw	s3,32(sp)
9d008038:	afb2001c 	sw	s2,28(sp)
9d00803c:	afb10018 	sw	s1,24(sp)
9d008040:	afb00014 	sw	s0,20(sp)
9d008044:	0080a821 	move	s5,a0
9d008048:	80820000 	lb	v0,0(a0)
9d00804c:	3c139d01 	lui	s3,0x9d01
9d008050:	2673a9a1 	addiu	s3,s3,-22111
9d008054:	02621821 	addu	v1,s3,v0
9d008058:	80630000 	lb	v1,0(v1)
9d00805c:	00a0b021 	move	s6,a1
9d008060:	30630088 	andi	v1,v1,0x88
9d008064:	10600008 	beqz	v1,9d008088 <__strtof+0x6c>
9d008068:	00808021 	move	s0,a0
9d00806c:	26100001 	addiu	s0,s0,1
9d008070:	82020000 	lb	v0,0(s0)
9d008074:	02621821 	addu	v1,s3,v0
9d008078:	80630000 	lb	v1,0(v1)
9d00807c:	30630088 	andi	v1,v1,0x88
9d008080:	5460fffb 	bnezl	v1,9d008070 <__strtof+0x54>
9d008084:	26100001 	addiu	s0,s0,1
9d008088:	2403002d 	li	v1,45
9d00808c:	10430081 	beq	v0,v1,9d008294 <__strtof+0x278>
9d008090:	3842002b 	xori	v0,v0,0x2b
9d008094:	2c420001 	sltiu	v0,v0,1
9d008098:	0000b821 	move	s7,zero
9d00809c:	02028021 	addu	s0,s0,v0
9d0080a0:	82030000 	lb	v1,0(s0)
9d0080a4:	02631021 	addu	v0,s3,v1
9d0080a8:	90420000 	lbu	v0,0(v0)
9d0080ac:	30420004 	andi	v0,v0,0x4
9d0080b0:	104000a5 	beqz	v0,9d008348 <__strtof+0x32c>
9d0080b4:	00008821 	move	s1,zero
9d0080b8:	0000a021 	move	s4,zero
9d0080bc:	2472ffd0 	addiu	s2,v1,-48
9d0080c0:	02202021 	move	a0,s1
9d0080c4:	0f40275e 	jal	9d009d78 <__mulsf3>
9d0080c8:	3c054120 	lui	a1,0x4120
9d0080cc:	00408821 	move	s1,v0
9d0080d0:	0f402f72 	jal	9d00bdc8 <__floatsisf>
9d0080d4:	02402021 	move	a0,s2
9d0080d8:	02202021 	move	a0,s1
9d0080dc:	00402821 	move	a1,v0
9d0080e0:	0f40259b 	jal	9d00966c <__addsf3>
9d0080e4:	26100001 	addiu	s0,s0,1
9d0080e8:	00408821 	move	s1,v0
9d0080ec:	82030000 	lb	v1,0(s0)
9d0080f0:	02631021 	addu	v0,s3,v1
9d0080f4:	90420000 	lbu	v0,0(v0)
9d0080f8:	30420004 	andi	v0,v0,0x4
9d0080fc:	1440ffef 	bnez	v0,9d0080bc <__strtof+0xa0>
9d008100:	0292a025 	or	s4,s4,s2
9d008104:	24040001 	li	a0,1
9d008108:	2402002e 	li	v0,46
9d00810c:	5062003e 	beql	v1,v0,9d008208 <__strtof+0x1ec>
9d008110:	82020001 	lb	v0,1(s0)
9d008114:	54800062 	bnezl	a0,9d0082a0 <__strtof+0x284>
9d008118:	82020000 	lb	v0,0(s0)
9d00811c:	12c00024 	beqz	s6,9d0081b0 <__strtof+0x194>
9d008120:	00111840 	sll	v1,s1,0x1
9d008124:	02a08021 	move	s0,s5
9d008128:	00009021 	move	s2,zero
9d00812c:	aed00000 	sw	s0,0(s6)
9d008130:	1240001f 	beqz	s2,9d0081b0 <__strtof+0x194>
9d008134:	00111840 	sll	v1,s1,0x1
9d008138:	001217c3 	sra	v0,s2,0x1f
9d00813c:	0052a826 	xor	s5,v0,s2
9d008140:	02a2a823 	subu	s5,s5,v0
9d008144:	3c139d01 	lui	s3,0x9d01
9d008148:	2673c514 	addiu	s3,s3,-15084
9d00814c:	24100006 	li	s0,6
9d008150:	0b402058 	j	9d008160 <__strtof+0x144>
9d008154:	3c023f80 	lui	v0,0x3f80
9d008158:	1200000b 	beqz	s0,9d008188 <__strtof+0x16c>
9d00815c:	2673fffc 	addiu	s3,s3,-4
9d008160:	2610ffff 	addiu	s0,s0,-1
9d008164:	02151807 	srav	v1,s5,s0
9d008168:	30630001 	andi	v1,v1,0x1
9d00816c:	1060fffa 	beqz	v1,9d008158 <__strtof+0x13c>
9d008170:	00000000 	nop
9d008174:	8e650000 	lw	a1,0(s3)
9d008178:	0f40275e 	jal	9d009d78 <__mulsf3>
9d00817c:	00402021 	move	a0,v0
9d008180:	1600fff7 	bnez	s0,9d008160 <__strtof+0x144>
9d008184:	2673fffc 	addiu	s3,s3,-4
9d008188:	02202021 	move	a0,s1
9d00818c:	0640006a 	bltz	s2,9d008338 <__strtof+0x31c>
9d008190:	00402821 	move	a1,v0
9d008194:	0f40275e 	jal	9d009d78 <__mulsf3>
9d008198:	00000000 	nop
9d00819c:	00402021 	move	a0,v0
9d0081a0:	0f402aa9 	jal	9d00aaa4 <__ldexpf>
9d0081a4:	02402821 	move	a1,s2
9d0081a8:	00408821 	move	s1,v0
9d0081ac:	00111840 	sll	v1,s1,0x1
9d0081b0:	3c02ff00 	lui	v0,0xff00
9d0081b4:	5062006c 	beql	v1,v0,9d008368 <__strtof+0x34c>
9d0081b8:	24030022 	li	v1,34
9d0081bc:	12200068 	beqz	s1,9d008360 <__strtof+0x344>
9d0081c0:	00000000 	nop
9d0081c4:	12e00005 	beqz	s7,9d0081dc <__strtof+0x1c0>
9d0081c8:	02201021 	move	v0,s1
9d0081cc:	0f40315a 	jal	9d00c568 <__negsf2>
9d0081d0:	02202021 	move	a0,s1
9d0081d4:	00408821 	move	s1,v0
9d0081d8:	02201021 	move	v0,s1
9d0081dc:	8fbf0034 	lw	ra,52(sp)
9d0081e0:	8fb70030 	lw	s7,48(sp)
9d0081e4:	8fb6002c 	lw	s6,44(sp)
9d0081e8:	8fb50028 	lw	s5,40(sp)
9d0081ec:	8fb40024 	lw	s4,36(sp)
9d0081f0:	8fb30020 	lw	s3,32(sp)
9d0081f4:	8fb2001c 	lw	s2,28(sp)
9d0081f8:	8fb10018 	lw	s1,24(sp)
9d0081fc:	8fb00014 	lw	s0,20(sp)
9d008200:	03e00008 	jr	ra
9d008204:	27bd0038 	addiu	sp,sp,56
9d008208:	02621821 	addu	v1,s3,v0
9d00820c:	90630000 	lbu	v1,0(v1)
9d008210:	30630004 	andi	v1,v1,0x4
9d008214:	1060ffbf 	beqz	v1,9d008114 <__strtof+0xf8>
9d008218:	26100001 	addiu	s0,s0,1
9d00821c:	00009021 	move	s2,zero
9d008220:	2455ffd0 	addiu	s5,v0,-48
9d008224:	02202021 	move	a0,s1
9d008228:	0f40275e 	jal	9d009d78 <__mulsf3>
9d00822c:	3c054120 	lui	a1,0x4120
9d008230:	00408821 	move	s1,v0
9d008234:	0f402f72 	jal	9d00bdc8 <__floatsisf>
9d008238:	02a02021 	move	a0,s5
9d00823c:	02202021 	move	a0,s1
9d008240:	00402821 	move	a1,v0
9d008244:	0f40259b 	jal	9d00966c <__addsf3>
9d008248:	26100001 	addiu	s0,s0,1
9d00824c:	00408821 	move	s1,v0
9d008250:	82020000 	lb	v0,0(s0)
9d008254:	0295a025 	or	s4,s4,s5
9d008258:	02621821 	addu	v1,s3,v0
9d00825c:	90630000 	lbu	v1,0(v1)
9d008260:	30630004 	andi	v1,v1,0x4
9d008264:	1460ffee 	bnez	v1,9d008220 <__strtof+0x204>
9d008268:	2652ffff 	addiu	s2,s2,-1
9d00826c:	2403ffdf 	li	v1,-33
9d008270:	00431824 	and	v1,v0,v1
9d008274:	7c031c20 	seb	v1,v1
9d008278:	24020045 	li	v0,69
9d00827c:	5062000f 	beql	v1,v0,9d0082bc <__strtof+0x2a0>
9d008280:	82030001 	lb	v1,1(s0)
9d008284:	56c0ffaa 	bnezl	s6,9d008130 <__strtof+0x114>
9d008288:	aed00000 	sw	s0,0(s6)
9d00828c:	0b40204c 	j	9d008130 <__strtof+0x114>
9d008290:	00000000 	nop
9d008294:	26100001 	addiu	s0,s0,1
9d008298:	0b402028 	j	9d0080a0 <__strtof+0x84>
9d00829c:	24170001 	li	s7,1
9d0082a0:	2403ffdf 	li	v1,-33
9d0082a4:	00431824 	and	v1,v0,v1
9d0082a8:	7c031c20 	seb	v1,v1
9d0082ac:	24020045 	li	v0,69
9d0082b0:	1462fff4 	bne	v1,v0,9d008284 <__strtof+0x268>
9d0082b4:	00009021 	move	s2,zero
9d0082b8:	82030001 	lb	v1,1(s0)
9d0082bc:	2402002d 	li	v0,45
9d0082c0:	10620019 	beq	v1,v0,9d008328 <__strtof+0x30c>
9d0082c4:	2402002b 	li	v0,43
9d0082c8:	50620022 	beql	v1,v0,9d008354 <__strtof+0x338>
9d0082cc:	82030002 	lb	v1,2(s0)
9d0082d0:	26100001 	addiu	s0,s0,1
9d0082d4:	00003821 	move	a3,zero
9d0082d8:	02631021 	addu	v0,s3,v1
9d0082dc:	90420000 	lbu	v0,0(v0)
9d0082e0:	30420004 	andi	v0,v0,0x4
9d0082e4:	1040000c 	beqz	v0,9d008318 <__strtof+0x2fc>
9d0082e8:	00001021 	move	v0,zero
9d0082ec:	26100001 	addiu	s0,s0,1
9d0082f0:	2465ffd0 	addiu	a1,v1,-48
9d0082f4:	82030000 	lb	v1,0(s0)
9d0082f8:	00023040 	sll	a2,v0,0x1
9d0082fc:	000210c0 	sll	v0,v0,0x3
9d008300:	02632021 	addu	a0,s3,v1
9d008304:	90840000 	lbu	a0,0(a0)
9d008308:	00c21021 	addu	v0,a2,v0
9d00830c:	30840004 	andi	a0,a0,0x4
9d008310:	1480fff6 	bnez	a0,9d0082ec <__strtof+0x2d0>
9d008314:	00451021 	addu	v0,v0,a1
9d008318:	00021823 	negu	v1,v0
9d00831c:	0067100b 	movn	v0,v1,a3
9d008320:	0b4020a1 	j	9d008284 <__strtof+0x268>
9d008324:	02429021 	addu	s2,s2,v0
9d008328:	82030002 	lb	v1,2(s0)
9d00832c:	24070001 	li	a3,1
9d008330:	0b4020b6 	j	9d0082d8 <__strtof+0x2bc>
9d008334:	26100002 	addiu	s0,s0,2
9d008338:	0f4026d2 	jal	9d009b48 <.LFE6>
9d00833c:	00000000 	nop
9d008340:	0b402068 	j	9d0081a0 <__strtof+0x184>
9d008344:	00402021 	move	a0,v0
9d008348:	00002021 	move	a0,zero
9d00834c:	0b402042 	j	9d008108 <__strtof+0xec>
9d008350:	0000a021 	move	s4,zero
9d008354:	00003821 	move	a3,zero
9d008358:	0b4020b6 	j	9d0082d8 <__strtof+0x2bc>
9d00835c:	26100002 	addiu	s0,s0,2
9d008360:	1280ff98 	beqz	s4,9d0081c4 <__strtof+0x1a8>
9d008364:	24030022 	li	v1,34
9d008368:	3c02a000 	lui	v0,0xa000
9d00836c:	0b402071 	j	9d0081c4 <__strtof+0x1a8>
9d008370:	ac430044 	sw	v1,68(v0)

Disassembly of section .text.dp32mul:

9d008374 <__muldf3>:
9d008374:	00055040 000a5542 00054ac0 00047d42     @P..BU...J..B}..
9d008384:	012f4825 000442c0 3c0e8000 012e4825     %H/..B.....<%H..
9d008394:	00076840 000d6d42 000762c0 00067d42     @h..Bm...b..B}..
9d0083a4:	018f6025 00065ac0 018e6025 00a72826     %`...Z..%`..&(..
9d0083b4:	00ae2824 254fffff 2de107fe 10200047     $(....O%...-G. .
9d0083c4:	00000000                                ....

9d0083c8 <Clab1>:
9d0083c8:	25afffff 	addiu	t7,t5,-1
9d0083cc:	2de107fe 	sltiu	at,t7,2046
9d0083d0:	1020006f 	beqz	at,9d008590 <CspecB>
9d0083d4:	00000000 	nop

9d0083d8 <Clab2>:
9d0083d8:	25affc02 	addiu	t7,t5,-1022
9d0083dc:	014f5021 	addu	t2,t2,t7
9d0083e0:	012c0019 	multu	t1,t4
9d0083e4:	00003812 	mflo	a3
9d0083e8:	00007010 	mfhi	t6
9d0083ec:	010b0019 	multu	t0,t3
9d0083f0:	00002012 	mflo	a0
9d0083f4:	00003010 	mfhi	a2
9d0083f8:	012b0019 	multu	t1,t3
9d0083fc:	00005812 	mflo	t3
9d008400:	00006810 	mfhi	t5
9d008404:	00cb3021 	addu	a2,a2,t3
9d008408:	00cb782b 	sltu	t7,a2,t3
9d00840c:	00ed3821 	addu	a3,a3,t5
9d008410:	00ef3821 	addu	a3,a3,t7
9d008414:	10ed0002 	beq	a3,t5,9d008420 <L20>
9d008418:	00000000 	nop
9d00841c:	00ed782b 	sltu	t7,a3,t5

9d008420 <L20>:
9d008420:	01cf7021 	addu	t6,t6,t7
9d008424:	010c0019 	multu	t0,t4
9d008428:	00004012 	mflo	t0
9d00842c:	00004810 	mfhi	t1
9d008430:	00c83021 	addu	a2,a2,t0
9d008434:	00c8782b 	sltu	t7,a2,t0
9d008438:	00e93821 	addu	a3,a3,t1
9d00843c:	00ef3821 	addu	a3,a3,t7
9d008440:	10e90002 	beq	a3,t1,9d00844c <L21>
9d008444:	00000000 	nop
9d008448:	00e9782b 	sltu	t7,a3,t1

9d00844c <L21>:
9d00844c:	01cf7021 	addu	t6,t6,t7
9d008450:	00867825 	or	t7,a0,a2
9d008454:	11e00002 	beqz	t7,9d008460 <i13>
9d008458:	00000000 	nop
9d00845c:	34e70001 	ori	a3,a3,0x1

9d008460 <i13>:
9d008460:	000e4825 	or	t1,zero,t6
9d008464:	05200006 	bltz	t1,9d008480 <i14>
9d008468:	00074025 	or	t0,zero,a3
9d00846c:	0100782a 	slt	t7,t0,zero
9d008470:	01084021 	addu	t0,t0,t0
9d008474:	01294821 	addu	t1,t1,t1
9d008478:	012f4821 	addu	t1,t1,t7
9d00847c:	254affff 	addiu	t2,t2,-1

9d008480 <i14>:
9d008480:	254fffff 	addiu	t7,t2,-1
9d008484:	2de107fe 	sltiu	at,t7,2046
9d008488:	10200068 	beqz	at,9d00862c <Coveund>
9d00848c:	00000000 	nop
9d008490:	25080400 	addiu	t0,t0,1024
9d008494:	2d0f0400 	sltiu	t7,t0,1024
9d008498:	012f4821 	addu	t1,t1,t7
9d00849c:	012f782b 	sltu	t7,t1,t7
9d0084a0:	014f5021 	addu	t2,t2,t7

9d0084a4 <Clab8>:
9d0084a4:	00087ac2 	srl	t7,t0,0xb
9d0084a8:	31ef0001 	andi	t7,t7,0x1
9d0084ac:	010f4023 	subu	t0,t0,t7
9d0084b0:	000822c2 	srl	a0,t0,0xb
9d0084b4:	00097d40 	sll	t7,t1,0x15
9d0084b8:	008f2025 	or	a0,a0,t7
9d0084bc:	00097840 	sll	t7,t1,0x1
9d0084c0:	000f7b02 	srl	t7,t7,0xc
9d0084c4:	00af2825 	or	a1,a1,t7
9d0084c8:	000a7d00 	sll	t7,t2,0x14
9d0084cc:	00af2825 	or	a1,a1,t7

9d0084d0 <Cret>:
9d0084d0:	00041025 	or	v0,zero,a0
9d0084d4:	00051825 	or	v1,zero,a1

9d0084d8 <C999>:
9d0084d8:	03e00008 	jr	ra
9d0084dc:	00000000 	nop

9d0084e0 <CspecA>:
9d0084e0:	0100782a 	slt	t7,t0,zero
9d0084e4:	01084021 	addu	t0,t0,t0
9d0084e8:	01294821 	addu	t1,t1,t1
9d0084ec:	1540001c 	bnez	t2,9d008560 <i15>
9d0084f0:	012f4821 	addu	t1,t1,t7
9d0084f4:	01287825 	or	t7,t1,t0
9d0084f8:	11e00014 	beqz	t7,9d00854c <i16>
9d0084fc:	00000000 	nop
9d008500:	15200008 	bnez	t1,9d008524 <L22>
9d008504:	00000000 	nop
9d008508:	15000003 	bnez	t0,9d008518 <L23>
9d00850c:	00000000 	nop
9d008510:	1000ffad 	b	9d0083c8 <Clab1>
9d008514:	240a0000 	li	t2,0

9d008518 <L23>:
9d008518:	01004825 	move	t1,t0
9d00851c:	24080000 	li	t0,0
9d008520:	254affe0 	addiu	t2,t2,-32

9d008524 <L22>:
9d008524:	712e7020 	clz	t6,t1
9d008528:	11c0ffa7 	beqz	t6,9d0083c8 <Clab1>
9d00852c:	00000000 	nop
9d008530:	014e5023 	subu	t2,t2,t6
9d008534:	000e3822 	neg	a3,t6
9d008538:	00e83806 	srlv	a3,t0,a3
9d00853c:	01c84004 	sllv	t0,t0,t6
9d008540:	01c94804 	sllv	t1,t1,t6
9d008544:	1000ffa0 	b	9d0083c8 <Clab1>
9d008548:	01274825 	or	t1,t1,a3

9d00854c <i16>:
9d00854c:	240107ff 	li	at,2047
9d008550:	11a10033 	beq	t5,at,9d008620 <Cnan>
9d008554:	00000000 	nop
9d008558:	1000ffdd 	b	9d0084d0 <Cret>
9d00855c:	00000000 	nop

9d008560 <i15>:
9d008560:	01287825 	or	t7,t1,t0
9d008564:	15e0002e 	bnez	t7,9d008620 <Cnan>
9d008568:	00000000 	nop
9d00856c:	15a00005 	bnez	t5,9d008584 <i17>
9d008570:	00000000 	nop
9d008574:	000c7840 	sll	t7,t4,0x1
9d008578:	01eb7825 	or	t7,t7,t3
9d00857c:	11e00028 	beqz	t7,9d008620 <Cnan>
9d008580:	00000000 	nop

9d008584 <i17>:
9d008584:	240107ff 	li	at,2047
9d008588:	15a10021 	bne	t5,at,9d008610 <Cinf>
9d00858c:	00000000 	nop

9d008590 <CspecB>:
9d008590:	0160782a 	slt	t7,t3,zero
9d008594:	016b5821 	addu	t3,t3,t3
9d008598:	018c6021 	addu	t4,t4,t4
9d00859c:	15a00019 	bnez	t5,9d008604 <i18>
9d0085a0:	018f6021 	addu	t4,t4,t7
9d0085a4:	018b7825 	or	t7,t4,t3
9d0085a8:	11e00014 	beqz	t7,9d0085fc <i19>
9d0085ac:	00000000 	nop
9d0085b0:	15800008 	bnez	t4,9d0085d4 <L25>
9d0085b4:	00000000 	nop
9d0085b8:	15600003 	bnez	t3,9d0085c8 <L26>
9d0085bc:	00000000 	nop
9d0085c0:	1000ff85 	b	9d0083d8 <Clab2>
9d0085c4:	240d0000 	li	t5,0

9d0085c8 <L26>:
9d0085c8:	01606025 	move	t4,t3
9d0085cc:	240b0000 	li	t3,0
9d0085d0:	25adffe0 	addiu	t5,t5,-32

9d0085d4 <L25>:
9d0085d4:	71863020 	clz	a2,t4
9d0085d8:	10c0ff7f 	beqz	a2,9d0083d8 <Clab2>
9d0085dc:	00000000 	nop
9d0085e0:	01a66823 	subu	t5,t5,a2
9d0085e4:	00067022 	neg	t6,a2
9d0085e8:	01cb7006 	srlv	t6,t3,t6
9d0085ec:	00cb5804 	sllv	t3,t3,a2
9d0085f0:	00cc6004 	sllv	t4,t4,a2
9d0085f4:	1000ff78 	b	9d0083d8 <Clab2>
9d0085f8:	018e6025 	or	t4,t4,t6

9d0085fc <i19>:
9d0085fc:	1000ffb4 	b	9d0084d0 <Cret>
9d008600:	24040000 	li	a0,0

9d008604 <i18>:
9d008604:	018b7825 	or	t7,t4,t3
9d008608:	15e00005 	bnez	t7,9d008620 <Cnan>
9d00860c:	00000000 	nop

9d008610 <Cinf>:
9d008610:	3c017ff0 	lui	at,0x7ff0
9d008614:	00a12825 	or	a1,a1,at
9d008618:	1000ffad 	b	9d0084d0 <Cret>
9d00861c:	24040000 	li	a0,0

9d008620 <Cnan>:
9d008620:	3c05fff8 	lui	a1,0xfff8
9d008624:	1000ffaa 	b	9d0084d0 <Cret>
9d008628:	24040000 	li	a0,0

9d00862c <Coveund>:
9d00862c:	1d40fff8 	bgtz	t2,9d008610 <Cinf>
9d008630:	00000000 	nop
9d008634:	240e0001 	li	t6,1
9d008638:	01ca7023 	subu	t6,t6,t2

9d00863c <L28>:
9d00863c:	2dc10020 	sltiu	at,t6,32
9d008640:	14200007 	bnez	at,9d008660 <L29>
9d008644:	00000000 	nop
9d008648:	21ceffe0 	addi	t6,t6,-32
9d00864c:	0008302b 	sltu	a2,zero,t0
9d008650:	1009000d 	beq	zero,t1,9d008688 <L30>
9d008654:	01264025 	or	t0,t1,a2
9d008658:	1000fff8 	b	9d00863c <L28>
9d00865c:	34090000 	li	t1,0x0

9d008660 <L29>:
9d008660:	11c00009 	beqz	t6,9d008688 <L30>
9d008664:	00000000 	nop
9d008668:	000e3822 	neg	a3,t6
9d00866c:	00e83004 	sllv	a2,t0,a3
9d008670:	00e93804 	sllv	a3,t1,a3
9d008674:	01c84006 	srlv	t0,t0,t6
9d008678:	01c94806 	srlv	t1,t1,t6
9d00867c:	10c00002 	beqz	a2,9d008688 <L30>
9d008680:	00e84025 	or	t0,a3,t0
9d008684:	35080002 	ori	t0,t0,0x2

9d008688 <L30>:
9d008688:	25080400 	addiu	t0,t0,1024
9d00868c:	2d0f0400 	sltiu	t7,t0,1024
9d008690:	012f4821 	addu	t1,t1,t7
9d008694:	1000ff83 	b	9d0084a4 <Clab8>
9d008698:	000957c2 	srl	t2,t1,0x1f
9d00869c:	00000000 	nop

Disassembly of section .text.strtoull:

9d0086a0 <strtoull>:
9d0086a0:	27bdffd0 	addiu	sp,sp,-48
9d0086a4:	afbf002c 	sw	ra,44(sp)
9d0086a8:	afb50028 	sw	s5,40(sp)
9d0086ac:	afb40024 	sw	s4,36(sp)
9d0086b0:	afb30020 	sw	s3,32(sp)
9d0086b4:	afb2001c 	sw	s2,28(sp)
9d0086b8:	afb10018 	sw	s1,24(sp)
9d0086bc:	afb00014 	sw	s0,20(sp)
9d0086c0:	00808821 	move	s1,a0
9d0086c4:	80820000 	lb	v0,0(a0)
9d0086c8:	00a09821 	move	s3,a1
9d0086cc:	1040001f 	beqz	v0,9d00874c <strtoull+0xac>
9d0086d0:	00c09021 	move	s2,a2
9d0086d4:	3c049d01 	lui	a0,0x9d01
9d0086d8:	2484a9a1 	addiu	a0,a0,-22111
9d0086dc:	0b4021bc 	j	9d0086f0 <strtoull+0x50>
9d0086e0:	00821821 	addu	v1,a0,v0
9d0086e4:	82220000 	lb	v0,0(s1)
9d0086e8:	10400018 	beqz	v0,9d00874c <strtoull+0xac>
9d0086ec:	00821821 	addu	v1,a0,v0
9d0086f0:	80630000 	lb	v1,0(v1)
9d0086f4:	30630088 	andi	v1,v1,0x88
9d0086f8:	5460fffa 	bnezl	v1,9d0086e4 <strtoull+0x44>
9d0086fc:	26310001 	addiu	s1,s1,1
9d008700:	2403002b 	li	v1,43
9d008704:	14430079 	bne	v0,v1,9d0088ec <strtoull+0x24c>
9d008708:	2403002d 	li	v1,45
9d00870c:	3842002d 	xori	v0,v0,0x2d
9d008710:	82300001 	lb	s0,1(s1)
9d008714:	2c550001 	sltiu	s5,v0,1
9d008718:	26310001 	addiu	s1,s1,1
9d00871c:	1640000f 	bnez	s2,9d00875c <strtoull+0xbc>
9d008720:	24020010 	li	v0,16
9d008724:	24020030 	li	v0,48
9d008728:	12020075 	beq	s0,v0,9d008900 <strtoull+0x260>
9d00872c:	3c0d9999 	lui	t5,0x9999
9d008730:	35ad9999 	ori	t5,t5,0x9999
9d008734:	3c0a1999 	lui	t2,0x1999
9d008738:	354a9999 	ori	t2,t2,0x9999
9d00873c:	240b000a 	li	t3,10
9d008740:	0000a021 	move	s4,zero
9d008744:	0b4021e1 	j	9d008784 <strtoull+0xe4>
9d008748:	2412000a 	li	s2,10
9d00874c:	00008021 	move	s0,zero
9d008750:	1240fff4 	beqz	s2,9d008724 <strtoull+0x84>
9d008754:	0000a821 	move	s5,zero
9d008758:	24020010 	li	v0,16
9d00875c:	12420076 	beq	s2,v0,9d008938 <strtoull+0x298>
9d008760:	0012a7c3 	sra	s4,s2,0x1f
9d008764:	2404ffff 	li	a0,-1
9d008768:	2405ffff 	li	a1,-1
9d00876c:	02403021 	move	a2,s2
9d008770:	0f401c0f 	jal	9d00703c <__udivdi3>
9d008774:	02803821 	move	a3,s4
9d008778:	02405821 	move	t3,s2
9d00877c:	00406821 	move	t5,v0
9d008780:	00605021 	move	t2,v1
9d008784:	2624ffff 	addiu	a0,s1,-1
9d008788:	00002821 	move	a1,zero
9d00878c:	00001021 	move	v0,zero
9d008790:	00001821 	move	v1,zero
9d008794:	3c079d01 	lui	a3,0x9d01
9d008798:	24e7a9a1 	addiu	a3,a3,-22111
9d00879c:	240e0061 	li	t6,97
9d0087a0:	240c0041 	li	t4,65
9d0087a4:	1200002b 	beqz	s0,9d008854 <strtoull+0x1b4>
9d0087a8:	24840001 	addiu	a0,a0,1
9d0087ac:	02074021 	addu	t0,s0,a3
9d0087b0:	91080000 	lbu	t0,0(t0)
9d0087b4:	31090004 	andi	t1,t0,0x4
9d0087b8:	1120003d 	beqz	t1,9d0088b0 <strtoull+0x210>
9d0087bc:	31060003 	andi	a2,t0,0x3
9d0087c0:	2610ffd0 	addiu	s0,s0,-48
9d0087c4:	06000023 	bltz	s0,9d008854 <strtoull+0x1b4>
9d0087c8:	0212402a 	slt	t0,s0,s2
9d0087cc:	11000021 	beqz	t0,9d008854 <strtoull+0x1b4>
9d0087d0:	0143402b 	sltu	t0,t2,v1
9d0087d4:	55000034 	bnezl	t0,9d0088a8 <strtoull+0x208>
9d0087d8:	24050001 	li	a1,1
9d0087dc:	146a0003 	bne	v1,t2,9d0087ec <strtoull+0x14c>
9d0087e0:	01a2302b 	sltu	a2,t5,v0
9d0087e4:	54c00030 	bnezl	a2,9d0088a8 <strtoull+0x208>
9d0087e8:	24050001 	li	a1,1
9d0087ec:	14a00016 	bnez	a1,9d008848 <strtoull+0x1a8>
9d0087f0:	02820018 	mult	s4,v0
9d0087f4:	001047c3 	sra	t0,s0,0x1f
9d0087f8:	71630000 	madd	t3,v1
9d0087fc:	00003012 	mflo	a2
9d008800:	004b0019 	multu	v0,t3
9d008804:	00001012 	mflo	v0
9d008808:	00001810 	mfhi	v1
9d00880c:	00c31821 	addu	v1,a2,v1
9d008810:	00033027 	nor	a2,zero,v1
9d008814:	00c8482b 	sltu	t1,a2,t0
9d008818:	15200022 	bnez	t1,9d0088a4 <strtoull+0x204>
9d00881c:	00027827 	nor	t7,zero,v0
9d008820:	55060005 	bnel	t0,a2,9d008838 <strtoull+0x198>
9d008824:	02028021 	addu	s0,s0,v0
9d008828:	01f0782b 	sltu	t7,t7,s0
9d00882c:	55e0001e 	bnezl	t7,9d0088a8 <strtoull+0x208>
9d008830:	24050001 	li	a1,1
9d008834:	02028021 	addu	s0,s0,v0
9d008838:	0202302b 	sltu	a2,s0,v0
9d00883c:	00684021 	addu	t0,v1,t0
9d008840:	02001021 	move	v0,s0
9d008844:	00c81821 	addu	v1,a2,t0
9d008848:	80900001 	lb	s0,1(a0)
9d00884c:	1600ffd7 	bnez	s0,9d0087ac <strtoull+0x10c>
9d008850:	24840001 	addiu	a0,a0,1
9d008854:	12a0001d 	beqz	s5,9d0088cc <strtoull+0x22c>
9d008858:	00000000 	nop
9d00885c:	54a0001e 	bnezl	a1,9d0088d8 <strtoull+0x238>
9d008860:	24030022 	li	v1,34
9d008864:	00023823 	negu	a3,v0
9d008868:	0007282b 	sltu	a1,zero,a3
9d00886c:	00033023 	negu	a2,v1
9d008870:	00e01021 	move	v0,a3
9d008874:	00c51823 	subu	v1,a2,a1
9d008878:	56600001 	bnezl	s3,9d008880 <strtoull+0x1e0>
9d00887c:	ae640000 	sw	a0,0(s3)
9d008880:	8fbf002c 	lw	ra,44(sp)
9d008884:	8fb50028 	lw	s5,40(sp)
9d008888:	8fb40024 	lw	s4,36(sp)
9d00888c:	8fb30020 	lw	s3,32(sp)
9d008890:	8fb2001c 	lw	s2,28(sp)
9d008894:	8fb10018 	lw	s1,24(sp)
9d008898:	8fb00014 	lw	s0,20(sp)
9d00889c:	03e00008 	jr	ra
9d0088a0:	27bd0030 	addiu	sp,sp,48
9d0088a4:	24050001 	li	a1,1
9d0088a8:	0b402213 	j	9d00884c <strtoull+0x1ac>
9d0088ac:	80900001 	lb	s0,1(a0)
9d0088b0:	10c0ffe8 	beqz	a2,9d008854 <strtoull+0x1b4>
9d0088b4:	31080001 	andi	t0,t0,0x1
9d0088b8:	01803021 	move	a2,t4
9d0088bc:	01c8300a 	movz	a2,t6,t0
9d0088c0:	02068023 	subu	s0,s0,a2
9d0088c4:	0b4021f1 	j	9d0087c4 <strtoull+0x124>
9d0088c8:	2610000a 	addiu	s0,s0,10
9d0088cc:	10a0ffea 	beqz	a1,9d008878 <strtoull+0x1d8>
9d0088d0:	00000000 	nop
9d0088d4:	24030022 	li	v1,34
9d0088d8:	3c02a000 	lui	v0,0xa000
9d0088dc:	ac430044 	sw	v1,68(v0)
9d0088e0:	2402ffff 	li	v0,-1
9d0088e4:	0b40221e 	j	9d008878 <strtoull+0x1d8>
9d0088e8:	2403ffff 	li	v1,-1
9d0088ec:	1043ff88 	beq	v0,v1,9d008710 <strtoull+0x70>
9d0088f0:	3842002d 	xori	v0,v0,0x2d
9d0088f4:	82300000 	lb	s0,0(s1)
9d0088f8:	0b4021c7 	j	9d00871c <strtoull+0x7c>
9d0088fc:	0000a821 	move	s5,zero
9d008900:	82300001 	lb	s0,1(s1)
9d008904:	2403ffdf 	li	v1,-33
9d008908:	02031824 	and	v1,s0,v1
9d00890c:	24020058 	li	v0,88
9d008910:	50620012 	beql	v1,v0,9d00895c <strtoull+0x2bc>
9d008914:	82300002 	lb	s0,2(s1)
9d008918:	26310001 	addiu	s1,s1,1
9d00891c:	240dffff 	li	t5,-1
9d008920:	3c0a1fff 	lui	t2,0x1fff
9d008924:	354affff 	ori	t2,t2,0xffff
9d008928:	240b0008 	li	t3,8
9d00892c:	0000a021 	move	s4,zero
9d008930:	0b4021e1 	j	9d008784 <strtoull+0xe4>
9d008934:	24120008 	li	s2,8
9d008938:	24020030 	li	v0,48
9d00893c:	5202000f 	beql	s0,v0,9d00897c <strtoull+0x2dc>
9d008940:	82300001 	lb	s0,1(s1)
9d008944:	240dffff 	li	t5,-1
9d008948:	3c0a0fff 	lui	t2,0xfff
9d00894c:	354affff 	ori	t2,t2,0xffff
9d008950:	240b0010 	li	t3,16
9d008954:	0b4021e1 	j	9d008784 <strtoull+0xe4>
9d008958:	0000a021 	move	s4,zero
9d00895c:	240dffff 	li	t5,-1
9d008960:	26310002 	addiu	s1,s1,2
9d008964:	3c0a0fff 	lui	t2,0xfff
9d008968:	354affff 	ori	t2,t2,0xffff
9d00896c:	240b0010 	li	t3,16
9d008970:	0000a021 	move	s4,zero
9d008974:	0b4021e1 	j	9d008784 <strtoull+0xe4>
9d008978:	24120010 	li	s2,16
9d00897c:	24020078 	li	v0,120
9d008980:	52020003 	beql	s0,v0,9d008990 <strtoull+0x2f0>
9d008984:	82300002 	lb	s0,2(s1)
9d008988:	0b402251 	j	9d008944 <strtoull+0x2a4>
9d00898c:	26310001 	addiu	s1,s1,1
9d008990:	240dffff 	li	t5,-1
9d008994:	26310002 	addiu	s1,s1,2
9d008998:	3c0a0fff 	lui	t2,0xfff
9d00899c:	354affff 	ori	t2,t2,0xffff
9d0089a0:	240b0010 	li	t3,16
9d0089a4:	0b4021e1 	j	9d008784 <strtoull+0xe4>
9d0089a8:	0000a021 	move	s4,zero

Disassembly of section .text:

9d0089ac <NU32_Startup>:

// Perform startup routines:
//  Make NU32_LED1 and NU32_LED2 pins outputs (NU32_USER is by default an input)
//  Initialize the serial port - UART3 (no interrupt) 
//  Enable interrupts
void NU32_Startup() {
9d0089ac:	27bdfff8 	addiu	sp,sp,-8
9d0089b0:	afbf0004 	sw	ra,4(sp)
9d0089b4:	afbe0000 	sw	s8,0(sp)
9d0089b8:	03a0f021 	move	s8,sp
  // disable interrupts
  __builtin_disable_interrupts();
9d0089bc:	41626000 	di	v0
9d0089c0:	000000c0 	ehb
9d0089c4:	00000000 	nop
  // see Chapter 2 "CPU for Devices with M4K Core" of the PIC32 reference manual
  // most of the other bits have prescribed values
  // microchip does not provide a _CP0_SET_CONFIG macro, so we directly use
  // the compiler built-in command _mtc0
  // to disable cache, use 0xa4210582 
  __builtin_mtc0(_CP0_CONFIG, _CP0_CONFIG_SELECT, 0xa4210583); 
9d0089c8:	3c02a421 	lui	v0,0xa421
9d0089cc:	34420583 	ori	v0,v0,0x583
9d0089d0:	40828000 	mtc0	v0,c0_config
9d0089d4:	000000c0 	ehb
  
  // set the prefectch cache wait state to 2, as per the
  // electrical characteristics data sheet
  CHECONbits.PFMWS = 0x2;   
9d0089d8:	3c03bf88 	lui	v1,0xbf88
9d0089dc:	8c624000 	lw	v0,16384(v1)
9d0089e0:	24040002 	li	a0,2
9d0089e4:	7c821004 	ins	v0,a0,0x0,0x3
9d0089e8:	ac624000 	sw	v0,16384(v1)

  //enable prefetch for cacheable and noncacheable memory
  CHECONbits.PREFEN = 0x3; 
9d0089ec:	3c03bf88 	lui	v1,0xbf88
9d0089f0:	8c624000 	lw	v0,16384(v1)
9d0089f4:	24040003 	li	a0,3
9d0089f8:	7c822904 	ins	v0,a0,0x4,0x2
9d0089fc:	ac624000 	sw	v0,16384(v1)

  // 0 data RAM access wait states
  BMXCONbits.BMXWSDRM = 0x0;
9d008a00:	3c03bf88 	lui	v1,0xbf88
9d008a04:	8c622000 	lw	v0,8192(v1)
9d008a08:	7c023184 	ins	v0,zero,0x6,0x1
9d008a0c:	ac622000 	sw	v0,8192(v1)
  
  // enable multi vector interrupts
  INTCONbits.MVEC = 0x1;
9d008a10:	3c03bf88 	lui	v1,0xbf88
9d008a14:	8c621000 	lw	v0,4096(v1)
9d008a18:	24040001 	li	a0,1
9d008a1c:	7c826304 	ins	v0,a0,0xc,0x1
9d008a20:	ac621000 	sw	v0,4096(v1)

  // disable JTAG to get B10, B11, B12 and B13 back
  DDPCONbits.JTAGEN = 0;
9d008a24:	3c03bf81 	lui	v1,0xbf81
9d008a28:	9062f200 	lbu	v0,-3584(v1)
9d008a2c:	7c0218c4 	ins	v0,zero,0x3,0x1
9d008a30:	a062f200 	sb	v0,-3584(v1)

  TRISFCLR = 0x0003;  // Make F0 and F1 outputs (LED1 and LED2)
9d008a34:	3c02bf88 	lui	v0,0xbf88
9d008a38:	24030003 	li	v1,3
9d008a3c:	ac436144 	sw	v1,24900(v0)
  NU32_LED1 = 1;      // LED1 is off
9d008a40:	3c03bf88 	lui	v1,0xbf88
9d008a44:	90626160 	lbu	v0,24928(v1)
9d008a48:	24040001 	li	a0,1
9d008a4c:	7c820004 	ins	v0,a0,0x0,0x1
9d008a50:	a0626160 	sb	v0,24928(v1)
  NU32_LED2 = 0;      // LED2 is on
9d008a54:	3c03bf88 	lui	v1,0xbf88
9d008a58:	90626160 	lbu	v0,24928(v1)
9d008a5c:	7c020844 	ins	v0,zero,0x1,0x1
9d008a60:	a0626160 	sb	v0,24928(v1)

  // turn on UART3 without an interrupt
  U3MODEbits.BRGH = 0; // set baud to NU32_DESIRED_BAUD
9d008a64:	3c03bf80 	lui	v1,0xbf80
9d008a68:	94626400 	lhu	v0,25600(v1)
9d008a6c:	7c0218c4 	ins	v0,zero,0x3,0x1
9d008a70:	a4626400 	sh	v0,25600(v1)
  U3BRG = ((NU32_SYS_FREQ / NU32_DESIRED_BAUD) / 16) - 1;
9d008a74:	3c02bf80 	lui	v0,0xbf80
9d008a78:	24030014 	li	v1,20
9d008a7c:	ac436440 	sw	v1,25664(v0)

  // 8 bit, no parity bit, and 1 stop bit (8N1 setup)
  U3MODEbits.PDSEL = 0;
9d008a80:	3c03bf80 	lui	v1,0xbf80
9d008a84:	94626400 	lhu	v0,25600(v1)
9d008a88:	7c021044 	ins	v0,zero,0x1,0x2
9d008a8c:	a4626400 	sh	v0,25600(v1)
  U3MODEbits.STSEL = 0;
9d008a90:	3c03bf80 	lui	v1,0xbf80
9d008a94:	94626400 	lhu	v0,25600(v1)
9d008a98:	7c020004 	ins	v0,zero,0x0,0x1
9d008a9c:	a4626400 	sh	v0,25600(v1)

  // configure TX & RX pins as output & input pins
  U3STAbits.UTXEN = 1;
9d008aa0:	3c03bf80 	lui	v1,0xbf80
9d008aa4:	8c626410 	lw	v0,25616(v1)
9d008aa8:	24040001 	li	a0,1
9d008aac:	7c825284 	ins	v0,a0,0xa,0x1
9d008ab0:	ac626410 	sw	v0,25616(v1)
  U3STAbits.URXEN = 1;
9d008ab4:	3c03bf80 	lui	v1,0xbf80
9d008ab8:	8c626410 	lw	v0,25616(v1)
9d008abc:	24040001 	li	a0,1
9d008ac0:	7c826304 	ins	v0,a0,0xc,0x1
9d008ac4:	ac626410 	sw	v0,25616(v1)
  // configure hardware flow control using RTS and CTS
  U3MODEbits.UEN = 2;
9d008ac8:	3c03bf80 	lui	v1,0xbf80
9d008acc:	94626400 	lhu	v0,25600(v1)
9d008ad0:	24040002 	li	a0,2
9d008ad4:	7c824a04 	ins	v0,a0,0x8,0x2
9d008ad8:	a4626400 	sh	v0,25600(v1)

  // enable the uart
  U3MODEbits.ON = 1;
9d008adc:	3c03bf80 	lui	v1,0xbf80
9d008ae0:	94626400 	lhu	v0,25600(v1)
9d008ae4:	24040001 	li	a0,1
9d008ae8:	7c827bc4 	ins	v0,a0,0xf,0x1
9d008aec:	a4626400 	sh	v0,25600(v1)

  __builtin_enable_interrupts();
9d008af0:	41626020 	ei	v0
}
9d008af4:	03c0e821 	move	sp,s8
9d008af8:	8fbf0004 	lw	ra,4(sp)
9d008afc:	8fbe0000 	lw	s8,0(sp)
9d008b00:	27bd0008 	addiu	sp,sp,8
9d008b04:	03e00008 	jr	ra
9d008b08:	00000000 	nop

9d008b0c <NU32_ReadUART3>:

// Read from UART3
// block other functions until you get a '\r' or '\n'
// send the pointer to your char array and the number of elements in the array
void NU32_ReadUART3(char * message, int maxLength) {
9d008b0c:	27bdffe8 	addiu	sp,sp,-24
9d008b10:	afbe0014 	sw	s8,20(sp)
9d008b14:	03a0f021 	move	s8,sp
9d008b18:	afc40018 	sw	a0,24(s8)
9d008b1c:	afc5001c 	sw	a1,28(s8)
  char data = 0;
9d008b20:	a3c00008 	sb	zero,8(s8)
  int complete = 0, num_bytes = 0;
9d008b24:	afc00000 	sw	zero,0(s8)
9d008b28:	afc00004 	sw	zero,4(s8)
  // loop until you get a '\r' or '\n'
  while (!complete) {
9d008b2c:	0b4022ef 	j	9d008bbc <NU32_ReadUART3+0xb0>
9d008b30:	00000000 	nop
    if (U3STAbits.URXDA) { // if data is available
9d008b34:	3c02bf80 	lui	v0,0xbf80
9d008b38:	8c426410 	lw	v0,25616(v0)
9d008b3c:	30420001 	andi	v0,v0,0x1
9d008b40:	1040001e 	beqz	v0,9d008bbc <NU32_ReadUART3+0xb0>
9d008b44:	00000000 	nop
      data = U3RXREG;      // read the data
9d008b48:	3c02bf80 	lui	v0,0xbf80
9d008b4c:	8c426430 	lw	v0,25648(v0)
9d008b50:	a3c20008 	sb	v0,8(s8)
      if ((data == '\n') || (data == '\r')) {
9d008b54:	83c30008 	lb	v1,8(s8)
9d008b58:	2402000a 	li	v0,10
9d008b5c:	10620005 	beq	v1,v0,9d008b74 <NU32_ReadUART3+0x68>
9d008b60:	00000000 	nop
9d008b64:	83c30008 	lb	v1,8(s8)
9d008b68:	2402000d 	li	v0,13
9d008b6c:	14620005 	bne	v1,v0,9d008b84 <NU32_ReadUART3+0x78>
9d008b70:	00000000 	nop
        complete = 1;
9d008b74:	24020001 	li	v0,1
9d008b78:	afc20000 	sw	v0,0(s8)
9d008b7c:	0b4022ef 	j	9d008bbc <NU32_ReadUART3+0xb0>
9d008b80:	00000000 	nop
      } else {
        message[num_bytes] = data;
9d008b84:	8fc20004 	lw	v0,4(s8)
9d008b88:	8fc30018 	lw	v1,24(s8)
9d008b8c:	00621021 	addu	v0,v1,v0
9d008b90:	93c30008 	lbu	v1,8(s8)
9d008b94:	a0430000 	sb	v1,0(v0)
        ++num_bytes;
9d008b98:	8fc20004 	lw	v0,4(s8)
9d008b9c:	24420001 	addiu	v0,v0,1
9d008ba0:	afc20004 	sw	v0,4(s8)
        // roll over if the array is too small
        if (num_bytes >= maxLength) {
9d008ba4:	8fc30004 	lw	v1,4(s8)
9d008ba8:	8fc2001c 	lw	v0,28(s8)
9d008bac:	0062102a 	slt	v0,v1,v0
9d008bb0:	14400002 	bnez	v0,9d008bbc <NU32_ReadUART3+0xb0>
9d008bb4:	00000000 	nop
          num_bytes = 0;
9d008bb8:	afc00004 	sw	zero,4(s8)
// send the pointer to your char array and the number of elements in the array
void NU32_ReadUART3(char * message, int maxLength) {
  char data = 0;
  int complete = 0, num_bytes = 0;
  // loop until you get a '\r' or '\n'
  while (!complete) {
9d008bbc:	8fc20000 	lw	v0,0(s8)
9d008bc0:	1040ffdc 	beqz	v0,9d008b34 <NU32_ReadUART3+0x28>
9d008bc4:	00000000 	nop
        }
      }
    }
  }
  // end the string
  message[num_bytes] = '\0';
9d008bc8:	8fc20004 	lw	v0,4(s8)
9d008bcc:	8fc30018 	lw	v1,24(s8)
9d008bd0:	00621021 	addu	v0,v1,v0
9d008bd4:	a0400000 	sb	zero,0(v0)
}
9d008bd8:	03c0e821 	move	sp,s8
9d008bdc:	8fbe0014 	lw	s8,20(sp)
9d008be0:	27bd0018 	addiu	sp,sp,24
9d008be4:	03e00008 	jr	ra
9d008be8:	00000000 	nop

9d008bec <NU32_WriteUART3>:

// Write a character array using UART3
void NU32_WriteUART3(const char * string) {
9d008bec:	27bdfff8 	addiu	sp,sp,-8
9d008bf0:	afbe0004 	sw	s8,4(sp)
9d008bf4:	03a0f021 	move	s8,sp
9d008bf8:	afc40008 	sw	a0,8(s8)
  while (*string != '\0') {
9d008bfc:	0b40230f 	j	9d008c3c <NU32_WriteUART3+0x50>
9d008c00:	00000000 	nop
    while (U3STAbits.UTXBF) {
9d008c04:	00000000 	nop
9d008c08:	3c02bf80 	lui	v0,0xbf80
9d008c0c:	8c426410 	lw	v0,25616(v0)
9d008c10:	30420200 	andi	v0,v0,0x200
9d008c14:	1440fffc 	bnez	v0,9d008c08 <NU32_WriteUART3+0x1c>
9d008c18:	00000000 	nop
      ; // wait until tx buffer isn't full
    }
    U3TXREG = *string;
9d008c1c:	8fc20008 	lw	v0,8(s8)
9d008c20:	80420000 	lb	v0,0(v0)
9d008c24:	00401821 	move	v1,v0
9d008c28:	3c02bf80 	lui	v0,0xbf80
9d008c2c:	ac436420 	sw	v1,25632(v0)
    ++string;
9d008c30:	8fc20008 	lw	v0,8(s8)
9d008c34:	24420001 	addiu	v0,v0,1
9d008c38:	afc20008 	sw	v0,8(s8)
  message[num_bytes] = '\0';
}

// Write a character array using UART3
void NU32_WriteUART3(const char * string) {
  while (*string != '\0') {
9d008c3c:	8fc20008 	lw	v0,8(s8)
9d008c40:	80420000 	lb	v0,0(v0)
9d008c44:	1440ffef 	bnez	v0,9d008c04 <NU32_WriteUART3+0x18>
9d008c48:	00000000 	nop
      ; // wait until tx buffer isn't full
    }
    U3TXREG = *string;
    ++string;
  }
}
9d008c4c:	03c0e821 	move	sp,s8
9d008c50:	8fbe0004 	lw	s8,4(sp)
9d008c54:	27bd0008 	addiu	sp,sp,8
9d008c58:	03e00008 	jr	ra
9d008c5c:	00000000 	nop

Disassembly of section .text._strtostr:

9d008c60 <_strtostr>:
9d008c60:	27bdfec8 	addiu	sp,sp,-312
9d008c64:	afbf0134 	sw	ra,308(sp)
9d008c68:	afbe0130 	sw	s8,304(sp)
9d008c6c:	afb7012c 	sw	s7,300(sp)
9d008c70:	afb60128 	sw	s6,296(sp)
9d008c74:	afb50124 	sw	s5,292(sp)
9d008c78:	afb40120 	sw	s4,288(sp)
9d008c7c:	afb3011c 	sw	s3,284(sp)
9d008c80:	afb20118 	sw	s2,280(sp)
9d008c84:	afb10114 	sw	s1,276(sp)
9d008c88:	afb00110 	sw	s0,272(sp)
9d008c8c:	00808021 	move	s0,a0
9d008c90:	afa5013c 	sw	a1,316(sp)
9d008c94:	00c09821 	move	s3,a2
9d008c98:	00e0b021 	move	s6,a3
9d008c9c:	24020002 	li	v0,2
9d008ca0:	10820056 	beq	a0,v0,9d008dfc <_strtostr+0x19c>
9d008ca4:	8fb20148 	lw	s2,328(sp)
9d008ca8:	32730001 	andi	s3,s3,0x1
9d008cac:	16600005 	bnez	s3,9d008cc4 <_strtostr+0x64>
9d008cb0:	00000000 	nop
9d008cb4:	8e42000c 	lw	v0,12(s2)
9d008cb8:	24430004 	addiu	v1,v0,4
9d008cbc:	ae43000c 	sw	v1,12(s2)
9d008cc0:	8c510000 	lw	s1,0(v0)
9d008cc4:	12c00081 	beqz	s6,9d008ecc <_strtostr+0x26c>
9d008cc8:	02c0b821 	move	s7,s6
9d008ccc:	2414ffff 	li	s4,-1
9d008cd0:	24150001 	li	s5,1
9d008cd4:	3c1e9d01 	lui	s8,0x9d01
9d008cd8:	27dea9a1 	addiu	s8,s8,-22111
9d008cdc:	0f402f40 	jal	9d00bd00 <gsgetc>
9d008ce0:	02402021 	move	a0,s2
9d008ce4:	50540011 	beql	v0,s4,9d008d2c <_strtostr+0xcc>
9d008ce8:	02e01821 	move	v1,s7
9d008cec:	12150038 	beq	s0,s5,9d008dd0 <_strtostr+0x170>
9d008cf0:	26e3ffff 	addiu	v1,s7,-1
9d008cf4:	24040002 	li	a0,2
9d008cf8:	1204002b 	beq	s0,a0,9d008da8 <_strtostr+0x148>
9d008cfc:	27a50010 	addiu	a1,sp,16
9d008d00:	16600003 	bnez	s3,9d008d10 <_strtostr+0xb0>
9d008d04:	00000000 	nop
9d008d08:	a2220000 	sb	v0,0(s1)
9d008d0c:	26310001 	addiu	s1,s1,1
9d008d10:	10600006 	beqz	v1,9d008d2c <_strtostr+0xcc>
9d008d14:	0060b821 	move	s7,v1
9d008d18:	0f402f40 	jal	9d00bd00 <gsgetc>
9d008d1c:	02402021 	move	a0,s2
9d008d20:	1454fff2 	bne	v0,s4,9d008cec <_strtostr+0x8c>
9d008d24:	00000000 	nop
9d008d28:	02e01821 	move	v1,s7
9d008d2c:	2402ffff 	li	v0,-1
9d008d30:	8e440014 	lw	a0,20(s2)
9d008d34:	24840001 	addiu	a0,a0,1
9d008d38:	16600008 	bnez	s3,9d008d5c <_strtostr+0xfc>
9d008d3c:	ae440014 	sw	a0,20(s2)
9d008d40:	24040001 	li	a0,1
9d008d44:	8fa6013c 	lw	a2,316(sp)
9d008d48:	50c40001 	beql	a2,a0,9d008d50 <_strtostr+0xf0>
9d008d4c:	a2200000 	sb	zero,0(s1)
9d008d50:	8e440018 	lw	a0,24(s2)
9d008d54:	24840001 	addiu	a0,a0,1
9d008d58:	ae440018 	sw	a0,24(s2)
9d008d5c:	14760005 	bne	v1,s6,9d008d74 <_strtostr+0x114>
9d008d60:	00002021 	move	a0,zero
9d008d64:	2404ffff 	li	a0,-1
9d008d68:	00021027 	nor	v0,zero,v0
9d008d6c:	24030001 	li	v1,1
9d008d70:	0062200b 	movn	a0,v1,v0
9d008d74:	00801021 	move	v0,a0
9d008d78:	8fbf0134 	lw	ra,308(sp)
9d008d7c:	8fbe0130 	lw	s8,304(sp)
9d008d80:	8fb7012c 	lw	s7,300(sp)
9d008d84:	8fb60128 	lw	s6,296(sp)
9d008d88:	8fb50124 	lw	s5,292(sp)
9d008d8c:	8fb40120 	lw	s4,288(sp)
9d008d90:	8fb3011c 	lw	s3,284(sp)
9d008d94:	8fb20118 	lw	s2,280(sp)
9d008d98:	8fb10114 	lw	s1,276(sp)
9d008d9c:	8fb00110 	lw	s0,272(sp)
9d008da0:	03e00008 	jr	ra
9d008da4:	27bd0138 	addiu	sp,sp,312
9d008da8:	00a22021 	addu	a0,a1,v0
9d008dac:	80840000 	lb	a0,0(a0)
9d008db0:	1480ffd3 	bnez	a0,9d008d00 <_strtostr+0xa0>
9d008db4:	00000000 	nop
9d008db8:	8e440010 	lw	a0,16(s2)
9d008dbc:	ae420004 	sw	v0,4(s2)
9d008dc0:	02e01821 	move	v1,s7
9d008dc4:	2484ffff 	addiu	a0,a0,-1
9d008dc8:	0b40234c 	j	9d008d30 <_strtostr+0xd0>
9d008dcc:	ae440010 	sw	a0,16(s2)
9d008dd0:	005e2021 	addu	a0,v0,s8
9d008dd4:	80840000 	lb	a0,0(a0)
9d008dd8:	30840088 	andi	a0,a0,0x88
9d008ddc:	1080ffc8 	beqz	a0,9d008d00 <_strtostr+0xa0>
9d008de0:	00000000 	nop
9d008de4:	8e440010 	lw	a0,16(s2)
9d008de8:	ae420004 	sw	v0,4(s2)
9d008dec:	02e01821 	move	v1,s7
9d008df0:	2484ffff 	addiu	a0,a0,-1
9d008df4:	0b40234c 	j	9d008d30 <_strtostr+0xd0>
9d008df8:	ae440010 	sw	a0,16(s2)
9d008dfc:	8e540008 	lw	s4,8(s2)
9d008e00:	82830000 	lb	v1,0(s4)
9d008e04:	2402005e 	li	v0,94
9d008e08:	50620032 	beql	v1,v0,9d008ed4 <_strtostr+0x274>
9d008e0c:	26940001 	addiu	s4,s4,1
9d008e10:	24150001 	li	s5,1
9d008e14:	00002821 	move	a1,zero
9d008e18:	27a40010 	addiu	a0,sp,16
9d008e1c:	0f4030ed 	jal	9d00c3b4 <.LFE1>
9d008e20:	24060100 	li	a2,256
9d008e24:	82830000 	lb	v1,0(s4)
9d008e28:	2405ffff 	li	a1,-1
9d008e2c:	2409ffff 	li	t1,-1
9d008e30:	240a002d 	li	t2,45
9d008e34:	2408005d 	li	t0,93
9d008e38:	0b40239a 	j	9d008e68 <_strtostr+0x208>
9d008e3c:	7c152420 	seb	a0,s5
9d008e40:	00602821 	move	a1,v1
9d008e44:	27a30010 	addiu	v1,sp,16
9d008e48:	00651021 	addu	v0,v1,a1
9d008e4c:	a0550000 	sb	s5,0(v0)
9d008e50:	02801021 	move	v0,s4
9d008e54:	24540001 	addiu	s4,v0,1
9d008e58:	ae540008 	sw	s4,8(s2)
9d008e5c:	80430001 	lb	v1,1(v0)
9d008e60:	50680018 	beql	v1,t0,9d008ec4 <_strtostr+0x264>
9d008e64:	24420002 	addiu	v0,v0,2
9d008e68:	10a9fff5 	beq	a1,t1,9d008e40 <_strtostr+0x1e0>
9d008e6c:	82870001 	lb	a3,1(s4)
9d008e70:	546afff4 	bnel	v1,t2,9d008e44 <_strtostr+0x1e4>
9d008e74:	00602821 	move	a1,v1
9d008e78:	10e8fff1 	beq	a3,t0,9d008e40 <_strtostr+0x1e0>
9d008e7c:	24a20001 	addiu	v0,a1,1
9d008e80:	00e2282a 	slt	a1,a3,v0
9d008e84:	27a30010 	addiu	v1,sp,16
9d008e88:	00621021 	addu	v0,v1,v0
9d008e8c:	27a60011 	addiu	a2,sp,17
9d008e90:	14a00005 	bnez	a1,9d008ea8 <_strtostr+0x248>
9d008e94:	00c71821 	addu	v1,a2,a3
9d008e98:	a0440000 	sb	a0,0(v0)
9d008e9c:	24420001 	addiu	v0,v0,1
9d008ea0:	5443fffe 	bnel	v0,v1,9d008e9c <_strtostr+0x23c>
9d008ea4:	a0440000 	sb	a0,0(v0)
9d008ea8:	26820001 	addiu	v0,s4,1
9d008eac:	24540001 	addiu	s4,v0,1
9d008eb0:	ae540008 	sw	s4,8(s2)
9d008eb4:	80430001 	lb	v1,1(v0)
9d008eb8:	1468ffeb 	bne	v1,t0,9d008e68 <_strtostr+0x208>
9d008ebc:	2405ffff 	li	a1,-1
9d008ec0:	24420002 	addiu	v0,v0,2
9d008ec4:	0b40232a 	j	9d008ca8 <_strtostr+0x48>
9d008ec8:	ae420008 	sw	v0,8(s2)
9d008ecc:	0b40234b 	j	9d008d2c <_strtostr+0xcc>
9d008ed0:	00001821 	move	v1,zero
9d008ed4:	ae540008 	sw	s4,8(s2)
9d008ed8:	0000a821 	move	s5,zero
9d008edc:	0b402386 	j	9d008e18 <_strtostr+0x1b8>
9d008ee0:	24050001 	li	a1,1

Disassembly of section .text.free:

9d008ee4 <free>:
9d008ee4:	10800076 	beqz	a0,9d0090c0 <free+0x1dc>
9d008ee8:	2403fffe 	li	v1,-2
9d008eec:	8c86fffc 	lw	a2,-4(a0)
9d008ef0:	2485fff8 	addiu	a1,a0,-8
9d008ef4:	00c31824 	and	v1,a2,v1
9d008ef8:	00a31021 	addu	v0,a1,v1
9d008efc:	8c470004 	lw	a3,4(v0)
9d008f00:	30e80001 	andi	t0,a3,0x1
9d008f04:	1100006e 	beqz	t0,9d0090c0 <free+0x1dc>
9d008f08:	240afffc 	li	t2,-4
9d008f0c:	3c08a000 	lui	t0,0xa000
9d008f10:	250841f0 	addiu	t0,t0,16880
9d008f14:	8d090008 	lw	t1,8(t0)
9d008f18:	00ea3824 	and	a3,a3,t2
9d008f1c:	10490058 	beq	v0,t1,9d009080 <free+0x19c>
9d008f20:	30c60001 	andi	a2,a2,0x1
9d008f24:	ac470004 	sw	a3,4(v0)
9d008f28:	14c0000c 	bnez	a2,9d008f5c <free+0x78>
9d008f2c:	00004821 	move	t1,zero
9d008f30:	8c86fff8 	lw	a2,-8(a0)
9d008f34:	00a62823 	subu	a1,a1,a2
9d008f38:	8ca40008 	lw	a0,8(a1)
9d008f3c:	00661821 	addu	v1,v1,a2
9d008f40:	3c06a000 	lui	a2,0xa000
9d008f44:	24c641f8 	addiu	a2,a2,16888
9d008f48:	50860004 	beql	a0,a2,9d008f5c <free+0x78>
9d008f4c:	24090001 	li	t1,1
9d008f50:	8ca6000c 	lw	a2,12(a1)
9d008f54:	ac86000c 	sw	a2,12(a0)
9d008f58:	acc40008 	sw	a0,8(a2)
9d008f5c:	00472021 	addu	a0,v0,a3
9d008f60:	8c840004 	lw	a0,4(a0)
9d008f64:	30840001 	andi	a0,a0,0x1
9d008f68:	54800008 	bnezl	a0,9d008f8c <free+0xa8>
9d008f6c:	34640001 	ori	a0,v1,0x1
9d008f70:	00671821 	addu	v1,v1,a3
9d008f74:	11200027 	beqz	t1,9d009014 <free+0x130>
9d008f78:	8c440008 	lw	a0,8(v0)
9d008f7c:	8c42000c 	lw	v0,12(v0)
9d008f80:	ac82000c 	sw	v0,12(a0)
9d008f84:	ac440008 	sw	a0,8(v0)
9d008f88:	34640001 	ori	a0,v1,0x1
9d008f8c:	00a31021 	addu	v0,a1,v1
9d008f90:	aca40004 	sw	a0,4(a1)
9d008f94:	1520004a 	bnez	t1,9d0090c0 <free+0x1dc>
9d008f98:	ac430000 	sw	v1,0(v0)
9d008f9c:	2c620200 	sltiu	v0,v1,512
9d008fa0:	54400029 	bnezl	v0,9d009048 <free+0x164>
9d008fa4:	000318c2 	srl	v1,v1,0x3
9d008fa8:	00031242 	srl	v0,v1,0x9
9d008fac:	2c440005 	sltiu	a0,v0,5
9d008fb0:	1080004d 	beqz	a0,9d0090e8 <free+0x204>
9d008fb4:	2c440015 	sltiu	a0,v0,21
9d008fb8:	00032182 	srl	a0,v1,0x6
9d008fbc:	24840038 	addiu	a0,a0,56
9d008fc0:	00043040 	sll	a2,a0,0x1
9d008fc4:	00063080 	sll	a2,a2,0x2
9d008fc8:	01063021 	addu	a2,t0,a2
9d008fcc:	8cc20008 	lw	v0,8(a2)
9d008fd0:	5046004a 	beql	v0,a2,9d0090fc <free+0x218>
9d008fd4:	8d030004 	lw	v1,4(t0)
9d008fd8:	2407fffc 	li	a3,-4
9d008fdc:	8c440004 	lw	a0,4(v0)
9d008fe0:	00872024 	and	a0,a0,a3
9d008fe4:	0064202b 	sltu	a0,v1,a0
9d008fe8:	50800005 	beqzl	a0,9d009000 <free+0x11c>
9d008fec:	8c43000c 	lw	v1,12(v0)
9d008ff0:	8c420008 	lw	v0,8(v0)
9d008ff4:	54c2fffa 	bnel	a2,v0,9d008fe0 <free+0xfc>
9d008ff8:	8c440004 	lw	a0,4(v0)
9d008ffc:	8c43000c 	lw	v1,12(v0)
9d009000:	aca3000c 	sw	v1,12(a1)
9d009004:	aca20008 	sw	v0,8(a1)
9d009008:	ac650008 	sw	a1,8(v1)
9d00900c:	03e00008 	jr	ra
9d009010:	ac45000c 	sw	a1,12(v0)
9d009014:	3c06a000 	lui	a2,0xa000
9d009018:	24c641f8 	addiu	a2,a2,16888
9d00901c:	5486ffd8 	bnel	a0,a2,9d008f80 <free+0x9c>
9d009020:	8c42000c 	lw	v0,12(v0)
9d009024:	34660001 	ori	a2,v1,0x1
9d009028:	00a31021 	addu	v0,a1,v1
9d00902c:	ad050014 	sw	a1,20(t0)
9d009030:	ad050010 	sw	a1,16(t0)
9d009034:	aca4000c 	sw	a0,12(a1)
9d009038:	aca40008 	sw	a0,8(a1)
9d00903c:	aca60004 	sw	a2,4(a1)
9d009040:	03e00008 	jr	ra
9d009044:	ac430000 	sw	v1,0(v0)
9d009048:	000310c0 	sll	v0,v1,0x3
9d00904c:	01021021 	addu	v0,t0,v0
9d009050:	8d060004 	lw	a2,4(t0)
9d009054:	8c440008 	lw	a0,8(v0)
9d009058:	00031883 	sra	v1,v1,0x2
9d00905c:	24070001 	li	a3,1
9d009060:	00671804 	sllv	v1,a3,v1
9d009064:	00661825 	or	v1,v1,a2
9d009068:	aca2000c 	sw	v0,12(a1)
9d00906c:	aca40008 	sw	a0,8(a1)
9d009070:	ad030004 	sw	v1,4(t0)
9d009074:	ac450008 	sw	a1,8(v0)
9d009078:	03e00008 	jr	ra
9d00907c:	ac85000c 	sw	a1,12(a0)
9d009080:	14c00008 	bnez	a2,9d0090a4 <free+0x1c0>
9d009084:	00e33821 	addu	a3,a3,v1
9d009088:	8c84fff8 	lw	a0,-8(a0)
9d00908c:	00a42823 	subu	a1,a1,a0
9d009090:	8ca2000c 	lw	v0,12(a1)
9d009094:	8ca30008 	lw	v1,8(a1)
9d009098:	00e43821 	addu	a3,a3,a0
9d00909c:	ac62000c 	sw	v0,12(v1)
9d0090a0:	ac430008 	sw	v1,8(v0)
9d0090a4:	3c02a000 	lui	v0,0xa000
9d0090a8:	8c4241ec 	lw	v0,16876(v0)
9d0090ac:	34e30001 	ori	v1,a3,0x1
9d0090b0:	aca30004 	sw	v1,4(a1)
9d0090b4:	00e2382b 	sltu	a3,a3,v0
9d0090b8:	10e00003 	beqz	a3,9d0090c8 <free+0x1e4>
9d0090bc:	ad050008 	sw	a1,8(t0)
9d0090c0:	03e00008 	jr	ra
9d0090c4:	00000000 	nop
9d0090c8:	27bdffe8 	addiu	sp,sp,-24
9d0090cc:	afbf0014 	sw	ra,20(sp)
9d0090d0:	3c02a000 	lui	v0,0xa000
9d0090d4:	0f402a26 	jal	9d00a898 <malloc_trim>
9d0090d8:	8c444784 	lw	a0,18308(v0)
9d0090dc:	8fbf0014 	lw	ra,20(sp)
9d0090e0:	03e00008 	jr	ra
9d0090e4:	27bd0018 	addiu	sp,sp,24
9d0090e8:	5080000b 	beqzl	a0,9d009118 <free+0x234>
9d0090ec:	2c440055 	sltiu	a0,v0,85
9d0090f0:	2444005b 	addiu	a0,v0,91
9d0090f4:	0b4023f1 	j	9d008fc4 <free+0xe0>
9d0090f8:	00043040 	sll	a2,a0,0x1
9d0090fc:	00042083 	sra	a0,a0,0x2
9d009100:	24060001 	li	a2,1
9d009104:	00862004 	sllv	a0,a2,a0
9d009108:	00831825 	or	v1,a0,v1
9d00910c:	ad030004 	sw	v1,4(t0)
9d009110:	0b402400 	j	9d009000 <free+0x11c>
9d009114:	00401821 	move	v1,v0
9d009118:	50800005 	beqzl	a0,9d009130 <free+0x24c>
9d00911c:	2c440155 	sltiu	a0,v0,341
9d009120:	00032302 	srl	a0,v1,0xc
9d009124:	2484006e 	addiu	a0,a0,110
9d009128:	0b4023f1 	j	9d008fc4 <free+0xe0>
9d00912c:	00043040 	sll	a2,a0,0x1
9d009130:	10800005 	beqz	a0,9d009148 <free+0x264>
9d009134:	2c420555 	sltiu	v0,v0,1365
9d009138:	000323c2 	srl	a0,v1,0xf
9d00913c:	24840077 	addiu	a0,a0,119
9d009140:	0b4023f1 	j	9d008fc4 <free+0xe0>
9d009144:	00043040 	sll	a2,a0,0x1
9d009148:	50400005 	beqzl	v0,9d009160 <free+0x27c>
9d00914c:	240600fc 	li	a2,252
9d009150:	00032482 	srl	a0,v1,0x12
9d009154:	2484007c 	addiu	a0,a0,124
9d009158:	0b4023f1 	j	9d008fc4 <free+0xe0>
9d00915c:	00043040 	sll	a2,a0,0x1
9d009160:	0b4023f1 	j	9d008fc4 <free+0xe0>
9d009164:	2404007e 	li	a0,126

Disassembly of section .text.strtoul:

9d009168 <strtoul>:
9d009168:	80820000 	lb	v0,0(a0)
9d00916c:	10400089 	beqz	v0,9d009394 <strtoul+0x22c>
9d009170:	00001821 	move	v1,zero
9d009174:	3c089d01 	lui	t0,0x9d01
9d009178:	2508a9a1 	addiu	t0,t0,-22111
9d00917c:	01021821 	addu	v1,t0,v0
9d009180:	80630000 	lb	v1,0(v1)
9d009184:	30630088 	andi	v1,v1,0x88
9d009188:	14600007 	bnez	v1,9d0091a8 <strtoul+0x40>
9d00918c:	00803821 	move	a3,a0
9d009190:	0b4024be 	j	9d0092f8 <strtoul+0x190>
9d009194:	2403002b 	li	v1,43
9d009198:	80630000 	lb	v1,0(v1)
9d00919c:	30630088 	andi	v1,v1,0x88
9d0091a0:	50600055 	beqzl	v1,9d0092f8 <strtoul+0x190>
9d0091a4:	2403002b 	li	v1,43
9d0091a8:	24e70001 	addiu	a3,a3,1
9d0091ac:	80e20000 	lb	v0,0(a3)
9d0091b0:	1440fff9 	bnez	v0,9d009198 <strtoul+0x30>
9d0091b4:	01021821 	addu	v1,t0,v0
9d0091b8:	00001821 	move	v1,zero
9d0091bc:	0000c021 	move	t8,zero
9d0091c0:	14c00041 	bnez	a2,9d0092c8 <strtoul+0x160>
9d0091c4:	24020010 	li	v0,16
9d0091c8:	24020030 	li	v0,48
9d0091cc:	1062005d 	beq	v1,v0,9d009344 <strtoul+0x1dc>
9d0091d0:	3c0d1999 	lui	t5,0x1999
9d0091d4:	35ad9999 	ori	t5,t5,0x9999
9d0091d8:	240f000a 	li	t7,10
9d0091dc:	00005821 	move	t3,zero
9d0091e0:	2406000a 	li	a2,10
9d0091e4:	24e7ffff 	addiu	a3,a3,-1
9d0091e8:	00005021 	move	t2,zero
9d0091ec:	00001021 	move	v0,zero
9d0091f0:	3c0c9d01 	lui	t4,0x9d01
9d0091f4:	258ca9a1 	addiu	t4,t4,-22111
9d0091f8:	24190061 	li	t9,97
9d0091fc:	240e0041 	li	t6,65
9d009200:	10600019 	beqz	v1,9d009268 <strtoul+0x100>
9d009204:	24e70001 	addiu	a3,a3,1
9d009208:	006c4021 	addu	t0,v1,t4
9d00920c:	91080000 	lbu	t0,0(t0)
9d009210:	31090004 	andi	t1,t0,0x4
9d009214:	11200023 	beqz	t1,9d0092a4 <strtoul+0x13c>
9d009218:	31090003 	andi	t1,t0,0x3
9d00921c:	2463ffd0 	addiu	v1,v1,-48
9d009220:	04600011 	bltz	v1,9d009268 <strtoul+0x100>
9d009224:	0066402a 	slt	t0,v1,a2
9d009228:	1100000f 	beqz	t0,9d009268 <strtoul+0x100>
9d00922c:	01a2402b 	sltu	t0,t5,v0
9d009230:	55000019 	bnezl	t0,9d009298 <strtoul+0x130>
9d009234:	240a0001 	li	t2,1
9d009238:	55400008 	bnezl	t2,9d00925c <strtoul+0xf4>
9d00923c:	80e30001 	lb	v1,1(a3)
9d009240:	704f1002 	mul	v0,v0,t7
9d009244:	00024027 	nor	t0,zero,v0
9d009248:	0103402b 	sltu	t0,t0,v1
9d00924c:	55000012 	bnezl	t0,9d009298 <strtoul+0x130>
9d009250:	240a0001 	li	t2,1
9d009254:	00431021 	addu	v0,v0,v1
9d009258:	80e30001 	lb	v1,1(a3)
9d00925c:	240b0001 	li	t3,1
9d009260:	1460ffe9 	bnez	v1,9d009208 <strtoul+0xa0>
9d009264:	24e70001 	addiu	a3,a3,1
9d009268:	1300001f 	beqz	t8,9d0092e8 <strtoul+0x180>
9d00926c:	00000000 	nop
9d009270:	11400005 	beqz	t2,9d009288 <strtoul+0x120>
9d009274:	00021023 	negu	v0,v0
9d009278:	24030022 	li	v1,34
9d00927c:	3c02a000 	lui	v0,0xa000
9d009280:	ac430044 	sw	v1,68(v0)
9d009284:	2402ffff 	li	v0,-1
9d009288:	10a0000d 	beqz	a1,9d0092c0 <strtoul+0x158>
9d00928c:	008b380a 	movz	a3,a0,t3
9d009290:	03e00008 	jr	ra
9d009294:	aca70000 	sw	a3,0(a1)
9d009298:	80e30001 	lb	v1,1(a3)
9d00929c:	0b402498 	j	9d009260 <strtoul+0xf8>
9d0092a0:	240b0001 	li	t3,1
9d0092a4:	1120fff0 	beqz	t1,9d009268 <strtoul+0x100>
9d0092a8:	31080001 	andi	t0,t0,0x1
9d0092ac:	01c04821 	move	t1,t6
9d0092b0:	0328480a 	movz	t1,t9,t0
9d0092b4:	00691823 	subu	v1,v1,t1
9d0092b8:	0b402488 	j	9d009220 <strtoul+0xb8>
9d0092bc:	2463000a 	addiu	v1,v1,10
9d0092c0:	03e00008 	jr	ra
9d0092c4:	00000000 	nop
9d0092c8:	10c20017 	beq	a2,v0,9d009328 <strtoul+0x1c0>
9d0092cc:	240dffff 	li	t5,-1
9d0092d0:	00c07821 	move	t7,a2
9d0092d4:	01a6001b 	divu	zero,t5,a2
9d0092d8:	00c001f4 	teq	a2,zero,0x7
9d0092dc:	00006812 	mflo	t5
9d0092e0:	0b402479 	j	9d0091e4 <strtoul+0x7c>
9d0092e4:	00005821 	move	t3,zero
9d0092e8:	1540ffe4 	bnez	t2,9d00927c <strtoul+0x114>
9d0092ec:	24030022 	li	v1,34
9d0092f0:	0b4024a2 	j	9d009288 <strtoul+0x120>
9d0092f4:	00000000 	nop
9d0092f8:	54430006 	bnel	v0,v1,9d009314 <strtoul+0x1ac>
9d0092fc:	2403002d 	li	v1,45
9d009300:	3842002d 	xori	v0,v0,0x2d
9d009304:	80e30001 	lb	v1,1(a3)
9d009308:	2c580001 	sltiu	t8,v0,1
9d00930c:	0b402470 	j	9d0091c0 <strtoul+0x58>
9d009310:	24e70001 	addiu	a3,a3,1
9d009314:	5043fffb 	beql	v0,v1,9d009304 <strtoul+0x19c>
9d009318:	3842002d 	xori	v0,v0,0x2d
9d00931c:	80e30000 	lb	v1,0(a3)
9d009320:	0b402470 	j	9d0091c0 <strtoul+0x58>
9d009324:	0000c021 	move	t8,zero
9d009328:	24020030 	li	v0,48
9d00932c:	1062001c 	beq	v1,v0,9d0093a0 <strtoul+0x238>
9d009330:	3c0d0fff 	lui	t5,0xfff
9d009334:	35adffff 	ori	t5,t5,0xffff
9d009338:	240f0010 	li	t7,16
9d00933c:	0b402479 	j	9d0091e4 <strtoul+0x7c>
9d009340:	00005821 	move	t3,zero
9d009344:	80e30001 	lb	v1,1(a3)
9d009348:	2406ffdf 	li	a2,-33
9d00934c:	00663024 	and	a2,v1,a2
9d009350:	24020058 	li	v0,88
9d009354:	50c20008 	beql	a2,v0,9d009378 <strtoul+0x210>
9d009358:	80e30002 	lb	v1,2(a3)
9d00935c:	24e70001 	addiu	a3,a3,1
9d009360:	3c0d1fff 	lui	t5,0x1fff
9d009364:	35adffff 	ori	t5,t5,0xffff
9d009368:	240f0008 	li	t7,8
9d00936c:	240b0001 	li	t3,1
9d009370:	0b402479 	j	9d0091e4 <strtoul+0x7c>
9d009374:	24060008 	li	a2,8
9d009378:	3c0d0fff 	lui	t5,0xfff
9d00937c:	35adffff 	ori	t5,t5,0xffff
9d009380:	24e70002 	addiu	a3,a3,2
9d009384:	240f0010 	li	t7,16
9d009388:	240b0001 	li	t3,1
9d00938c:	0b402479 	j	9d0091e4 <strtoul+0x7c>
9d009390:	24060010 	li	a2,16
9d009394:	00803821 	move	a3,a0
9d009398:	0b402470 	j	9d0091c0 <strtoul+0x58>
9d00939c:	0000c021 	move	t8,zero
9d0093a0:	80e30001 	lb	v1,1(a3)
9d0093a4:	2408ffdf 	li	t0,-33
9d0093a8:	00684024 	and	t0,v1,t0
9d0093ac:	24020058 	li	v0,88
9d0093b0:	51020007 	beql	t0,v0,9d0093d0 <strtoul+0x268>
9d0093b4:	80e30002 	lb	v1,2(a3)
9d0093b8:	24e70001 	addiu	a3,a3,1
9d0093bc:	3c0d0fff 	lui	t5,0xfff
9d0093c0:	35adffff 	ori	t5,t5,0xffff
9d0093c4:	240f0010 	li	t7,16
9d0093c8:	0b402479 	j	9d0091e4 <strtoul+0x7c>
9d0093cc:	240b0001 	li	t3,1
9d0093d0:	3c0d0fff 	lui	t5,0xfff
9d0093d4:	35adffff 	ori	t5,t5,0xffff
9d0093d8:	24e70002 	addiu	a3,a3,2
9d0093dc:	240f0010 	li	t7,16
9d0093e0:	0b402479 	j	9d0091e4 <strtoul+0x7c>
9d0093e4:	240b0001 	li	t3,1

Disassembly of section .text.strtol:

9d0093e8 <strtol>:
9d0093e8:	80820000 	lb	v0,0(a0)
9d0093ec:	1040008a 	beqz	v0,9d009618 <strtol+0x230>
9d0093f0:	00001821 	move	v1,zero
9d0093f4:	3c089d01 	lui	t0,0x9d01
9d0093f8:	2508a9a1 	addiu	t0,t0,-22111
9d0093fc:	01021821 	addu	v1,t0,v0
9d009400:	80630000 	lb	v1,0(v1)
9d009404:	30630088 	andi	v1,v1,0x88
9d009408:	14600007 	bnez	v1,9d009428 <strtol+0x40>
9d00940c:	00803821 	move	a3,a0
9d009410:	0b402562 	j	9d009588 <strtol+0x1a0>
9d009414:	2403002b 	li	v1,43
9d009418:	80630000 	lb	v1,0(v1)
9d00941c:	30630088 	andi	v1,v1,0x88
9d009420:	50600059 	beqzl	v1,9d009588 <strtol+0x1a0>
9d009424:	2403002b 	li	v1,43
9d009428:	24e70001 	addiu	a3,a3,1
9d00942c:	80e20000 	lb	v0,0(a3)
9d009430:	1440fff9 	bnez	v0,9d009418 <strtol+0x30>
9d009434:	01021821 	addu	v1,t0,v0
9d009438:	00001821 	move	v1,zero
9d00943c:	0000c021 	move	t8,zero
9d009440:	14c00042 	bnez	a2,9d00954c <strtol+0x164>
9d009444:	24020010 	li	v0,16
9d009448:	24020030 	li	v0,48
9d00944c:	10620060 	beq	v1,v0,9d0095d0 <strtol+0x1e8>
9d009450:	3c0d0ccc 	lui	t5,0xccc
9d009454:	35adcccc 	ori	t5,t5,0xcccc
9d009458:	00005821 	move	t3,zero
9d00945c:	2406000a 	li	a2,10
9d009460:	24e7ffff 	addiu	a3,a3,-1
9d009464:	00005021 	move	t2,zero
9d009468:	00001021 	move	v0,zero
9d00946c:	3c0c9d01 	lui	t4,0x9d01
9d009470:	258ca9a1 	addiu	t4,t4,-22111
9d009474:	240f0061 	li	t7,97
9d009478:	240e0041 	li	t6,65
9d00947c:	3c197fff 	lui	t9,0x7fff
9d009480:	3739ffff 	ori	t9,t9,0xffff
9d009484:	10600019 	beqz	v1,9d0094ec <strtol+0x104>
9d009488:	24e70001 	addiu	a3,a3,1
9d00948c:	006c4021 	addu	t0,v1,t4
9d009490:	91080000 	lbu	t0,0(t0)
9d009494:	31090004 	andi	t1,t0,0x4
9d009498:	11200023 	beqz	t1,9d009528 <strtol+0x140>
9d00949c:	31090003 	andi	t1,t0,0x3
9d0094a0:	2463ffd0 	addiu	v1,v1,-48
9d0094a4:	04600011 	bltz	v1,9d0094ec <strtol+0x104>
9d0094a8:	0066402a 	slt	t0,v1,a2
9d0094ac:	1100000f 	beqz	t0,9d0094ec <strtol+0x104>
9d0094b0:	01a2402a 	slt	t0,t5,v0
9d0094b4:	55000019 	bnezl	t0,9d00951c <strtol+0x134>
9d0094b8:	240a0001 	li	t2,1
9d0094bc:	55400017 	bnezl	t2,9d00951c <strtol+0x134>
9d0094c0:	240a0001 	li	t2,1
9d0094c4:	70461002 	mul	v0,v0,a2
9d0094c8:	03224023 	subu	t0,t9,v0
9d0094cc:	0103402a 	slt	t0,t0,v1
9d0094d0:	55000012 	bnezl	t0,9d00951c <strtol+0x134>
9d0094d4:	240a0001 	li	t2,1
9d0094d8:	00431021 	addu	v0,v0,v1
9d0094dc:	80e30001 	lb	v1,1(a3)
9d0094e0:	240b0001 	li	t3,1
9d0094e4:	1460ffe9 	bnez	v1,9d00948c <strtol+0xa4>
9d0094e8:	24e70001 	addiu	a3,a3,1
9d0094ec:	1300001f 	beqz	t8,9d00956c <strtol+0x184>
9d0094f0:	00000000 	nop
9d0094f4:	11400005 	beqz	t2,9d00950c <strtol+0x124>
9d0094f8:	00021023 	negu	v0,v0
9d0094fc:	24030022 	li	v1,34
9d009500:	3c02a000 	lui	v0,0xa000
9d009504:	ac430044 	sw	v1,68(v0)
9d009508:	3c028000 	lui	v0,0x8000
9d00950c:	10a0000d 	beqz	a1,9d009544 <strtol+0x15c>
9d009510:	008b380a 	movz	a3,a0,t3
9d009514:	03e00008 	jr	ra
9d009518:	aca70000 	sw	a3,0(a1)
9d00951c:	80e30001 	lb	v1,1(a3)
9d009520:	0b402539 	j	9d0094e4 <strtol+0xfc>
9d009524:	240b0001 	li	t3,1
9d009528:	1120fff0 	beqz	t1,9d0094ec <strtol+0x104>
9d00952c:	31080001 	andi	t0,t0,0x1
9d009530:	01c04821 	move	t1,t6
9d009534:	01e8480a 	movz	t1,t7,t0
9d009538:	00691823 	subu	v1,v1,t1
9d00953c:	0b402529 	j	9d0094a4 <strtol+0xbc>
9d009540:	2463000a 	addiu	v1,v1,10
9d009544:	03e00008 	jr	ra
9d009548:	00000000 	nop
9d00954c:	10c2001a 	beq	a2,v0,9d0095b8 <strtol+0x1d0>
9d009550:	3c0d7fff 	lui	t5,0x7fff
9d009554:	35adffff 	ori	t5,t5,0xffff
9d009558:	01a6001a 	div	zero,t5,a2
9d00955c:	00c001f4 	teq	a2,zero,0x7
9d009560:	00006812 	mflo	t5
9d009564:	0b402518 	j	9d009460 <strtol+0x78>
9d009568:	00005821 	move	t3,zero
9d00956c:	1140ffe7 	beqz	t2,9d00950c <strtol+0x124>
9d009570:	24030022 	li	v1,34
9d009574:	3c02a000 	lui	v0,0xa000
9d009578:	ac430044 	sw	v1,68(v0)
9d00957c:	3c027fff 	lui	v0,0x7fff
9d009580:	0b402543 	j	9d00950c <strtol+0x124>
9d009584:	3442ffff 	ori	v0,v0,0xffff
9d009588:	54430006 	bnel	v0,v1,9d0095a4 <strtol+0x1bc>
9d00958c:	2403002d 	li	v1,45
9d009590:	3842002d 	xori	v0,v0,0x2d
9d009594:	80e30001 	lb	v1,1(a3)
9d009598:	2c580001 	sltiu	t8,v0,1
9d00959c:	0b402510 	j	9d009440 <strtol+0x58>
9d0095a0:	24e70001 	addiu	a3,a3,1
9d0095a4:	5043fffb 	beql	v0,v1,9d009594 <strtol+0x1ac>
9d0095a8:	3842002d 	xori	v0,v0,0x2d
9d0095ac:	80e30000 	lb	v1,0(a3)
9d0095b0:	0b402510 	j	9d009440 <strtol+0x58>
9d0095b4:	0000c021 	move	t8,zero
9d0095b8:	24020030 	li	v0,48
9d0095bc:	10620019 	beq	v1,v0,9d009624 <strtol+0x23c>
9d0095c0:	3c0d07ff 	lui	t5,0x7ff
9d0095c4:	35adffff 	ori	t5,t5,0xffff
9d0095c8:	0b402518 	j	9d009460 <strtol+0x78>
9d0095cc:	00005821 	move	t3,zero
9d0095d0:	80e30001 	lb	v1,1(a3)
9d0095d4:	2406ffdf 	li	a2,-33
9d0095d8:	00663024 	and	a2,v1,a2
9d0095dc:	24020058 	li	v0,88
9d0095e0:	50c20007 	beql	a2,v0,9d009600 <strtol+0x218>
9d0095e4:	80e30002 	lb	v1,2(a3)
9d0095e8:	24e70001 	addiu	a3,a3,1
9d0095ec:	3c0d0fff 	lui	t5,0xfff
9d0095f0:	35adffff 	ori	t5,t5,0xffff
9d0095f4:	240b0001 	li	t3,1
9d0095f8:	0b402518 	j	9d009460 <strtol+0x78>
9d0095fc:	24060008 	li	a2,8
9d009600:	3c0d07ff 	lui	t5,0x7ff
9d009604:	35adffff 	ori	t5,t5,0xffff
9d009608:	24e70002 	addiu	a3,a3,2
9d00960c:	240b0001 	li	t3,1
9d009610:	0b402518 	j	9d009460 <strtol+0x78>
9d009614:	24060010 	li	a2,16
9d009618:	00803821 	move	a3,a0
9d00961c:	0b402510 	j	9d009440 <strtol+0x58>
9d009620:	0000c021 	move	t8,zero
9d009624:	80e30001 	lb	v1,1(a3)
9d009628:	2408ffdf 	li	t0,-33
9d00962c:	00684024 	and	t0,v1,t0
9d009630:	24020058 	li	v0,88
9d009634:	51020006 	beql	t0,v0,9d009650 <strtol+0x268>
9d009638:	80e30002 	lb	v1,2(a3)
9d00963c:	24e70001 	addiu	a3,a3,1
9d009640:	3c0d07ff 	lui	t5,0x7ff
9d009644:	35adffff 	ori	t5,t5,0xffff
9d009648:	0b402518 	j	9d009460 <strtol+0x78>
9d00964c:	240b0001 	li	t3,1
9d009650:	3c0d07ff 	lui	t5,0x7ff
9d009654:	35adffff 	ori	t5,t5,0xffff
9d009658:	24e70002 	addiu	a3,a3,2
9d00965c:	0b402518 	j	9d009460 <strtol+0x78>
9d009660:	240b0001 	li	t3,1

Disassembly of section .text.fpsubadd:

9d009664 <__subsf3>:
9d009664:	3c018000 00a12826                       ...<&(..

9d00966c <__addsf3>:
9d00966c:	00044dc2 312900ff 00055dc2 316b00ff     .M....)1.]....k1
9d00967c:	3c078000 00044200 01074025 00055200     ...<.B..%@...R..
9d00968c:	01475025 252dffff 2da100fe 10200061     %PG...-%...-a. .
9d00969c:	00000000                                ....

9d0096a0 <Blab1>:
9d0096a0:	256dffff 	addiu	t5,t3,-1
9d0096a4:	2da100fe 	sltiu	at,t5,254
9d0096a8:	10200077 	beqz	at,9d009888 <BspecB>
9d0096ac:	00000000 	nop

9d0096b0 <Blab2>:
9d0096b0:	012b6023 	subu	t4,t1,t3
9d0096b4:	0580000d 	bltz	t4,9d0096ec <i1>
9d0096b8:	00000000 	nop
9d0096bc:	29810020 	slti	at,t4,32
9d0096c0:	14200003 	bnez	at,9d0096d0 <i2>
9d0096c4:	00000000 	nop
9d0096c8:	10000015 	b	9d009720 <e1>
9d0096cc:	240a0002 	li	t2,2

9d0096d0 <i2>:
9d0096d0:	000a3025 	or	a2,zero,t2
9d0096d4:	018a5006 	srlv	t2,t2,t4
9d0096d8:	018a6804 	sllv	t5,t2,t4
9d0096dc:	11a60010 	beq	t5,a2,9d009720 <e1>
9d0096e0:	00000000 	nop
9d0096e4:	1000000e 	b	9d009720 <e1>
9d0096e8:	354a0002 	ori	t2,t2,0x2

9d0096ec <i1>:
9d0096ec:	000b4825 	or	t1,zero,t3
9d0096f0:	000c6023 	negu	t4,t4
9d0096f4:	29810020 	slti	at,t4,32
9d0096f8:	14200003 	bnez	at,9d009708 <i4>
9d0096fc:	00000000 	nop
9d009700:	10000007 	b	9d009720 <e1>
9d009704:	24080002 	li	t0,2

9d009708 <i4>:
9d009708:	00083025 	or	a2,zero,t0
9d00970c:	01884006 	srlv	t0,t0,t4
9d009710:	01886804 	sllv	t5,t0,t4
9d009714:	11a60002 	beq	t5,a2,9d009720 <e1>
9d009718:	00000000 	nop
9d00971c:	35080002 	ori	t0,t0,0x2

9d009720 <e1>:
9d009720:	00876024 	and	t4,a0,a3
9d009724:	01856826 	xor	t5,t4,a1
9d009728:	05a00010 	bltz	t5,9d00976c <Bsub1>
9d00972c:	00000000 	nop
9d009730:	010a4021 	addu	t0,t0,t2
9d009734:	010a682b 	sltu	t5,t0,t2
9d009738:	11a00017 	beqz	t5,9d009798 <Bres>
9d00973c:	00000000 	nop
9d009740:	310d0001 	andi	t5,t0,0x1
9d009744:	11a00002 	beqz	t5,9d009750 <i7>
9d009748:	00000000 	nop
9d00974c:	35080002 	ori	t0,t0,0x2

9d009750 <i7>:
9d009750:	00084042 	srl	t0,t0,0x1
9d009754:	25290001 	addiu	t1,t1,1
9d009758:	240100ff 	li	at,255
9d00975c:	1521000e 	bne	t1,at,9d009798 <Bres>
9d009760:	00000000 	nop
9d009764:	1000000c 	b	9d009798 <Bres>
9d009768:	24080000 	li	t0,0

9d00976c <Bsub1>:
9d00976c:	010a682b 	sltu	t5,t0,t2
9d009770:	11a00004 	beqz	t5,9d009784 <i9>
9d009774:	010a4023 	subu	t0,t0,t2
9d009778:	00084023 	negu	t0,t0
9d00977c:	10000003 	b	9d00978c <e9>
9d009780:	01876026 	xor	t4,t4,a3

9d009784 <i9>:
9d009784:	11000050 	beqz	t0,9d0098c8 <Bzer>
9d009788:	00000000 	nop

9d00978c <e9>:
9d00978c:	71063020 	clz	a2,t0
9d009790:	01264823 	subu	t1,t1,a2
9d009794:	00c84004 	sllv	t0,t0,a2

9d009798 <Bres>:
9d009798:	1920000e 	blez	t1,9d0097d4 <Bund>
9d00979c:	00000000 	nop

9d0097a0 <Blab12>:
9d0097a0:	25080080 	addiu	t0,t0,128
9d0097a4:	2d0d0080 	sltiu	t5,t0,128
9d0097a8:	012d4821 	addu	t1,t1,t5
9d0097ac:	00086a02 	srl	t5,t0,0x8
9d0097b0:	31ad0001 	andi	t5,t5,0x1
9d0097b4:	010d4023 	subu	t0,t0,t5
9d0097b8:	00084040 	sll	t0,t0,0x1
9d0097bc:	00084242 	srl	t0,t0,0x9
9d0097c0:	00096dc0 	sll	t5,t1,0x17
9d0097c4:	010d4025 	or	t0,t0,t5
9d0097c8:	010c1025 	or	v0,t0,t4

9d0097cc <B999>:
9d0097cc:	03e00008 	jr	ra
9d0097d0:	00000000 	nop

9d0097d4 <Bund>:
9d0097d4:	24060001 	li	a2,1
9d0097d8:	00c93023 	subu	a2,a2,t1
9d0097dc:	2cc10020 	sltiu	at,a2,32
9d0097e0:	10200039 	beqz	at,9d0098c8 <Bzer>
9d0097e4:	00000000 	nop
9d0097e8:	3c018000 	lui	at,0x8000
9d0097ec:	01014025 	or	t0,t0,at
9d0097f0:	240d0020 	li	t5,32
9d0097f4:	01a66823 	subu	t5,t5,a2
9d0097f8:	01a84804 	sllv	t1,t0,t5
9d0097fc:	11200002 	beqz	t1,9d009808 <i10>
9d009800:	00c84006 	srlv	t0,t0,a2
9d009804:	35080001 	ori	t0,t0,0x1

9d009808 <i10>:
9d009808:	24090000 	li	t1,0
9d00980c:	250d0080 	addiu	t5,t0,128
9d009810:	05a1ffe3 	bgez	t5,9d0097a0 <Blab12>
9d009814:	00000000 	nop
9d009818:	1000ffe1 	b	9d0097a0 <Blab12>
9d00981c:	24090001 	li	t1,1

9d009820 <BspecA>:
9d009820:	1520000e 	bnez	t1,9d00985c <i12>
9d009824:	00000000 	nop
9d009828:	01084021 	addu	t0,t0,t0
9d00982c:	11000005 	beqz	t0,9d009844 <i13>
9d009830:	00000000 	nop
9d009834:	710c6020 	clz	t4,t0
9d009838:	012c4823 	subu	t1,t1,t4
9d00983c:	1000ff98 	b	9d0096a0 <Blab1>
9d009840:	01884004 	sllv	t0,t0,t4

9d009844 <i13>:
9d009844:	240100ff 	li	at,255
9d009848:	1161000f 	beq	t3,at,9d009888 <BspecB>
9d00984c:	00000000 	nop
9d009850:	3c018000 	lui	at,0x8000
9d009854:	14a10018 	bne	a1,at,9d0098b8 <BretB>
9d009858:	00000000 	nop

9d00985c <i12>:
9d00985c:	01086821 	addu	t5,t0,t0
9d009860:	15a0001b 	bnez	t5,9d0098d0 <Bnan>
9d009864:	00000000 	nop
9d009868:	240100ff 	li	at,255
9d00986c:	15610014 	bne	t3,at,9d0098c0 <BretA>
9d009870:	00000000 	nop
9d009874:	00856826 	xor	t5,a0,a1
9d009878:	05a00015 	bltz	t5,9d0098d0 <Bnan>
9d00987c:	00000000 	nop
9d009880:	1000000d 	b	9d0098b8 <BretB>
9d009884:	00000000 	nop

9d009888 <BspecB>:
9d009888:	15600008 	bnez	t3,9d0098ac <i15>
9d00988c:	00000000 	nop
9d009890:	014a5021 	addu	t2,t2,t2
9d009894:	1140000a 	beqz	t2,9d0098c0 <BretA>
9d009898:	00000000 	nop
9d00989c:	714c6020 	clz	t4,t2
9d0098a0:	016c5823 	subu	t3,t3,t4
9d0098a4:	1000ff82 	b	9d0096b0 <Blab2>
9d0098a8:	018a5004 	sllv	t2,t2,t4

9d0098ac <i15>:
9d0098ac:	014a6821 	addu	t5,t2,t2
9d0098b0:	15a00007 	bnez	t5,9d0098d0 <Bnan>
9d0098b4:	00000000 	nop

9d0098b8 <BretB>:
9d0098b8:	1000ffc4 	b	9d0097cc <B999>
9d0098bc:	00051025 	or	v0,zero,a1

9d0098c0 <BretA>:
9d0098c0:	1000ffc2 	b	9d0097cc <B999>
9d0098c4:	00041025 	or	v0,zero,a0

9d0098c8 <Bzer>:
9d0098c8:	1000ffc0 	b	9d0097cc <B999>
9d0098cc:	24020000 	li	v0,0

9d0098d0 <Bnan>:
9d0098d0:	1000ffbe 	b	9d0097cc <B999>
9d0098d4:	3c02ffc0 	lui	v0,0xffc0
9d0098d8:	00000000 	nop

Disassembly of section .text:

9d0098dc <encoder_command>:
#include "encoder.h"                   

static int encoder_command(int read) { // send a command to the encoder chip
9d0098dc:	27bdfff8 	addiu	sp,sp,-8
9d0098e0:	afbe0004 	sw	s8,4(sp)
9d0098e4:	03a0f021 	move	s8,sp
9d0098e8:	afc40008 	sw	a0,8(s8)
                                       // 0 = reset count to 32,768, 1 = return the count
  SPI4BUF = read;                      // send the command
9d0098ec:	8fc30008 	lw	v1,8(s8)
9d0098f0:	3c02bf80 	lui	v0,0xbf80
9d0098f4:	ac435c20 	sw	v1,23584(v0)
  while (!SPI4STATbits.SPIRBF) { ; }   // wait for the response
9d0098f8:	00000000 	nop
9d0098fc:	3c02bf80 	lui	v0,0xbf80
9d009900:	8c425c10 	lw	v0,23568(v0)
9d009904:	30420001 	andi	v0,v0,0x1
9d009908:	1040fffc 	beqz	v0,9d0098fc <encoder_command+0x20>
9d00990c:	00000000 	nop
  SPI4BUF;                             // garbage was transferred, ignore it
9d009910:	3c02bf80 	lui	v0,0xbf80
9d009914:	8c425c20 	lw	v0,23584(v0)
  SPI4BUF = 5;                         // write garbage, but the read will have the data
9d009918:	3c02bf80 	lui	v0,0xbf80
9d00991c:	24030005 	li	v1,5
9d009920:	ac435c20 	sw	v1,23584(v0)
  while (!SPI4STATbits.SPIRBF) { ; }
9d009924:	00000000 	nop
9d009928:	3c02bf80 	lui	v0,0xbf80
9d00992c:	8c425c10 	lw	v0,23568(v0)
9d009930:	30420001 	andi	v0,v0,0x1
9d009934:	1040fffc 	beqz	v0,9d009928 <encoder_command+0x4c>
9d009938:	00000000 	nop
  return SPI4BUF;
9d00993c:	3c02bf80 	lui	v0,0xbf80
9d009940:	8c425c20 	lw	v0,23584(v0)
}
9d009944:	03c0e821 	move	sp,s8
9d009948:	8fbe0004 	lw	s8,4(sp)
9d00994c:	27bd0008 	addiu	sp,sp,8
9d009950:	03e00008 	jr	ra
9d009954:	00000000 	nop

9d009958 <encoder_counts>:

int encoder_counts(void) {
9d009958:	27bdffe8 	addiu	sp,sp,-24
9d00995c:	afbf0014 	sw	ra,20(sp)
9d009960:	afbe0010 	sw	s8,16(sp)
9d009964:	03a0f021 	move	s8,sp
  encoder_command(1);
9d009968:	24040001 	li	a0,1
9d00996c:	0f402637 	jal	9d0098dc <encoder_command>
9d009970:	00000000 	nop
  return encoder_command(1);
9d009974:	24040001 	li	a0,1
9d009978:	0f402637 	jal	9d0098dc <encoder_command>
9d00997c:	00000000 	nop
}
9d009980:	03c0e821 	move	sp,s8
9d009984:	8fbf0014 	lw	ra,20(sp)
9d009988:	8fbe0010 	lw	s8,16(sp)
9d00998c:	27bd0018 	addiu	sp,sp,24
9d009990:	03e00008 	jr	ra
9d009994:	00000000 	nop

9d009998 <encoder_degs>:

int encoder_degs(void) {
9d009998:	27bdffe0 	addiu	sp,sp,-32
9d00999c:	afbf001c 	sw	ra,28(sp)
9d0099a0:	afbe0018 	sw	s8,24(sp)
9d0099a4:	03a0f021 	move	s8,sp
  encoder_command(1);
9d0099a8:	24040001 	li	a0,1
9d0099ac:	0f402637 	jal	9d0098dc <encoder_command>
9d0099b0:	00000000 	nop
  int counts, degs;
  counts = encoder_command(1);
9d0099b4:	24040001 	li	a0,1
9d0099b8:	0f402637 	jal	9d0098dc <encoder_command>
9d0099bc:	00000000 	nop
9d0099c0:	afc20010 	sw	v0,16(s8)
  degs = (counts - 32768) * 360 / 1792;
9d0099c4:	8fc20010 	lw	v0,16(s8)
9d0099c8:	24428000 	addiu	v0,v0,-32768
9d0099cc:	00401821 	move	v1,v0
9d0099d0:	000310c0 	sll	v0,v1,0x3
9d0099d4:	00401821 	move	v1,v0
9d0099d8:	00031080 	sll	v0,v1,0x2
9d0099dc:	00431023 	subu	v0,v0,v1
9d0099e0:	00021900 	sll	v1,v0,0x4
9d0099e4:	00621023 	subu	v0,v1,v0
9d0099e8:	3c039249 	lui	v1,0x9249
9d0099ec:	34632493 	ori	v1,v1,0x2493
9d0099f0:	00430018 	mult	v0,v1
9d0099f4:	00001810 	mfhi	v1
9d0099f8:	00621821 	addu	v1,v1,v0
9d0099fc:	00031a83 	sra	v1,v1,0xa
9d009a00:	000217c3 	sra	v0,v0,0x1f
9d009a04:	00621023 	subu	v0,v1,v0
9d009a08:	afc20014 	sw	v0,20(s8)
  return degs;
9d009a0c:	8fc20014 	lw	v0,20(s8)
}
9d009a10:	03c0e821 	move	sp,s8
9d009a14:	8fbf001c 	lw	ra,28(sp)
9d009a18:	8fbe0018 	lw	s8,24(sp)
9d009a1c:	27bd0020 	addiu	sp,sp,32
9d009a20:	03e00008 	jr	ra
9d009a24:	00000000 	nop

9d009a28 <encoder_reset>:

void encoder_reset(void) {
9d009a28:	27bdffe8 	addiu	sp,sp,-24
9d009a2c:	afbf0014 	sw	ra,20(sp)
9d009a30:	afbe0010 	sw	s8,16(sp)
9d009a34:	03a0f021 	move	s8,sp
  encoder_command(0);
9d009a38:	00002021 	move	a0,zero
9d009a3c:	0f402637 	jal	9d0098dc <encoder_command>
9d009a40:	00000000 	nop
  encoder_command(0);
9d009a44:	00002021 	move	a0,zero
9d009a48:	0f402637 	jal	9d0098dc <encoder_command>
9d009a4c:	00000000 	nop
}
9d009a50:	03c0e821 	move	sp,s8
9d009a54:	8fbf0014 	lw	ra,20(sp)
9d009a58:	8fbe0010 	lw	s8,16(sp)
9d009a5c:	27bd0018 	addiu	sp,sp,24
9d009a60:	03e00008 	jr	ra
9d009a64:	00000000 	nop

9d009a68 <encoder_init>:

void encoder_init(void) {
9d009a68:	27bdffe8 	addiu	sp,sp,-24
9d009a6c:	afbf0014 	sw	ra,20(sp)
9d009a70:	afbe0010 	sw	s8,16(sp)
9d009a74:	03a0f021 	move	s8,sp
  // SPI initialization for reading from the decoder chip
  SPI4CON = 0;              // stop and reset SPI4
9d009a78:	3c02bf80 	lui	v0,0xbf80
9d009a7c:	ac405c00 	sw	zero,23552(v0)
  SPI4BUF;                  // read to clear the rx receive buffer
9d009a80:	3c02bf80 	lui	v0,0xbf80
9d009a84:	8c425c20 	lw	v0,23584(v0)
  SPI4BRG = 0x4;            // bit rate to 8 MHz, SPI4BRG = 80000000/(2*desired)-1
9d009a88:	3c02bf80 	lui	v0,0xbf80
9d009a8c:	24030004 	li	v1,4
9d009a90:	ac435c30 	sw	v1,23600(v0)
  SPI4STATbits.SPIROV = 0;  // clear the overflow
9d009a94:	3c03bf80 	lui	v1,0xbf80
9d009a98:	8c625c10 	lw	v0,23568(v1)
9d009a9c:	7c023184 	ins	v0,zero,0x6,0x1
9d009aa0:	ac625c10 	sw	v0,23568(v1)
  SPI4CONbits.MSTEN = 1;    // master mode
9d009aa4:	3c03bf80 	lui	v1,0xbf80
9d009aa8:	8c625c00 	lw	v0,23552(v1)
9d009aac:	24040001 	li	a0,1
9d009ab0:	7c822944 	ins	v0,a0,0x5,0x1
9d009ab4:	ac625c00 	sw	v0,23552(v1)
  SPI4CONbits.MSSEN = 1;    // slave select enable
9d009ab8:	3c03bf80 	lui	v1,0xbf80
9d009abc:	8c625c00 	lw	v0,23552(v1)
9d009ac0:	24040001 	li	a0,1
9d009ac4:	7c82e704 	ins	v0,a0,0x1c,0x1
9d009ac8:	ac625c00 	sw	v0,23552(v1)
  SPI4CONbits.MODE16 = 1;   // 16 bit mode
9d009acc:	3c03bf80 	lui	v1,0xbf80
9d009ad0:	8c625c00 	lw	v0,23552(v1)
9d009ad4:	24040001 	li	a0,1
9d009ad8:	7c825284 	ins	v0,a0,0xa,0x1
9d009adc:	ac625c00 	sw	v0,23552(v1)
  SPI4CONbits.MODE32 = 0; 
9d009ae0:	3c03bf80 	lui	v1,0xbf80
9d009ae4:	8c625c00 	lw	v0,23552(v1)
9d009ae8:	7c025ac4 	ins	v0,zero,0xb,0x1
9d009aec:	ac625c00 	sw	v0,23552(v1)
  SPI4CONbits.SMP = 1;      // sample at the end of the clock
9d009af0:	3c03bf80 	lui	v1,0xbf80
9d009af4:	8c625c00 	lw	v0,23552(v1)
9d009af8:	24040001 	li	a0,1
9d009afc:	7c824a44 	ins	v0,a0,0x9,0x1
9d009b00:	ac625c00 	sw	v0,23552(v1)
  SPI4CONbits.ON = 1;       // turn SPI on
9d009b04:	3c03bf80 	lui	v1,0xbf80
9d009b08:	8c625c00 	lw	v0,23552(v1)
9d009b0c:	24040001 	li	a0,1
9d009b10:	7c827bc4 	ins	v0,a0,0xf,0x1
9d009b14:	ac625c00 	sw	v0,23552(v1)
  // initialize to default count of 32768:
  encoder_command(0);
9d009b18:	00002021 	move	a0,zero
9d009b1c:	0f402637 	jal	9d0098dc <encoder_command>
9d009b20:	00000000 	nop
  encoder_command(0);
9d009b24:	00002021 	move	a0,zero
9d009b28:	0f402637 	jal	9d0098dc <encoder_command>
9d009b2c:	00000000 	nop
}
9d009b30:	03c0e821 	move	sp,s8
9d009b34:	8fbf0014 	lw	ra,20(sp)
9d009b38:	8fbe0010 	lw	s8,16(sp)
9d009b3c:	27bd0018 	addiu	sp,sp,24
9d009b40:	03e00008 	jr	ra
9d009b44:	00000000 	nop

Disassembly of section .text.fp32div:

9d009b48 <__divsf3>:
9d009b48:	3c0b8000 000445c2 310800ff 000555c2     ...<.E.....1.U..
9d009b58:	314a00ff 00043a00 00eb3825 00054a00     ..J1.:..%8...J..
9d009b68:	012b4825 00857026 016e5824 250effff     %H+.&p..$Xn....%
9d009b78:	2dc100fe 1020003f 00000000              ...-?. .....

9d009b84 <Dlab1>:
9d009b84:	254effff 	addiu	t6,t2,-1
9d009b88:	2dc100fe 	sltiu	at,t6,254
9d009b8c:	10200053 	beqz	at,9d009cdc <DspecB>
9d009b90:	00000000 	nop

9d009b94 <Dlab2>:
9d009b94:	00e9082b 	sltu	at,a3,t1
9d009b98:	14200003 	bnez	at,9d009ba8 <i27>
9d009b9c:	00000000 	nop
9d009ba0:	00073842 	srl	a3,a3,0x1
9d009ba4:	25080001 	addiu	t0,t0,1

9d009ba8 <i27>:
9d009ba8:	00096382 	srl	t4,t1,0xe
9d009bac:	018001f4 	teq	t4,zero,0x7
9d009bb0:	00ec001b 	divu	zero,a3,t4
9d009bb4:	00002012 	mflo	a0
9d009bb8:	00003010 	mfhi	a2
9d009bbc:	312d3fff 	andi	t5,t1,0x3fff
9d009bc0:	01a40019 	multu	t5,a0
9d009bc4:	00002812 	mflo	a1
9d009bc8:	00063380 	sll	a2,a2,0xe
9d009bcc:	00c5702b 	sltu	t6,a2,a1
9d009bd0:	11c00004 	beqz	t6,9d009be4 <i28>
9d009bd4:	00c53023 	subu	a2,a2,a1
9d009bd8:	2484ffff 	addiu	a0,a0,-1
9d009bdc:	00c93021 	addu	a2,a2,t1
9d009be0:	00c9702b 	sltu	t6,a2,t1

9d009be4 <i28>:
9d009be4:	018001f4 	teq	t4,zero,0x7
9d009be8:	00cc001b 	divu	zero,a2,t4
9d009bec:	00003812 	mflo	a3
9d009bf0:	00003010 	mfhi	a2
9d009bf4:	01a70019 	multu	t5,a3
9d009bf8:	00002812 	mflo	a1
9d009bfc:	00063380 	sll	a2,a2,0xe
9d009c00:	00c5702b 	sltu	t6,a2,a1
9d009c04:	11c00004 	beqz	t6,9d009c18 <i29>
9d009c08:	00c53023 	subu	a2,a2,a1
9d009c0c:	24e7ffff 	addiu	a3,a3,-1
9d009c10:	00c93021 	addu	a2,a2,t1
9d009c14:	00c9702b 	sltu	t6,a2,t1

9d009c18 <i29>:
9d009c18:	00047380 	sll	t6,a0,0xe
9d009c1c:	00ee3821 	addu	a3,a3,t6
9d009c20:	10c00002 	beqz	a2,9d009c2c <i30>
9d009c24:	00073900 	sll	a3,a3,0x4
9d009c28:	34e70001 	ori	a3,a3,0x1

9d009c2c <i30>:
9d009c2c:	240e007e 	li	t6,126
9d009c30:	01ca7023 	subu	t6,t6,t2
9d009c34:	010e4021 	addu	t0,t0,t6
9d009c38:	250effff 	addiu	t6,t0,-1
9d009c3c:	2dc100fe 	sltiu	at,t6,254
9d009c40:	10200034 	beqz	at,9d009d14 <Doveund>
9d009c44:	00000000 	nop

9d009c48 <Dlab8>:
9d009c48:	24e70080 	addiu	a3,a3,128
9d009c4c:	2cee0080 	sltiu	t6,a3,128
9d009c50:	010e4021 	addu	t0,t0,t6
9d009c54:	00077202 	srl	t6,a3,0x8
9d009c58:	31ce0001 	andi	t6,t6,0x1
9d009c5c:	00ee3823 	subu	a3,a3,t6
9d009c60:	00073840 	sll	a3,a3,0x1
9d009c64:	00073a42 	srl	a3,a3,0x9
9d009c68:	000875c0 	sll	t6,t0,0x17
9d009c6c:	00ee3825 	or	a3,a3,t6
9d009c70:	00eb1025 	or	v0,a3,t3

9d009c74 <D999>:
9d009c74:	03e00008 	jr	ra
9d009c78:	00000000 	nop

9d009c7c <DspecA>:
9d009c7c:	15000008 	bnez	t0,9d009ca0 <i31>
9d009c80:	00000000 	nop
9d009c84:	00e73821 	addu	a3,a3,a3
9d009c88:	10e00005 	beqz	a3,9d009ca0 <i31>
9d009c8c:	00000000 	nop
9d009c90:	70ec6020 	clz	t4,a3
9d009c94:	010c4023 	subu	t0,t0,t4
9d009c98:	1000ffba 	b	9d009b84 <Dlab1>
9d009c9c:	01873804 	sllv	a3,a3,t4

9d009ca0 <i31>:
9d009ca0:	15480004 	bne	t2,t0,9d009cb4 <i33>
9d009ca4:	00000000 	nop
9d009ca8:	01297021 	addu	t6,t1,t1
9d009cac:	11c0002f 	beqz	t6,9d009d6c <Dnan>
9d009cb0:	00000000 	nop

9d009cb4 <i33>:
9d009cb4:	240100ff 	li	at,255
9d009cb8:	11410008 	beq	t2,at,9d009cdc <DspecB>
9d009cbc:	00000000 	nop
9d009cc0:	11000012 	beqz	t0,9d009d0c <Dzer>
9d009cc4:	00000000 	nop
9d009cc8:	00e77021 	addu	t6,a3,a3
9d009ccc:	15c00027 	bnez	t6,9d009d6c <Dnan>
9d009cd0:	00000000 	nop
9d009cd4:	10000022 	b	9d009d60 <Dinf>
9d009cd8:	00000000 	nop

9d009cdc <DspecB>:
9d009cdc:	15400008 	bnez	t2,9d009d00 <i34>
9d009ce0:	00000000 	nop
9d009ce4:	01294821 	addu	t1,t1,t1
9d009ce8:	1120001d 	beqz	t1,9d009d60 <Dinf>
9d009cec:	00000000 	nop
9d009cf0:	712c6020 	clz	t4,t1
9d009cf4:	014c5023 	subu	t2,t2,t4
9d009cf8:	1000ffa6 	b	9d009b94 <Dlab2>
9d009cfc:	01894804 	sllv	t1,t1,t4

9d009d00 <i34>:
9d009d00:	01297021 	addu	t6,t1,t1
9d009d04:	15c00019 	bnez	t6,9d009d6c <Dnan>
9d009d08:	00000000 	nop

9d009d0c <Dzer>:
9d009d0c:	1000ffd9 	b	9d009c74 <D999>
9d009d10:	000b1025 	or	v0,zero,t3

9d009d14 <Doveund>:
9d009d14:	1d000012 	bgtz	t0,9d009d60 <Dinf>
9d009d18:	00000000 	nop
9d009d1c:	240c0001 	li	t4,1
9d009d20:	01886023 	subu	t4,t4,t0
9d009d24:	2d810020 	sltiu	at,t4,32
9d009d28:	1020fff8 	beqz	at,9d009d0c <Dzer>
9d009d2c:	00000000 	nop
9d009d30:	240e0020 	li	t6,32
9d009d34:	01cc7023 	subu	t6,t6,t4
9d009d38:	01c74004 	sllv	t0,a3,t6
9d009d3c:	11000002 	beqz	t0,9d009d48 <i37>
9d009d40:	01873806 	srlv	a3,a3,t4
9d009d44:	34e70002 	ori	a3,a3,0x2

9d009d48 <i37>:
9d009d48:	24080000 	li	t0,0
9d009d4c:	24ee0080 	addiu	t6,a3,128
9d009d50:	05c1ffbd 	bgez	t6,9d009c48 <Dlab8>
9d009d54:	00000000 	nop
9d009d58:	1000ffbb 	b	9d009c48 <Dlab8>
9d009d5c:	24080001 	li	t0,1

9d009d60 <Dinf>:
9d009d60:	3c017f80 	lui	at,0x7f80
9d009d64:	1000ffc3 	b	9d009c74 <D999>
9d009d68:	01611025 	or	v0,t3,at

9d009d6c <Dnan>:
9d009d6c:	1000ffc1 	b	9d009c74 <D999>
9d009d70:	3c02ffc0 	lui	v0,0xffc0
9d009d74:	00000000 	nop

Disassembly of section .text.fp32mul:

9d009d78 <__mulsf3>:
9d009d78:	00043dc2 30e700ff 00054dc2 312900ff     .=.....0.M....)1
9d009d88:	3c0a8000 00043200 00ca3025 00054200     ...<.2..%0...B..
9d009d98:	010a4025 00856026 014c5024 24ecffff     %@..&`..$PL....$
9d009da8:	2d8100fe 10200021 00000000              ...-!. .....

9d009db4 <Clab1>:
9d009db4:	252cffff 	addiu	t4,t1,-1
9d009db8:	2d8100fe 	sltiu	at,t4,254
9d009dbc:	10200036 	beqz	at,9d009e98 <CspecB>
9d009dc0:	00000000 	nop

9d009dc4 <Clab2>:
9d009dc4:	00c80019 	multu	a2,t0
9d009dc8:	00005812 	mflo	t3
9d009dcc:	11600002 	beqz	t3,9d009dd8 <i17>
9d009dd0:	00003010 	mfhi	a2
9d009dd4:	34c60001 	ori	a2,a2,0x1

9d009dd8 <i17>:
9d009dd8:	04c00003 	bltz	a2,9d009de8 <i18>
9d009ddc:	00000000 	nop
9d009de0:	00063040 	sll	a2,a2,0x1
9d009de4:	24e7ffff 	addiu	a3,a3,-1

9d009de8 <i18>:
9d009de8:	252cff82 	addiu	t4,t1,-126
9d009dec:	00ec3821 	addu	a3,a3,t4
9d009df0:	24ecffff 	addiu	t4,a3,-1
9d009df4:	2d8100fe 	sltiu	at,t4,254
9d009df8:	1020003a 	beqz	at,9d009ee4 <Coveund>
9d009dfc:	00000000 	nop

9d009e00 <Clab8>:
9d009e00:	24c60080 	addiu	a2,a2,128
9d009e04:	2ccc0080 	sltiu	t4,a2,128
9d009e08:	00ec3821 	addu	a3,a3,t4
9d009e0c:	00066202 	srl	t4,a2,0x8
9d009e10:	318c0001 	andi	t4,t4,0x1
9d009e14:	00cc3023 	subu	a2,a2,t4
9d009e18:	00063040 	sll	a2,a2,0x1
9d009e1c:	00063242 	srl	a2,a2,0x9
9d009e20:	000765c0 	sll	t4,a3,0x17
9d009e24:	00cc3025 	or	a2,a2,t4
9d009e28:	00ca1025 	or	v0,a2,t2

9d009e2c <C999>:
9d009e2c:	03e00008 	jr	ra
9d009e30:	00000000 	nop

9d009e34 <CspecA>:
9d009e34:	14e0000d 	bnez	a3,9d009e6c <i19>
9d009e38:	00000000 	nop
9d009e3c:	00c63021 	addu	a2,a2,a2
9d009e40:	10c00005 	beqz	a2,9d009e58 <i20>
9d009e44:	00000000 	nop
9d009e48:	70cb5820 	clz	t3,a2
9d009e4c:	00eb3823 	subu	a3,a3,t3
9d009e50:	1000ffd8 	b	9d009db4 <Clab1>
9d009e54:	01663004 	sllv	a2,a2,t3

9d009e58 <i20>:
9d009e58:	240100ff 	li	at,255
9d009e5c:	1121001f 	beq	t1,at,9d009edc <Cnan>
9d009e60:	00000000 	nop
9d009e64:	10000015 	b	9d009ebc <Czer>
9d009e68:	00000000 	nop

9d009e6c <i19>:
9d009e6c:	00c66021 	addu	t4,a2,a2
9d009e70:	1580001a 	bnez	t4,9d009edc <Cnan>
9d009e74:	00000000 	nop
9d009e78:	15200004 	bnez	t1,9d009e8c <i21>
9d009e7c:	00000000 	nop
9d009e80:	01086021 	addu	t4,t0,t0
9d009e84:	11800015 	beqz	t4,9d009edc <Cnan>
9d009e88:	00000000 	nop

9d009e8c <i21>:
9d009e8c:	240100ff 	li	at,255
9d009e90:	1521000f 	bne	t1,at,9d009ed0 <Cinf>
9d009e94:	00000000 	nop

9d009e98 <CspecB>:
9d009e98:	1520000a 	bnez	t1,9d009ec4 <i22>
9d009e9c:	00000000 	nop
9d009ea0:	01084021 	addu	t0,t0,t0
9d009ea4:	11000005 	beqz	t0,9d009ebc <Czer>
9d009ea8:	00000000 	nop
9d009eac:	710b5820 	clz	t3,t0
9d009eb0:	012b4823 	subu	t1,t1,t3
9d009eb4:	1000ffc3 	b	9d009dc4 <Clab2>
9d009eb8:	01684004 	sllv	t0,t0,t3

9d009ebc <Czer>:
9d009ebc:	1000ffdb 	b	9d009e2c <C999>
9d009ec0:	000a1025 	or	v0,zero,t2

9d009ec4 <i22>:
9d009ec4:	01086021 	addu	t4,t0,t0
9d009ec8:	15800004 	bnez	t4,9d009edc <Cnan>
9d009ecc:	00000000 	nop

9d009ed0 <Cinf>:
9d009ed0:	3c017f80 	lui	at,0x7f80
9d009ed4:	1000ffd5 	b	9d009e2c <C999>
9d009ed8:	01411025 	or	v0,t2,at

9d009edc <Cnan>:
9d009edc:	1000ffd3 	b	9d009e2c <C999>
9d009ee0:	3c02ffc0 	lui	v0,0xffc0

9d009ee4 <Coveund>:
9d009ee4:	1ce0fffa 	bgtz	a3,9d009ed0 <Cinf>
9d009ee8:	00000000 	nop
9d009eec:	240b0001 	li	t3,1
9d009ef0:	01675823 	subu	t3,t3,a3
9d009ef4:	2d610020 	sltiu	at,t3,32
9d009ef8:	1020fff0 	beqz	at,9d009ebc <Czer>
9d009efc:	00000000 	nop
9d009f00:	240c0020 	li	t4,32
9d009f04:	018b6023 	subu	t4,t4,t3
9d009f08:	01863804 	sllv	a3,a2,t4
9d009f0c:	10e00002 	beqz	a3,9d009f18 <i25>
9d009f10:	01663006 	srlv	a2,a2,t3
9d009f14:	34c60002 	ori	a2,a2,0x2

9d009f18 <i25>:
9d009f18:	24070000 	li	a3,0
9d009f1c:	24cc0080 	addiu	t4,a2,128
9d009f20:	0581ffb7 	bgez	t4,9d009e00 <Clab8>
9d009f24:	00000000 	nop
9d009f28:	1000ffb5 	b	9d009e00 <Clab8>
9d009f2c:	24070001 	li	a3,1
9d009f30:	00000000 	nop

Disassembly of section .text.__ldexp:

9d009f34 <__ldexp>:
9d009f34:	27bdffe0 	addiu	sp,sp,-32
9d009f38:	afbf001c 	sw	ra,28(sp)
9d009f3c:	afb20018 	sw	s2,24(sp)
9d009f40:	afb10014 	sw	s1,20(sp)
9d009f44:	afb00010 	sw	s0,16(sp)
9d009f48:	7ca75500 	ext	a3,a1,0x14,0xb
9d009f4c:	24e2ffff 	addiu	v0,a3,-1
9d009f50:	7ca89800 	ext	t0,a1,0x0,0x14
9d009f54:	2c4907fe 	sltiu	t1,v0,2046
9d009f58:	00c08821 	move	s1,a2
9d009f5c:	000587c2 	srl	s0,a1,0x1f
9d009f60:	00801021 	move	v0,a0
9d009f64:	11200041 	beqz	t1,9d00a06c <__ldexp+0x138>
9d009f68:	01001821 	move	v1,t0
9d009f6c:	24e7fc01 	addiu	a3,a3,-1023
9d009f70:	3c040010 	lui	a0,0x10
9d009f74:	01041825 	or	v1,t0,a0
9d009f78:	00f13821 	addu	a3,a3,s1
9d009f7c:	00022f42 	srl	a1,v0,0x1d
9d009f80:	000318c0 	sll	v1,v1,0x3
9d009f84:	24e403ff 	addiu	a0,a3,1023
9d009f88:	00a31825 	or	v1,a1,v1
9d009f8c:	18800025 	blez	a0,9d00a024 <__ldexp+0xf0>
9d009f90:	000210c0 	sll	v0,v0,0x3
9d009f94:	30450007 	andi	a1,v0,0x7
9d009f98:	14a00015 	bnez	a1,9d009ff0 <__ldexp+0xbc>
9d009f9c:	7c4500c0 	ext	a1,v0,0x3,0x1
9d009fa0:	00033740 	sll	a2,v1,0x1d
9d009fa4:	000210c2 	srl	v0,v0,0x3
9d009fa8:	288507ff 	slti	a1,a0,2047
9d009fac:	00c21025 	or	v0,a2,v0
9d009fb0:	10a00036 	beqz	a1,9d00a08c <__ldexp+0x158>
9d009fb4:	000318c2 	srl	v1,v1,0x3
9d009fb8:	7c650500 	ext	a1,v1,0x14,0x1
9d009fbc:	50a00002 	beqzl	a1,9d009fc8 <__ldexp+0x94>
9d009fc0:	00002021 	move	a0,zero
9d009fc4:	7c639800 	ext	v1,v1,0x0,0x14
9d009fc8:	001082c0 	sll	s0,s0,0xb
9d009fcc:	00902025 	or	a0,a0,s0
9d009fd0:	00042500 	sll	a0,a0,0x14
9d009fd4:	00831825 	or	v1,a0,v1
9d009fd8:	8fbf001c 	lw	ra,28(sp)
9d009fdc:	8fb20018 	lw	s2,24(sp)
9d009fe0:	8fb10014 	lw	s1,20(sp)
9d009fe4:	8fb00010 	lw	s0,16(sp)
9d009fe8:	03e00008 	jr	ra
9d009fec:	27bd0020 	addiu	sp,sp,32
9d009ff0:	24a50003 	addiu	a1,a1,3
9d009ff4:	00452821 	addu	a1,v0,a1
9d009ff8:	00a2102b 	sltu	v0,a1,v0
9d009ffc:	00431821 	addu	v1,v0,v1
9d00a000:	7c660600 	ext	a2,v1,0x18,0x1
9d00a004:	10c0ffe6 	beqz	a2,9d009fa0 <__ldexp+0x6c>
9d00a008:	00a01021 	move	v0,a1
9d00a00c:	00032fc0 	sll	a1,v1,0x1f
9d00a010:	00021042 	srl	v0,v0,0x1
9d00a014:	00a21025 	or	v0,a1,v0
9d00a018:	00031842 	srl	v1,v1,0x1
9d00a01c:	0b4027e8 	j	9d009fa0 <__ldexp+0x6c>
9d00a020:	24840001 	addiu	a0,a0,1
9d00a024:	2406fc02 	li	a2,-1022
9d00a028:	00c73023 	subu	a2,a2,a3
9d00a02c:	28c40038 	slti	a0,a2,56
9d00a030:	5080001b 	beqzl	a0,9d00a0a0 <__ldexp+0x16c>
9d00a034:	00001021 	move	v0,zero
9d00a038:	00062023 	negu	a0,a2
9d00a03c:	30850020 	andi	a1,a0,0x20
9d00a040:	14a00003 	bnez	a1,9d00a050 <__ldexp+0x11c>
9d00a044:	00828804 	sllv	s1,v0,a0
9d00a048:	00832004 	sllv	a0,v1,a0
9d00a04c:	00828825 	or	s1,a0,v0
9d00a050:	00402021 	move	a0,v0
9d00a054:	0f40306b 	jal	9d00c1ac <__lshrdi3>
9d00a058:	00602821 	move	a1,v1
9d00a05c:	0011882b 	sltu	s1,zero,s1
9d00a060:	02221025 	or	v0,s1,v0
9d00a064:	0b4027e5 	j	9d009f94 <__ldexp+0x60>
9d00a068:	24040001 	li	a0,1
9d00a06c:	54e00005 	bnezl	a3,9d00a084 <__ldexp+0x150>
9d00a070:	00801021 	move	v0,a0
9d00a074:	01043025 	or	a2,t0,a0
9d00a078:	14c0000c 	bnez	a2,9d00a0ac <__ldexp+0x178>
9d00a07c:	00000000 	nop
9d00a080:	00801021 	move	v0,a0
9d00a084:	0b4027f6 	j	9d009fd8 <__ldexp+0xa4>
9d00a088:	00a01821 	move	v1,a1
9d00a08c:	00101ac0 	sll	v1,s0,0xb
9d00a090:	346307ff 	ori	v1,v1,0x7ff
9d00a094:	00031d00 	sll	v1,v1,0x14
9d00a098:	0b4027f6 	j	9d009fd8 <__ldexp+0xa4>
9d00a09c:	00001021 	move	v0,zero
9d00a0a0:	00001821 	move	v1,zero
9d00a0a4:	0b4027f2 	j	9d009fc8 <__ldexp+0x94>
9d00a0a8:	00002021 	move	a0,zero
9d00a0ac:	15000003 	bnez	t0,9d00a0bc <__ldexp+0x188>
9d00a0b0:	71129020 	clz	s2,t0
9d00a0b4:	70929020 	clz	s2,a0
9d00a0b8:	26520020 	addiu	s2,s2,32
9d00a0bc:	2646fff5 	addiu	a2,s2,-11
9d00a0c0:	10c0ffad 	beqz	a2,9d009f78 <__ldexp+0x44>
9d00a0c4:	2407fc02 	li	a3,-1022
9d00a0c8:	0f40307b 	jal	9d00c1ec <__ashldi3>
9d00a0cc:	01002821 	move	a1,t0
9d00a0d0:	2407fc0d 	li	a3,-1011
9d00a0d4:	0b4027de 	j	9d009f78 <__ldexp+0x44>
9d00a0d8:	00f23823 	subu	a3,a3,s2

Disassembly of section .text._sbrk_init:

9d00a0dc <_sbrk_init>:
9d00a0dc:	27bdffd8 	addiu	sp,sp,-40
9d00a0e0:	afbf0024 	sw	ra,36(sp)
9d00a0e4:	afb40020 	sw	s4,32(sp)
9d00a0e8:	afb3001c 	sw	s3,28(sp)
9d00a0ec:	afb20018 	sw	s2,24(sp)
9d00a0f0:	afb10014 	sw	s1,20(sp)
9d00a0f4:	afb00010 	sw	s0,16(sp)
9d00a0f8:	3c10a000 	lui	s0,0xa000
9d00a0fc:	8e0247a0 	lw	v0,18336(s0)
9d00a100:	10400009 	beqz	v0,9d00a128 <_sbrk_init+0x4c>
9d00a104:	3c12a000 	lui	s2,0xa000
9d00a108:	8fbf0024 	lw	ra,36(sp)
9d00a10c:	8fb40020 	lw	s4,32(sp)
9d00a110:	8fb3001c 	lw	s3,28(sp)
9d00a114:	8fb20018 	lw	s2,24(sp)
9d00a118:	8fb10014 	lw	s1,20(sp)
9d00a11c:	8fb00010 	lw	s0,16(sp)
9d00a120:	03e00008 	jr	ra
9d00a124:	27bd0028 	addiu	sp,sp,40
9d00a128:	8e4347a8 	lw	v1,18344(s2)
9d00a12c:	5060003d 	beqzl	v1,9d00a224 <_sbrk_init+0x148>
9d00a130:	3c03a000 	lui	v1,0xa000
9d00a134:	3c13a000 	lui	s3,0xa000
9d00a138:	8e6247a4 	lw	v0,18340(s3)
9d00a13c:	5040003b 	beqzl	v0,9d00a22c <_sbrk_init+0x150>
9d00a140:	3c040000 	lui	a0,0x0
9d00a144:	00038f82 	srl	s1,v1,0x1e
9d00a148:	0002a782 	srl	s4,v0,0x1e
9d00a14c:	7c65e000 	ext	a1,v1,0x0,0x1d
9d00a150:	3a310002 	xori	s1,s1,0x2
9d00a154:	7c44e000 	ext	a0,v0,0x0,0x1d
9d00a158:	3a940002 	xori	s4,s4,0x2
9d00a15c:	00b1180a 	movz	v1,a1,s1
9d00a160:	00608821 	move	s1,v1
9d00a164:	0094100a 	movz	v0,a0,s4
9d00a168:	0f4030e2 	jal	9d00c388 <_stub_sbd_memlayout>
9d00a16c:	0040a021 	move	s4,v0
9d00a170:	8c430000 	lw	v1,0(v0)
9d00a174:	8c440004 	lw	a0,4(v0)
9d00a178:	0223102b 	sltu	v0,s1,v1
9d00a17c:	10400024 	beqz	v0,9d00a210 <_sbrk_init+0x134>
9d00a180:	00642021 	addu	a0,v1,a0
9d00a184:	3c02a000 	lui	v0,0xa000
9d00a188:	24420048 	addiu	v0,v0,72
9d00a18c:	7c42e000 	ext	v0,v0,0x0,0x1d
9d00a190:	0062102b 	sltu	v0,v1,v0
9d00a194:	1440ffdd 	bnez	v0,9d00a10c <_sbrk_init+0x30>
9d00a198:	8fbf0024 	lw	ra,36(sp)
9d00a19c:	0283102b 	sltu	v0,s4,v1
9d00a1a0:	14400005 	bnez	v0,9d00a1b8 <_sbrk_init+0xdc>
9d00a1a4:	0064102b 	sltu	v0,v1,a0
9d00a1a8:	0284102b 	sltu	v0,s4,a0
9d00a1ac:	54400004 	bnezl	v0,9d00a1c0 <_sbrk_init+0xe4>
9d00a1b0:	02802021 	move	a0,s4
9d00a1b4:	0064102b 	sltu	v0,v1,a0
9d00a1b8:	1040ffd4 	beqz	v0,9d00a10c <_sbrk_init+0x30>
9d00a1bc:	8fbf0024 	lw	ra,36(sp)
9d00a1c0:	3c02a000 	lui	v0,0xa000
9d00a1c4:	24420048 	addiu	v0,v0,72
9d00a1c8:	00021742 	srl	v0,v0,0x1d
9d00a1cc:	24050005 	li	a1,5
9d00a1d0:	1445001b 	bne	v0,a1,9d00a240 <_sbrk_init+0x164>
9d00a1d4:	24050004 	li	a1,4
9d00a1d8:	3c02a000 	lui	v0,0xa000
9d00a1dc:	00621825 	or	v1,v1,v0
9d00a1e0:	00822025 	or	a0,a0,v0
9d00a1e4:	ae4347a8 	sw	v1,18344(s2)
9d00a1e8:	ae6447a4 	sw	a0,18340(s3)
9d00a1ec:	ae0347a0 	sw	v1,18336(s0)
9d00a1f0:	8fbf0024 	lw	ra,36(sp)
9d00a1f4:	8fb40020 	lw	s4,32(sp)
9d00a1f8:	8fb3001c 	lw	s3,28(sp)
9d00a1fc:	8fb20018 	lw	s2,24(sp)
9d00a200:	8fb10014 	lw	s1,20(sp)
9d00a204:	8fb00010 	lw	s0,16(sp)
9d00a208:	03e00008 	jr	ra
9d00a20c:	27bd0028 	addiu	sp,sp,40
9d00a210:	0224102b 	sltu	v0,s1,a0
9d00a214:	1040ffdc 	beqz	v0,9d00a188 <_sbrk_init+0xac>
9d00a218:	3c02a000 	lui	v0,0xa000
9d00a21c:	0b402867 	j	9d00a19c <_sbrk_init+0xc0>
9d00a220:	02201821 	move	v1,s1
9d00a224:	0b40284d 	j	9d00a134 <_sbrk_init+0x58>
9d00a228:	246347d8 	addiu	v1,v1,18392
9d00a22c:	24840000 	addiu	a0,a0,0
9d00a230:	3c02a000 	lui	v0,0xa000
9d00a234:	244247d8 	addiu	v0,v0,18392
9d00a238:	0b402851 	j	9d00a144 <_sbrk_init+0x68>
9d00a23c:	00441021 	addu	v0,v0,a0
9d00a240:	14450007 	bne	v0,a1,9d00a260 <_sbrk_init+0x184>
9d00a244:	3c028000 	lui	v0,0x8000
9d00a248:	00621825 	or	v1,v1,v0
9d00a24c:	00821025 	or	v0,a0,v0
9d00a250:	ae4347a8 	sw	v1,18344(s2)
9d00a254:	ae6247a4 	sw	v0,18340(s3)
9d00a258:	0b40287c 	j	9d00a1f0 <_sbrk_init+0x114>
9d00a25c:	ae0347a0 	sw	v1,18336(s0)
9d00a260:	ae4447a8 	sw	a0,18344(s2)
9d00a264:	00801821 	move	v1,a0
9d00a268:	0b40287c 	j	9d00a1f0 <_sbrk_init+0x114>
9d00a26c:	ae0347a0 	sw	v1,18336(s0)

Disassembly of section .text:

9d00a270 <adc_init>:
#include "isense.h"

#define SAMPLE_TIME 10     // ADC sample time in core timer ticks (1 tick = 25 ns)
#define ADC_AVG_OVER 10    // average ADC reading over these many samples

void adc_init(void) {
9d00a270:	27bdfff8 	addiu	sp,sp,-8
9d00a274:	afbe0004 	sw	s8,4(sp)
9d00a278:	03a0f021 	move	s8,sp
  AD1PCFGbits.PCFG0 = 0;  //configure RB0 (AN0) as analog input
9d00a27c:	3c03bf81 	lui	v1,0xbf81
9d00a280:	94629060 	lhu	v0,-28576(v1)
9d00a284:	7c020004 	ins	v0,zero,0x0,0x1
9d00a288:	a4629060 	sh	v0,-28576(v1)
  AD1CON3bits.ADCS = 2;   // ADC clock period is Tad = 2*(ADCS+1)*Tpb = 2*3*12.5ns = 75ns 
9d00a28c:	3c02bf81 	lui	v0,0xbf81
9d00a290:	24030002 	li	v1,2
9d00a294:	a0439020 	sb	v1,-28640(v0)
  AD1CON1bits.ADON = 1;   // turn on A/D converter
9d00a298:	3c03bf81 	lui	v1,0xbf81
9d00a29c:	94629000 	lhu	v0,-28672(v1)
9d00a2a0:	24040001 	li	a0,1
9d00a2a4:	7c827bc4 	ins	v0,a0,0xf,0x1
9d00a2a8:	a4629000 	sh	v0,-28672(v1)
  AD1CHSbits.CH0SA = 0;   // connect AN0 to MUXA for sampling
9d00a2ac:	3c03bf81 	lui	v1,0xbf81
9d00a2b0:	8c629040 	lw	v0,-28608(v1)
9d00a2b4:	7c029c04 	ins	v0,zero,0x10,0x4
9d00a2b8:	ac629040 	sw	v0,-28608(v1)
  AD1CON1bits.SSRC = 0b111; // auto conversion mode
9d00a2bc:	3c03bf81 	lui	v1,0xbf81
9d00a2c0:	94629000 	lhu	v0,-28672(v1)
9d00a2c4:	24040007 	li	a0,7
9d00a2c8:	7c823944 	ins	v0,a0,0x5,0x3
9d00a2cc:	a4629000 	sh	v0,-28672(v1)
}
9d00a2d0:	03c0e821 	move	sp,s8
9d00a2d4:	8fbe0004 	lw	s8,4(sp)
9d00a2d8:	27bd0008 	addiu	sp,sp,8
9d00a2dc:	03e00008 	jr	ra
9d00a2e0:	00000000 	nop

9d00a2e4 <adc_read>:

unsigned int adc_read(void) {
9d00a2e4:	27bdfff8 	addiu	sp,sp,-8
9d00a2e8:	afbf0004 	sw	ra,4(sp)
9d00a2ec:	afbe0000 	sw	s8,0(sp)
9d00a2f0:	03a0f021 	move	s8,sp
  AD1CON1bits.SAMP = 1; // start sampling (manual)
9d00a2f4:	3c03bf81 	lui	v1,0xbf81
9d00a2f8:	94629000 	lhu	v0,-28672(v1)
9d00a2fc:	24040001 	li	a0,1
9d00a300:	7c820844 	ins	v0,a0,0x1,0x1
9d00a304:	a4629000 	sh	v0,-28672(v1)
  _CP0_SET_COUNT(0);
9d00a308:	00001021 	move	v0,zero
9d00a30c:	40824800 	mtc0	v0,c0_count
9d00a310:	000000c0 	ehb
  while (_CP0_GET_COUNT() < SAMPLE_TIME){
9d00a314:	00000000 	nop
9d00a318:	40024800 	mfc0	v0,c0_count
9d00a31c:	2c42000a 	sltiu	v0,v0,10
9d00a320:	1440fffd 	bnez	v0,9d00a318 <adc_read+0x34>
9d00a324:	00000000 	nop
    ; // sample for more than 25*SAMPLE_TIME ns
  }
  while (!AD1CON1bits.DONE){
9d00a328:	00000000 	nop
9d00a32c:	3c02bf81 	lui	v0,0xbf81
9d00a330:	8c429000 	lw	v0,-28672(v0)
9d00a334:	30420001 	andi	v0,v0,0x1
9d00a338:	1040fffc 	beqz	v0,9d00a32c <adc_read+0x48>
9d00a33c:	00000000 	nop
    ; // wait for conversion to finish
  }
  return ADC1BUF0;
9d00a340:	3c02bf81 	lui	v0,0xbf81
9d00a344:	8c429070 	lw	v0,-28560(v0)
}
9d00a348:	03c0e821 	move	sp,s8
9d00a34c:	8fbf0004 	lw	ra,4(sp)
9d00a350:	8fbe0000 	lw	s8,0(sp)
9d00a354:	27bd0008 	addiu	sp,sp,8
9d00a358:	03e00008 	jr	ra
9d00a35c:	00000000 	nop

9d00a360 <read_cur_amps>:

int read_cur_amps(void){
9d00a360:	27bdffe0 	addiu	sp,sp,-32
9d00a364:	afbf001c 	sw	ra,28(sp)
9d00a368:	afbe0018 	sw	s8,24(sp)
9d00a36c:	03a0f021 	move	s8,sp
  unsigned int cur_counts;
  int cur_amps;

  cur_counts = adc_read();
9d00a370:	0f4028b9 	jal	9d00a2e4 <adc_read>
9d00a374:	00000000 	nop
9d00a378:	afc20010 	sw	v0,16(s8)
  cur_amps = 2.04 * cur_counts - 1024;    // from calibration
9d00a37c:	8fc40010 	lw	a0,16(s8)
9d00a380:	0f402fdc 	jal	9d00bf70 <.LFE4>
9d00a384:	00000000 	nop
9d00a388:	00401821 	move	v1,v0
9d00a38c:	3c029d01 	lui	v0,0x9d01
9d00a390:	00602021 	move	a0,v1
9d00a394:	8c45c57c 	lw	a1,-14980(v0)
9d00a398:	0f40275e 	jal	9d009d78 <__mulsf3>
9d00a39c:	00000000 	nop
9d00a3a0:	00401821 	move	v1,v0
9d00a3a4:	3c029d01 	lui	v0,0x9d01
9d00a3a8:	00602021 	move	a0,v1
9d00a3ac:	8c45c580 	lw	a1,-14976(v0)
9d00a3b0:	0f402599 	jal	9d009664 <__subsf3>
9d00a3b4:	00000000 	nop
9d00a3b8:	00402021 	move	a0,v0
9d00a3bc:	0f402dff 	jal	9d00b7fc <__fixsfsi>
9d00a3c0:	00000000 	nop
9d00a3c4:	afc20014 	sw	v0,20(s8)
  return cur_amps;
9d00a3c8:	8fc20014 	lw	v0,20(s8)
9d00a3cc:	03c0e821 	move	sp,s8
9d00a3d0:	8fbf001c 	lw	ra,28(sp)
9d00a3d4:	8fbe0018 	lw	s8,24(sp)
9d00a3d8:	27bd0020 	addiu	sp,sp,32
9d00a3dc:	03e00008 	jr	ra
9d00a3e0:	00000000 	nop

Disassembly of section .text._outcnvrt:

9d00a3e4 <_outcnvrt>:
9d00a3e4:	27bdffd8 	addiu	sp,sp,-40
9d00a3e8:	afbf0024 	sw	ra,36(sp)
9d00a3ec:	afb40020 	sw	s4,32(sp)
9d00a3f0:	afb3001c 	sw	s3,28(sp)
9d00a3f4:	afb20018 	sw	s2,24(sp)
9d00a3f8:	afb10014 	sw	s1,20(sp)
9d00a3fc:	afb00010 	sw	s0,16(sp)
9d00a400:	97a20038 	lhu	v0,56(sp)
9d00a404:	00809821 	move	s3,a0
9d00a408:	00a0a021 	move	s4,a1
9d00a40c:	30420008 	andi	v0,v0,0x8
9d00a410:	00c08021 	move	s0,a2
9d00a414:	10400014 	beqz	v0,9d00a468 <_outcnvrt+0x84>
9d00a418:	00e08821 	move	s1,a3
9d00a41c:	00a02021 	move	a0,a1
9d00a420:	00c02821 	move	a1,a2
9d00a424:	0f402ef2 	jal	9d00bbc8 <__sputn>
9d00a428:	02603021 	move	a2,s3
9d00a42c:	2403ffff 	li	v1,-1
9d00a430:	10430003 	beq	v0,v1,9d00a440 <_outcnvrt+0x5c>
9d00a434:	0211902a 	slt	s2,s0,s1
9d00a438:	1640001c 	bnez	s2,9d00a4ac <_outcnvrt+0xc8>
9d00a43c:	02602021 	move	a0,s3
9d00a440:	02201021 	move	v0,s1
9d00a444:	0212100a 	movz	v0,s0,s2
9d00a448:	8fbf0024 	lw	ra,36(sp)
9d00a44c:	8fb40020 	lw	s4,32(sp)
9d00a450:	8fb3001c 	lw	s3,28(sp)
9d00a454:	8fb20018 	lw	s2,24(sp)
9d00a458:	8fb10014 	lw	s1,20(sp)
9d00a45c:	8fb00010 	lw	s0,16(sp)
9d00a460:	03e00008 	jr	ra
9d00a464:	27bd0028 	addiu	sp,sp,40
9d00a468:	00c7902a 	slt	s2,a2,a3
9d00a46c:	1640001d 	bnez	s2,9d00a4e4 <_outcnvrt+0x100>
9d00a470:	00e62823 	subu	a1,a3,a2
9d00a474:	02802021 	move	a0,s4
9d00a478:	02002821 	move	a1,s0
9d00a47c:	0f402ef2 	jal	9d00bbc8 <__sputn>
9d00a480:	02603021 	move	a2,s3
9d00a484:	02201021 	move	v0,s1
9d00a488:	0212100a 	movz	v0,s0,s2
9d00a48c:	8fbf0024 	lw	ra,36(sp)
9d00a490:	8fb40020 	lw	s4,32(sp)
9d00a494:	8fb3001c 	lw	s3,28(sp)
9d00a498:	8fb20018 	lw	s2,24(sp)
9d00a49c:	8fb10014 	lw	s1,20(sp)
9d00a4a0:	8fb00010 	lw	s0,16(sp)
9d00a4a4:	03e00008 	jr	ra
9d00a4a8:	27bd0028 	addiu	sp,sp,40
9d00a4ac:	02302823 	subu	a1,s1,s0
9d00a4b0:	3c069d01 	lui	a2,0x9d01
9d00a4b4:	0f402d1a 	jal	9d00b468 <repl>
9d00a4b8:	24c6bea4 	addiu	a2,a2,-16732
9d00a4bc:	02201021 	move	v0,s1
9d00a4c0:	0212100a 	movz	v0,s0,s2
9d00a4c4:	8fbf0024 	lw	ra,36(sp)
9d00a4c8:	8fb40020 	lw	s4,32(sp)
9d00a4cc:	8fb3001c 	lw	s3,28(sp)
9d00a4d0:	8fb20018 	lw	s2,24(sp)
9d00a4d4:	8fb10014 	lw	s1,20(sp)
9d00a4d8:	8fb00010 	lw	s0,16(sp)
9d00a4dc:	03e00008 	jr	ra
9d00a4e0:	27bd0028 	addiu	sp,sp,40
9d00a4e4:	3c069d01 	lui	a2,0x9d01
9d00a4e8:	0f402d1a 	jal	9d00b468 <repl>
9d00a4ec:	24c6bea4 	addiu	a2,a2,-16732
9d00a4f0:	2403ffff 	li	v1,-1
9d00a4f4:	1443ffdf 	bne	v0,v1,9d00a474 <_outcnvrt+0x90>
9d00a4f8:	02201021 	move	v0,s1
9d00a4fc:	0212100a 	movz	v0,s0,s2
9d00a500:	8fbf0024 	lw	ra,36(sp)
9d00a504:	8fb40020 	lw	s4,32(sp)
9d00a508:	8fb3001c 	lw	s3,28(sp)
9d00a50c:	8fb20018 	lw	s2,24(sp)
9d00a510:	8fb10014 	lw	s1,20(sp)
9d00a514:	8fb00010 	lw	s0,16(sp)
9d00a518:	03e00008 	jr	ra
9d00a51c:	27bd0028 	addiu	sp,sp,40

Disassembly of section .text:

9d00a520 <currentcontrol_init>:
#include "currentcontrol.h"

void currentcontrol_init(void){
9d00a520:	27bdfff8 	addiu	sp,sp,-8
9d00a524:	afbe0004 	sw	s8,4(sp)
9d00a528:	03a0f021 	move	s8,sp
  // Initialize Timer2 interrupt for 5 kHz current control loop //
  T2CONbits.TCKPS = 0b011; // Timer2 prescaler N=8 (1:8)
9d00a52c:	3c03bf80 	lui	v1,0xbf80
9d00a530:	94620800 	lhu	v0,2048(v1)
9d00a534:	24040003 	li	a0,3
9d00a538:	7c823104 	ins	v0,a0,0x4,0x3
9d00a53c:	a4620800 	sh	v0,2048(v1)
  PR2 = 1999;              // period = (PR2+1) * N * 12.5 ns = 200 us => 5 kHz
9d00a540:	3c02bf80 	lui	v0,0xbf80
9d00a544:	240307cf 	li	v1,1999
9d00a548:	ac430820 	sw	v1,2080(v0)
  TMR2 = 0;                // initial Timer2 count is 0
9d00a54c:	3c02bf80 	lui	v0,0xbf80
9d00a550:	ac400810 	sw	zero,2064(v0)
  IPC2bits.T2IP = 5;       // priority for Timer2 interrupt
9d00a554:	3c03bf88 	lui	v1,0xbf88
9d00a558:	8c6210b0 	lw	v0,4272(v1)
9d00a55c:	24040005 	li	a0,5
9d00a560:	7c822084 	ins	v0,a0,0x2,0x3
9d00a564:	ac6210b0 	sw	v0,4272(v1)
  IFS0bits.T2IF = 0;       // clear Timer2 interrupt flag
9d00a568:	3c03bf88 	lui	v1,0xbf88
9d00a56c:	8c621030 	lw	v0,4144(v1)
9d00a570:	7c024204 	ins	v0,zero,0x8,0x1
9d00a574:	ac621030 	sw	v0,4144(v1)
  IEC0bits.T2IE = 1;       // enable Timer2 interrupt
9d00a578:	3c03bf88 	lui	v1,0xbf88
9d00a57c:	8c621060 	lw	v0,4192(v1)
9d00a580:	24040001 	li	a0,1
9d00a584:	7c824204 	ins	v0,a0,0x8,0x1
9d00a588:	ac621060 	sw	v0,4192(v1)
  T2CONbits.ON = 1;        // turn on Timer2
9d00a58c:	3c03bf80 	lui	v1,0xbf80
9d00a590:	94620800 	lhu	v0,2048(v1)
9d00a594:	24040001 	li	a0,1
9d00a598:	7c827bc4 	ins	v0,a0,0xf,0x1
9d00a59c:	a4620800 	sh	v0,2048(v1)

  // Initialize Timer3 and OutputCompare1 for 20 kHz PWM //
  T3CONbits.TCKPS = 0;     // Timer3 prescaler N=1 (1:1)
9d00a5a0:	3c03bf80 	lui	v1,0xbf80
9d00a5a4:	94620a00 	lhu	v0,2560(v1)
9d00a5a8:	7c023104 	ins	v0,zero,0x4,0x3
9d00a5ac:	a4620a00 	sh	v0,2560(v1)
  PR3 = 3999;              // period = (PR3+1) * N * 12.5 ns = 50 us => 20 kHz
9d00a5b0:	3c02bf80 	lui	v0,0xbf80
9d00a5b4:	24030f9f 	li	v1,3999
9d00a5b8:	ac430a20 	sw	v1,2592(v0)
  TMR3 = 0;                // initial Timer3 count is 0
9d00a5bc:	3c02bf80 	lui	v0,0xbf80
9d00a5c0:	ac400a10 	sw	zero,2576(v0)
  OC1CONbits.OCTSEL = 1;   // use Timer 3
9d00a5c4:	3c03bf80 	lui	v1,0xbf80
9d00a5c8:	94623000 	lhu	v0,12288(v1)
9d00a5cc:	24040001 	li	a0,1
9d00a5d0:	7c8218c4 	ins	v0,a0,0x3,0x1
9d00a5d4:	a4623000 	sh	v0,12288(v1)
  OC1CONbits.OCM = 0b110;  // PWM mode without fault pin; other OC1CON bits are defaults
9d00a5d8:	3c03bf80 	lui	v1,0xbf80
9d00a5dc:	94623000 	lhu	v0,12288(v1)
9d00a5e0:	24040006 	li	a0,6
9d00a5e4:	7c821004 	ins	v0,a0,0x0,0x3
9d00a5e8:	a4623000 	sh	v0,12288(v1)
  OC1RS = 0;               // initial value of duty cycle (0 => zero current)
9d00a5ec:	3c02bf80 	lui	v0,0xbf80
9d00a5f0:	ac403020 	sw	zero,12320(v0)
  OC1R = 0;                // initialize before turning OC1 on; afterward it is read-only
9d00a5f4:	3c02bf80 	lui	v0,0xbf80
9d00a5f8:	ac403010 	sw	zero,12304(v0)
  T3CONbits.ON = 1;        // turn on Timer3
9d00a5fc:	3c03bf80 	lui	v1,0xbf80
9d00a600:	94620a00 	lhu	v0,2560(v1)
9d00a604:	24040001 	li	a0,1
9d00a608:	7c827bc4 	ins	v0,a0,0xf,0x1
9d00a60c:	a4620a00 	sh	v0,2560(v1)
  OC1CONbits.ON = 1;       // turn on OC1
9d00a610:	3c03bf80 	lui	v1,0xbf80
9d00a614:	94623000 	lhu	v0,12288(v1)
9d00a618:	24040001 	li	a0,1
9d00a61c:	7c827bc4 	ins	v0,a0,0xf,0x1
9d00a620:	a4623000 	sh	v0,12288(v1)

  // Initialize digital output pin to control motor direction //
  TRISDbits.TRISD8 = 0;    // pin D8 set as digital output
9d00a624:	3c03bf88 	lui	v1,0xbf88
9d00a628:	946260c0 	lhu	v0,24768(v1)
9d00a62c:	7c024204 	ins	v0,zero,0x8,0x1
9d00a630:	a46260c0 	sh	v0,24768(v1)
  LATDbits.LATD8 = 0;      // output = low => motor in forward
9d00a634:	3c03bf88 	lui	v1,0xbf88
9d00a638:	946260e0 	lhu	v0,24800(v1)
9d00a63c:	7c024204 	ins	v0,zero,0x8,0x1
9d00a640:	a46260e0 	sh	v0,24800(v1)
9d00a644:	03c0e821 	move	sp,s8
9d00a648:	8fbe0004 	lw	s8,4(sp)
9d00a64c:	27bd0008 	addiu	sp,sp,8
9d00a650:	03e00008 	jr	ra
9d00a654:	00000000 	nop

Disassembly of section .text.ungetc:

9d00a658 <ungetc>:
9d00a658:	27bdffe0 	addiu	sp,sp,-32
9d00a65c:	afbf001c 	sw	ra,28(sp)
9d00a660:	afb20018 	sw	s2,24(sp)
9d00a664:	afb10014 	sw	s1,20(sp)
9d00a668:	afb00010 	sw	s0,16(sp)
9d00a66c:	2412ffff 	li	s2,-1
9d00a670:	10920028 	beq	a0,s2,9d00a714 <ungetc+0xbc>
9d00a674:	00808821 	move	s1,a0
9d00a678:	00a08021 	move	s0,a1
9d00a67c:	8ca20018 	lw	v0,24(a1)
9d00a680:	00a02021 	move	a0,a1
9d00a684:	8c420010 	lw	v0,16(v0)
9d00a688:	0040f809 	jalr	v0
9d00a68c:	24050002 	li	a1,2
9d00a690:	10400021 	beqz	v0,9d00a718 <ungetc+0xc0>
9d00a694:	2402ffff 	li	v0,-1
9d00a698:	8e020000 	lw	v0,0(s0)
9d00a69c:	10520037 	beq	v0,s2,9d00a77c <ungetc+0x124>
9d00a6a0:	00000000 	nop
9d00a6a4:	8e02000c 	lw	v0,12(s0)
9d00a6a8:	50400017 	beqzl	v0,9d00a708 <ungetc+0xb0>
9d00a6ac:	8e030004 	lw	v1,4(s0)
9d00a6b0:	8e020004 	lw	v0,4(s0)
9d00a6b4:	8e030008 	lw	v1,8(s0)
9d00a6b8:	0062182b 	sltu	v1,v1,v0
9d00a6bc:	1060001c 	beqz	v1,9d00a730 <ungetc+0xd8>
9d00a6c0:	8e030000 	lw	v1,0(s0)
9d00a6c4:	2442ffff 	addiu	v0,v0,-1
9d00a6c8:	ae020004 	sw	v0,4(s0)
9d00a6cc:	24630001 	addiu	v1,v1,1
9d00a6d0:	ae030000 	sw	v1,0(s0)
9d00a6d4:	90430000 	lbu	v1,0(v0)
9d00a6d8:	54710001 	bnel	v1,s1,9d00a6e0 <ungetc+0x88>
9d00a6dc:	a0510000 	sb	s1,0(v0)
9d00a6e0:	96030010 	lhu	v1,16(s0)
9d00a6e4:	02201021 	move	v0,s1
9d00a6e8:	3063ffdf 	andi	v1,v1,0xffdf
9d00a6ec:	a6030010 	sh	v1,16(s0)
9d00a6f0:	8fbf001c 	lw	ra,28(sp)
9d00a6f4:	8fb20018 	lw	s2,24(sp)
9d00a6f8:	8fb10014 	lw	s1,20(sp)
9d00a6fc:	8fb00010 	lw	s0,16(sp)
9d00a700:	03e00008 	jr	ra
9d00a704:	27bd0020 	addiu	sp,sp,32
9d00a708:	2402ffff 	li	v0,-1
9d00a70c:	50620011 	beql	v1,v0,9d00a754 <ungetc+0xfc>
9d00a710:	96030010 	lhu	v1,16(s0)
9d00a714:	2402ffff 	li	v0,-1
9d00a718:	8fbf001c 	lw	ra,28(sp)
9d00a71c:	8fb20018 	lw	s2,24(sp)
9d00a720:	8fb10014 	lw	s1,20(sp)
9d00a724:	8fb00010 	lw	s0,16(sp)
9d00a728:	03e00008 	jr	ra
9d00a72c:	27bd0020 	addiu	sp,sp,32
9d00a730:	5060ffe7 	beqzl	v1,9d00a6d0 <ungetc+0x78>
9d00a734:	24630001 	addiu	v1,v1,1
9d00a738:	02201021 	move	v0,s1
9d00a73c:	8fbf001c 	lw	ra,28(sp)
9d00a740:	8fb20018 	lw	s2,24(sp)
9d00a744:	8fb10014 	lw	s1,20(sp)
9d00a748:	8fb00010 	lw	s0,16(sp)
9d00a74c:	03e00008 	jr	ra
9d00a750:	27bd0020 	addiu	sp,sp,32
9d00a754:	ae110004 	sw	s1,4(s0)
9d00a758:	02201021 	move	v0,s1
9d00a75c:	3063ffdf 	andi	v1,v1,0xffdf
9d00a760:	a6030010 	sh	v1,16(s0)
9d00a764:	8fbf001c 	lw	ra,28(sp)
9d00a768:	8fb20018 	lw	s2,24(sp)
9d00a76c:	8fb10014 	lw	s1,20(sp)
9d00a770:	8fb00010 	lw	s0,16(sp)
9d00a774:	03e00008 	jr	ra
9d00a778:	27bd0020 	addiu	sp,sp,32
9d00a77c:	0f402d8f 	jal	9d00b63c <_i_init>
9d00a780:	02002021 	move	a0,s0
9d00a784:	0b4029aa 	j	9d00a6a8 <ungetc+0x50>
9d00a788:	8e02000c 	lw	v0,12(s0)

Disassembly of section .text.putget.2773:

9d00a78c <putget.2773>:
9d00a78c:	27bdffe0 	addiu	sp,sp,-32
9d00a790:	afbf001c 	sw	ra,28(sp)
9d00a794:	afb10018 	sw	s1,24(sp)
9d00a798:	afb00014 	sw	s0,20(sp)
9d00a79c:	01e08021 	move	s0,t7
9d00a7a0:	8de50014 	lw	a1,20(t7)
9d00a7a4:	8de20010 	lw	v0,16(t7)
9d00a7a8:	10a20019 	beq	a1,v0,9d00a810 <putget.2773+0x84>
9d00a7ac:	00808821 	move	s1,a0
9d00a7b0:	8de20008 	lw	v0,8(t7)
9d00a7b4:	24a30001 	addiu	v1,a1,1
9d00a7b8:	00452821 	addu	a1,v0,a1
9d00a7bc:	ae030014 	sw	v1,20(s0)
9d00a7c0:	1220000d 	beqz	s1,9d00a7f8 <putget.2773+0x6c>
9d00a7c4:	a0b10000 	sb	s1,0(a1)
9d00a7c8:	8e020004 	lw	v0,4(s0)
9d00a7cc:	1040000a 	beqz	v0,9d00a7f8 <putget.2773+0x6c>
9d00a7d0:	2411ffff 	li	s1,-1
9d00a7d4:	0f402f40 	jal	9d00bd00 <gsgetc>
9d00a7d8:	8e040000 	lw	a0,0(s0)
9d00a7dc:	00408821 	move	s1,v0
9d00a7e0:	2402ffff 	li	v0,-1
9d00a7e4:	12220005 	beq	s1,v0,9d00a7fc <putget.2773+0x70>
9d00a7e8:	02201021 	move	v0,s1
9d00a7ec:	8e020004 	lw	v0,4(s0)
9d00a7f0:	2442ffff 	addiu	v0,v0,-1
9d00a7f4:	ae020004 	sw	v0,4(s0)
9d00a7f8:	02201021 	move	v0,s1
9d00a7fc:	8fbf001c 	lw	ra,28(sp)
9d00a800:	8fb10018 	lw	s1,24(sp)
9d00a804:	8fb00014 	lw	s0,20(sp)
9d00a808:	03e00008 	jr	ra
9d00a80c:	27bd0020 	addiu	sp,sp,32
9d00a810:	8de4000c 	lw	a0,12(t7)
9d00a814:	24a50080 	addiu	a1,a1,128
9d00a818:	10800007 	beqz	a0,9d00a838 <putget.2773+0xac>
9d00a81c:	ade50010 	sw	a1,16(t7)
9d00a820:	0f4015e1 	jal	9d005784 <realloc>
9d00a824:	00000000 	nop
9d00a828:	ae02000c 	sw	v0,12(s0)
9d00a82c:	8e050014 	lw	a1,20(s0)
9d00a830:	0b4029ed 	j	9d00a7b4 <putget.2773+0x28>
9d00a834:	ae020008 	sw	v0,8(s0)
9d00a838:	0f401259 	jal	9d004964 <malloc>
9d00a83c:	00a02021 	move	a0,a1
9d00a840:	8e030008 	lw	v1,8(s0)
9d00a844:	ae02000c 	sw	v0,12(s0)
9d00a848:	24680080 	addiu	t0,v1,128
9d00a84c:	88670003 	lwl	a3,3(v1)
9d00a850:	88660007 	lwl	a2,7(v1)
9d00a854:	8865000b 	lwl	a1,11(v1)
9d00a858:	8864000f 	lwl	a0,15(v1)
9d00a85c:	98670000 	lwr	a3,0(v1)
9d00a860:	98660004 	lwr	a2,4(v1)
9d00a864:	98650008 	lwr	a1,8(v1)
9d00a868:	9864000c 	lwr	a0,12(v1)
9d00a86c:	24630010 	addiu	v1,v1,16
9d00a870:	ac470000 	sw	a3,0(v0)
9d00a874:	ac460004 	sw	a2,4(v0)
9d00a878:	ac450008 	sw	a1,8(v0)
9d00a87c:	ac44000c 	sw	a0,12(v0)
9d00a880:	1468fff2 	bne	v1,t0,9d00a84c <putget.2773+0xc0>
9d00a884:	24420010 	addiu	v0,v0,16
9d00a888:	8e02000c 	lw	v0,12(s0)
9d00a88c:	8e050014 	lw	a1,20(s0)
9d00a890:	0b4029ed 	j	9d00a7b4 <putget.2773+0x28>
9d00a894:	ae020008 	sw	v0,8(s0)

Disassembly of section .text.malloc_trim:

9d00a898 <malloc_trim>:
9d00a898:	27bdffe0 	addiu	sp,sp,-32
9d00a89c:	afbf001c 	sw	ra,28(sp)
9d00a8a0:	afb20018 	sw	s2,24(sp)
9d00a8a4:	afb10014 	sw	s1,20(sp)
9d00a8a8:	afb00010 	sw	s0,16(sp)
9d00a8ac:	0f403199 	jal	9d00c664 <getpagesize>
9d00a8b0:	00809021 	move	s2,a0
9d00a8b4:	3c10a000 	lui	s0,0xa000
9d00a8b8:	261041f0 	addiu	s0,s0,16880
9d00a8bc:	8e030008 	lw	v1,8(s0)
9d00a8c0:	8c710004 	lw	s1,4(v1)
9d00a8c4:	2403fffc 	li	v1,-4
9d00a8c8:	02238824 	and	s1,s1,v1
9d00a8cc:	02322023 	subu	a0,s1,s2
9d00a8d0:	2484ffef 	addiu	a0,a0,-17
9d00a8d4:	00822021 	addu	a0,a0,v0
9d00a8d8:	0082001b 	divu	zero,a0,v0
9d00a8dc:	004001f4 	teq	v0,zero,0x7
9d00a8e0:	00009012 	mflo	s2
9d00a8e4:	2652ffff 	addiu	s2,s2,-1
9d00a8e8:	72429002 	mul	s2,s2,v0
9d00a8ec:	0242102a 	slt	v0,s2,v0
9d00a8f0:	10400008 	beqz	v0,9d00a914 <malloc_trim+0x7c>
9d00a8f4:	00000000 	nop
9d00a8f8:	00001021 	move	v0,zero
9d00a8fc:	8fbf001c 	lw	ra,28(sp)
9d00a900:	8fb20018 	lw	s2,24(sp)
9d00a904:	8fb10014 	lw	s1,20(sp)
9d00a908:	8fb00010 	lw	s0,16(sp)
9d00a90c:	03e00008 	jr	ra
9d00a910:	27bd0020 	addiu	sp,sp,32
9d00a914:	0f402fc8 	jal	9d00bf20 <.LFE1>
9d00a918:	00002021 	move	a0,zero
9d00a91c:	8e030008 	lw	v1,8(s0)
9d00a920:	00711821 	addu	v1,v1,s1
9d00a924:	1443fff5 	bne	v0,v1,9d00a8fc <malloc_trim+0x64>
9d00a928:	00001021 	move	v0,zero
9d00a92c:	0f402fc8 	jal	9d00bf20 <.LFE1>
9d00a930:	00122023 	negu	a0,s2
9d00a934:	2403ffff 	li	v1,-1
9d00a938:	1043000a 	beq	v0,v1,9d00a964 <malloc_trim+0xcc>
9d00a93c:	3c02a000 	lui	v0,0xa000
9d00a940:	8c444754 	lw	a0,18260(v0)
9d00a944:	8e030008 	lw	v1,8(s0)
9d00a948:	02328823 	subu	s1,s1,s2
9d00a94c:	36310001 	ori	s1,s1,0x1
9d00a950:	00929023 	subu	s2,a0,s2
9d00a954:	ac710004 	sw	s1,4(v1)
9d00a958:	ac524754 	sw	s2,18260(v0)
9d00a95c:	0b402a3f 	j	9d00a8fc <malloc_trim+0x64>
9d00a960:	24020001 	li	v0,1
9d00a964:	0f402fc8 	jal	9d00bf20 <.LFE1>
9d00a968:	00002021 	move	a0,zero
9d00a96c:	8e030008 	lw	v1,8(s0)
9d00a970:	00432023 	subu	a0,v0,v1
9d00a974:	28850010 	slti	a1,a0,16
9d00a978:	54a0ffe0 	bnezl	a1,9d00a8fc <malloc_trim+0x64>
9d00a97c:	00001021 	move	v0,zero
9d00a980:	3c05a000 	lui	a1,0xa000
9d00a984:	8ca541e8 	lw	a1,16872(a1)
9d00a988:	34840001 	ori	a0,a0,0x1
9d00a98c:	00451023 	subu	v0,v0,a1
9d00a990:	3c05a000 	lui	a1,0xa000
9d00a994:	aca24754 	sw	v0,18260(a1)
9d00a998:	0b402a3e 	j	9d00a8f8 <malloc_trim+0x60>
9d00a99c:	ac640004 	sw	a0,4(v1)

Disassembly of section .rodata:

9d00a9a0 <_ctype>:
9d00a9a0:	20202000 20202020 28282020 20282828     .         ((((( 
9d00a9b0:	20202020 20202020 20202020 20202020                     
9d00a9c0:	10108020 10101010 10101010 10101010      ...............
9d00a9d0:	04040410 04040404 10040404 10101010     ................
9d00a9e0:	41411010 41414141 01010101 01010101     ..AAAAAA........
9d00a9f0:	01010101 01010101 01010101 10101010     ................
9d00aa00:	42421010 42424242 02020202 02020202     ..BBBBBB........
9d00aa10:	02020202 02020202 02020202 10101010     ................
9d00aa20:	00000020 00000000 00000000 00000000      ...............
	...

Disassembly of section .text.__ldexpf:

9d00aaa4 <__ldexpf>:
9d00aaa4:	7c863dc0 	ext	a2,a0,0x17,0x8
9d00aaa8:	24c8ffff 	addiu	t0,a2,-1
9d00aaac:	2d0800fe 	sltiu	t0,t0,254
9d00aab0:	00044fc2 	srl	t1,a0,0x1f
9d00aab4:	1100002b 	beqz	t0,9d00ab64 <__ldexpf+0xc0>
9d00aab8:	7c87b000 	ext	a3,a0,0x0,0x17
9d00aabc:	24c6ff81 	addiu	a2,a2,-127
9d00aac0:	3c020080 	lui	v0,0x80
9d00aac4:	00e21025 	or	v0,a3,v0
9d00aac8:	00c53021 	addu	a2,a2,a1
9d00aacc:	24c3007f 	addiu	v1,a2,127
9d00aad0:	18600018 	blez	v1,9d00ab34 <__ldexpf+0x90>
9d00aad4:	000210c0 	sll	v0,v0,0x3
9d00aad8:	30440007 	andi	a0,v0,0x7
9d00aadc:	1480000d 	bnez	a0,9d00ab14 <__ldexpf+0x70>
9d00aae0:	7c4400c0 	ext	a0,v0,0x3,0x1
9d00aae4:	286400ff 	slti	a0,v1,255
9d00aae8:	10800024 	beqz	a0,9d00ab7c <__ldexpf+0xd8>
9d00aaec:	000210c2 	srl	v0,v0,0x3
9d00aaf0:	7c4405c0 	ext	a0,v0,0x17,0x1
9d00aaf4:	50800002 	beqzl	a0,9d00ab00 <__ldexpf+0x5c>
9d00aaf8:	00001821 	move	v1,zero
9d00aafc:	7c42b000 	ext	v0,v0,0x0,0x17
9d00ab00:	00094a00 	sll	t1,t1,0x8
9d00ab04:	00691825 	or	v1,v1,t1
9d00ab08:	00031dc0 	sll	v1,v1,0x17
9d00ab0c:	03e00008 	jr	ra
9d00ab10:	00621025 	or	v0,v1,v0
9d00ab14:	24420003 	addiu	v0,v0,3
9d00ab18:	00441021 	addu	v0,v0,a0
9d00ab1c:	000226c2 	srl	a0,v0,0x1b
9d00ab20:	1080fff1 	beqz	a0,9d00aae8 <__ldexpf+0x44>
9d00ab24:	286400ff 	slti	a0,v1,255
9d00ab28:	00021042 	srl	v0,v0,0x1
9d00ab2c:	0b402ab9 	j	9d00aae4 <__ldexpf+0x40>
9d00ab30:	24630001 	addiu	v1,v1,1
9d00ab34:	2403ff82 	li	v1,-126
9d00ab38:	00661823 	subu	v1,v1,a2
9d00ab3c:	2864001b 	slti	a0,v1,27
9d00ab40:	50800012 	beqzl	a0,9d00ab8c <__ldexpf+0xe8>
9d00ab44:	00001021 	move	v0,zero
9d00ab48:	24c4009e 	addiu	a0,a2,158
9d00ab4c:	00822004 	sllv	a0,v0,a0
9d00ab50:	00621006 	srlv	v0,v0,v1
9d00ab54:	0004182b 	sltu	v1,zero,a0
9d00ab58:	00621025 	or	v0,v1,v0
9d00ab5c:	0b402ab6 	j	9d00aad8 <__ldexpf+0x34>
9d00ab60:	24030001 	li	v1,1
9d00ab64:	14c00003 	bnez	a2,9d00ab74 <__ldexpf+0xd0>
9d00ab68:	00000000 	nop
9d00ab6c:	14e00009 	bnez	a3,9d00ab94 <__ldexpf+0xf0>
9d00ab70:	70e31820 	clz	v1,a3
9d00ab74:	03e00008 	jr	ra
9d00ab78:	00801021 	move	v0,a0
9d00ab7c:	00091200 	sll	v0,t1,0x8
9d00ab80:	344200ff 	ori	v0,v0,0xff
9d00ab84:	03e00008 	jr	ra
9d00ab88:	000215c0 	sll	v0,v0,0x17
9d00ab8c:	0b402ac0 	j	9d00ab00 <__ldexpf+0x5c>
9d00ab90:	00001821 	move	v1,zero
9d00ab94:	2462fff8 	addiu	v0,v1,-8
9d00ab98:	00471004 	sllv	v0,a3,v0
9d00ab9c:	2406ff8a 	li	a2,-118
9d00aba0:	0b402ab2 	j	9d00aac8 <__ldexpf+0x24>
9d00aba4:	00c33023 	subu	a2,a2,v1

Disassembly of section .text._flsbuf_simple:

9d00aba8 <_flsbuf_simple>:
9d00aba8:	27bdffd8 	addiu	sp,sp,-40
9d00abac:	afbf0024 	sw	ra,36(sp)
9d00abb0:	afb10020 	sw	s1,32(sp)
9d00abb4:	afb0001c 	sw	s0,28(sp)
9d00abb8:	00a08021 	move	s0,a1
9d00abbc:	8ca2000c 	lw	v0,12(a1)
9d00abc0:	1040002d 	beqz	v0,9d00ac78 <_flsbuf_simple+0xd0>
9d00abc4:	00808821 	move	s1,a0
9d00abc8:	8ca20000 	lw	v0,0(a1)
9d00abcc:	24420001 	addiu	v0,v0,1
9d00abd0:	2403ffff 	li	v1,-1
9d00abd4:	1043001e 	beq	v0,v1,9d00ac50 <_flsbuf_simple+0xa8>
9d00abd8:	aca20000 	sw	v0,0(a1)
9d00abdc:	0f402e1f 	jal	9d00b87c <_fflush_simple>
9d00abe0:	02002021 	move	a0,s0
9d00abe4:	8e040000 	lw	a0,0(s0)
9d00abe8:	8e020004 	lw	v0,4(s0)
9d00abec:	2484ffff 	addiu	a0,a0,-1
9d00abf0:	24430001 	addiu	v1,v0,1
9d00abf4:	ae040000 	sw	a0,0(s0)
9d00abf8:	ae030004 	sw	v1,4(s0)
9d00abfc:	a0510000 	sb	s1,0(v0)
9d00ac00:	2402000a 	li	v0,10
9d00ac04:	52220007 	beql	s1,v0,9d00ac24 <_flsbuf_simple+0x7c>
9d00ac08:	96020010 	lhu	v0,16(s0)
9d00ac0c:	02201021 	move	v0,s1
9d00ac10:	8fbf0024 	lw	ra,36(sp)
9d00ac14:	8fb10020 	lw	s1,32(sp)
9d00ac18:	8fb0001c 	lw	s0,28(sp)
9d00ac1c:	03e00008 	jr	ra
9d00ac20:	27bd0028 	addiu	sp,sp,40
9d00ac24:	30420008 	andi	v0,v0,0x8
9d00ac28:	1040fff9 	beqz	v0,9d00ac10 <_flsbuf_simple+0x68>
9d00ac2c:	02201021 	move	v0,s1
9d00ac30:	0f402e1f 	jal	9d00b87c <_fflush_simple>
9d00ac34:	02002021 	move	a0,s0
9d00ac38:	02201021 	move	v0,s1
9d00ac3c:	8fbf0024 	lw	ra,36(sp)
9d00ac40:	8fb10020 	lw	s1,32(sp)
9d00ac44:	8fb0001c 	lw	s0,28(sp)
9d00ac48:	03e00008 	jr	ra
9d00ac4c:	27bd0028 	addiu	sp,sp,40
9d00ac50:	8ca20008 	lw	v0,8(a1)
9d00ac54:	1440ffe1 	bnez	v0,9d00abdc <_flsbuf_simple+0x34>
9d00ac58:	00000000 	nop
9d00ac5c:	94a20010 	lhu	v0,16(a1)
9d00ac60:	aca00004 	sw	zero,4(a1)
9d00ac64:	aca0000c 	sw	zero,12(a1)
9d00ac68:	34420010 	ori	v0,v0,0x10
9d00ac6c:	aca00000 	sw	zero,0(a1)
9d00ac70:	0b402af7 	j	9d00abdc <_flsbuf_simple+0x34>
9d00ac74:	a4a20010 	sh	v0,16(a1)
9d00ac78:	27a40010 	addiu	a0,sp,16
9d00ac7c:	24050001 	li	a1,1
9d00ac80:	0f402fef 	jal	9d00bfbc <.LFE0>
9d00ac84:	a3b10010 	sb	s1,16(sp)
9d00ac88:	ae000000 	sw	zero,0(s0)
9d00ac8c:	02201021 	move	v0,s1
9d00ac90:	8fbf0024 	lw	ra,36(sp)
9d00ac94:	8fb10020 	lw	s1,32(sp)
9d00ac98:	8fb0001c 	lw	s0,28(sp)
9d00ac9c:	03e00008 	jr	ra
9d00aca0:	27bd0028 	addiu	sp,sp,40

Disassembly of section .text.strchr:

9d00aca4 <strchr>:
9d00aca4:	30820003 	andi	v0,a0,0x3
9d00aca8:	14400034 	bnez	v0,9d00ad7c <strchr+0xd8>
9d00acac:	30a600ff 	andi	a2,a1,0xff
9d00acb0:	30a500ff 	andi	a1,a1,0xff
9d00acb4:	00054a00 	sll	t1,a1,0x8
9d00acb8:	8c820000 	lw	v0,0(a0)
9d00acbc:	01252825 	or	a1,t1,a1
9d00acc0:	00054c00 	sll	t1,a1,0x10
9d00acc4:	01254825 	or	t1,t1,a1
9d00acc8:	01221826 	xor	v1,t1,v0
9d00accc:	3c05fefe 	lui	a1,0xfefe
9d00acd0:	34a5feff 	ori	a1,a1,0xfeff
9d00acd4:	00034027 	nor	t0,zero,v1
9d00acd8:	00651821 	addu	v1,v1,a1
9d00acdc:	00023827 	nor	a3,zero,v0
9d00ace0:	00451021 	addu	v0,v0,a1
9d00ace4:	01031824 	and	v1,t0,v1
9d00ace8:	00e21024 	and	v0,a3,v0
9d00acec:	00621025 	or	v0,v1,v0
9d00acf0:	3c0a8080 	lui	t2,0x8080
9d00acf4:	354a8080 	ori	t2,t2,0x8080
9d00acf8:	004a1024 	and	v0,v0,t2
9d00acfc:	54400020 	bnezl	v0,9d00ad80 <strchr+0xdc>
9d00ad00:	90820000 	lbu	v0,0(a0)
9d00ad04:	24840004 	addiu	a0,a0,4
9d00ad08:	8c820000 	lw	v0,0(a0)
9d00ad0c:	01221826 	xor	v1,t1,v0
9d00ad10:	00034027 	nor	t0,zero,v1
9d00ad14:	00651821 	addu	v1,v1,a1
9d00ad18:	00023827 	nor	a3,zero,v0
9d00ad1c:	00451021 	addu	v0,v0,a1
9d00ad20:	01031824 	and	v1,t0,v1
9d00ad24:	00e21024 	and	v0,a3,v0
9d00ad28:	00621025 	or	v0,v1,v0
9d00ad2c:	004a1024 	and	v0,v0,t2
9d00ad30:	54400013 	bnezl	v0,9d00ad80 <strchr+0xdc>
9d00ad34:	90820000 	lbu	v0,0(a0)
9d00ad38:	24840004 	addiu	a0,a0,4
9d00ad3c:	8c820000 	lw	v0,0(a0)
9d00ad40:	01221826 	xor	v1,t1,v0
9d00ad44:	00034027 	nor	t0,zero,v1
9d00ad48:	00651821 	addu	v1,v1,a1
9d00ad4c:	00023827 	nor	a3,zero,v0
9d00ad50:	00451021 	addu	v0,v0,a1
9d00ad54:	01031824 	and	v1,t0,v1
9d00ad58:	00e21024 	and	v0,a3,v0
9d00ad5c:	00621025 	or	v0,v1,v0
9d00ad60:	004a1024 	and	v0,v0,t2
9d00ad64:	5040ffe8 	beqzl	v0,9d00ad08 <strchr+0x64>
9d00ad68:	24840004 	addiu	a0,a0,4
9d00ad6c:	0b402b60 	j	9d00ad80 <strchr+0xdc>
9d00ad70:	90820000 	lbu	v0,0(a0)
9d00ad74:	10400006 	beqz	v0,9d00ad90 <strchr+0xec>
9d00ad78:	24840001 	addiu	a0,a0,1
9d00ad7c:	90820000 	lbu	v0,0(a0)
9d00ad80:	1446fffc 	bne	v0,a2,9d00ad74 <strchr+0xd0>
9d00ad84:	00000000 	nop
9d00ad88:	03e00008 	jr	ra
9d00ad8c:	00801021 	move	v0,a0
9d00ad90:	03e00008 	jr	ra
9d00ad94:	00001021 	move	v0,zero

Disassembly of section .text._mon_getc:

9d00ad98 <_mon_getc>:
9d00ad98:	27bdffe8 	addiu	sp,sp,-24
9d00ad9c:	afbf0014 	sw	ra,20(sp)
9d00ada0:	3c02a000 	lui	v0,0xa000
9d00ada4:	8c420014 	lw	v0,20(v0)
9d00ada8:	1440000a 	bnez	v0,9d00add4 <_mon_getc+0x3c>
9d00adac:	24030002 	li	v1,2
9d00adb0:	3c020000 	lui	v0,0x0
9d00adb4:	24420000 	addiu	v0,v0,0
9d00adb8:	10400029 	beqz	v0,9d00ae60 <_mon_getc+0xc8>
9d00adbc:	3c020000 	lui	v0,0x0
9d00adc0:	0c000000 	jal	90000000 <_bmxdkpba_address+0x8ffe0000>
9d00adc4:	00000000 	nop
9d00adc8:	8fbf0014 	lw	ra,20(sp)
9d00adcc:	03e00008 	jr	ra
9d00add0:	27bd0018 	addiu	sp,sp,24
9d00add4:	1043001c 	beq	v0,v1,9d00ae48 <_mon_getc+0xb0>
9d00add8:	3c02bf80 	lui	v0,0xbf80
9d00addc:	3c02bf80 	lui	v0,0xbf80
9d00ade0:	8c426000 	lw	v0,24576(v0)
9d00ade4:	3c05bf80 	lui	a1,0xbf80
9d00ade8:	24a56030 	addiu	a1,a1,24624
9d00adec:	3c04bf80 	lui	a0,0xbf80
9d00adf0:	24846010 	addiu	a0,a0,24592
9d00adf4:	30428000 	andi	v0,v0,0x8000
9d00adf8:	14400003 	bnez	v0,9d00ae08 <_mon_getc+0x70>
9d00adfc:	34038000 	li	v1,0x8000
9d00ae00:	3c02bf80 	lui	v0,0xbf80
9d00ae04:	ac436008 	sw	v1,24584(v0)
9d00ae08:	8c820000 	lw	v0,0(a0)
9d00ae0c:	30420001 	andi	v0,v0,0x1
9d00ae10:	14400009 	bnez	v0,9d00ae38 <_mon_getc+0xa0>
9d00ae14:	240200a0 	li	v0,160
9d00ae18:	0b402b8a 	j	9d00ae28 <_mon_getc+0x90>
9d00ae1c:	00000000 	nop
9d00ae20:	10400005 	beqz	v0,9d00ae38 <_mon_getc+0xa0>
9d00ae24:	00000000 	nop
9d00ae28:	8c830000 	lw	v1,0(a0)
9d00ae2c:	30630001 	andi	v1,v1,0x1
9d00ae30:	1060fffb 	beqz	v1,9d00ae20 <_mon_getc+0x88>
9d00ae34:	2442ffff 	addiu	v0,v0,-1
9d00ae38:	8ca20000 	lw	v0,0(a1)
9d00ae3c:	8fbf0014 	lw	ra,20(sp)
9d00ae40:	03e00008 	jr	ra
9d00ae44:	27bd0018 	addiu	sp,sp,24
9d00ae48:	8c426800 	lw	v0,26624(v0)
9d00ae4c:	3c05bf80 	lui	a1,0xbf80
9d00ae50:	24a56830 	addiu	a1,a1,26672
9d00ae54:	3c04bf80 	lui	a0,0xbf80
9d00ae58:	0b402b7d 	j	9d00adf4 <_mon_getc+0x5c>
9d00ae5c:	24846810 	addiu	a0,a0,26640
9d00ae60:	24420000 	addiu	v0,v0,0
9d00ae64:	5040ffde 	beqzl	v0,9d00ade0 <_mon_getc+0x48>
9d00ae68:	3c02bf80 	lui	v0,0xbf80
9d00ae6c:	0c000000 	jal	90000000 <_bmxdkpba_address+0x8ffe0000>
9d00ae70:	00000000 	nop
9d00ae74:	0b402b73 	j	9d00adcc <_mon_getc+0x34>
9d00ae78:	8fbf0014 	lw	ra,20(sp)

Disassembly of section .text.general_exception:

9d00ae7c <_general_exception_context>:
9d00ae7c:	27bdffa8 	addiu	sp,sp,-88
9d00ae80:	afa10004 	sw	at,4(sp)
9d00ae84:	afa20008 	sw	v0,8(sp)
9d00ae88:	afa3000c 	sw	v1,12(sp)
9d00ae8c:	afa40010 	sw	a0,16(sp)
9d00ae90:	afa50014 	sw	a1,20(sp)
9d00ae94:	afa60018 	sw	a2,24(sp)
9d00ae98:	afa7001c 	sw	a3,28(sp)
9d00ae9c:	afa80020 	sw	t0,32(sp)
9d00aea0:	afa90024 	sw	t1,36(sp)
9d00aea4:	afaa0028 	sw	t2,40(sp)
9d00aea8:	afab002c 	sw	t3,44(sp)
9d00aeac:	afac0030 	sw	t4,48(sp)
9d00aeb0:	afad0034 	sw	t5,52(sp)
9d00aeb4:	afae0038 	sw	t6,56(sp)
9d00aeb8:	afaf003c 	sw	t7,60(sp)
9d00aebc:	afb80040 	sw	t8,64(sp)
9d00aec0:	afb90044 	sw	t9,68(sp)
9d00aec4:	afbf0048 	sw	ra,72(sp)
9d00aec8:	00004012 	mflo	t0
9d00aecc:	afa8004c 	sw	t0,76(sp)
9d00aed0:	00004010 	mfhi	t0
9d00aed4:	afa80050 	sw	t0,80(sp)
9d00aed8:	3c1a9d01 	lui	k0,0x9d01
9d00aedc:	275ac050 	addiu	k0,k0,-16304
9d00aee0:	00000000 	nop
9d00aee4:	40046800 	mfc0	a0,c0_cause
9d00aee8:	40056000 	mfc0	a1,c0_status
9d00aeec:	0340f809 	jalr	k0
9d00aef0:	00000000 	nop
9d00aef4:	8fa80050 	lw	t0,80(sp)
9d00aef8:	01000011 	mthi	t0
9d00aefc:	8fa8004c 	lw	t0,76(sp)
9d00af00:	01000013 	mtlo	t0
9d00af04:	8fa10004 	lw	at,4(sp)
9d00af08:	8fa20008 	lw	v0,8(sp)
9d00af0c:	8fa3000c 	lw	v1,12(sp)
9d00af10:	8fa40010 	lw	a0,16(sp)
9d00af14:	8fa50014 	lw	a1,20(sp)
9d00af18:	8fa60018 	lw	a2,24(sp)
9d00af1c:	8fa7001c 	lw	a3,28(sp)
9d00af20:	8fa80020 	lw	t0,32(sp)
9d00af24:	8fa90024 	lw	t1,36(sp)
9d00af28:	8faa0028 	lw	t2,40(sp)
9d00af2c:	8fab002c 	lw	t3,44(sp)
9d00af30:	8fac0030 	lw	t4,48(sp)
9d00af34:	8fad0034 	lw	t5,52(sp)
9d00af38:	8fae0038 	lw	t6,56(sp)
9d00af3c:	8faf003c 	lw	t7,60(sp)
9d00af40:	8fb80040 	lw	t8,64(sp)
9d00af44:	8fb90044 	lw	t9,68(sp)
9d00af48:	8fbf0048 	lw	ra,72(sp)
9d00af4c:	27bd0058 	addiu	sp,sp,88
9d00af50:	000000c0 	ehb
9d00af54:	42000018 	eret

Disassembly of section .text._mon_putc:

9d00af58 <_mon_putc>:
9d00af58:	27bdffe8 	addiu	sp,sp,-24
9d00af5c:	afbf0014 	sw	ra,20(sp)
9d00af60:	3c02a000 	lui	v0,0xa000
9d00af64:	8c420014 	lw	v0,20(v0)
9d00af68:	1440000a 	bnez	v0,9d00af94 <_mon_putc+0x3c>
9d00af6c:	7c042420 	seb	a0,a0
9d00af70:	3c020000 	lui	v0,0x0
9d00af74:	24420000 	addiu	v0,v0,0
9d00af78:	10400025 	beqz	v0,9d00b010 <_mon_putc+0xb8>
9d00af7c:	3c020000 	lui	v0,0x0
9d00af80:	0c000000 	jal	90000000 <_bmxdkpba_address+0x8ffe0000>
9d00af84:	00000000 	nop
9d00af88:	8fbf0014 	lw	ra,20(sp)
9d00af8c:	03e00008 	jr	ra
9d00af90:	27bd0018 	addiu	sp,sp,24
9d00af94:	24030001 	li	v1,1
9d00af98:	10430015 	beq	v0,v1,9d00aff0 <_mon_putc+0x98>
9d00af9c:	3c05bf80 	lui	a1,0xbf80
9d00afa0:	3c05bf80 	lui	a1,0xbf80
9d00afa4:	24a56820 	addiu	a1,a1,26656
9d00afa8:	3c02bf80 	lui	v0,0xbf80
9d00afac:	24426818 	addiu	v0,v0,26648
9d00afb0:	3c06bf80 	lui	a2,0xbf80
9d00afb4:	24c66808 	addiu	a2,a2,26632
9d00afb8:	3c03bf80 	lui	v1,0xbf80
9d00afbc:	24636810 	addiu	v1,v1,26640
9d00afc0:	34078000 	li	a3,0x8000
9d00afc4:	acc70000 	sw	a3,0(a2)
9d00afc8:	24060400 	li	a2,1024
9d00afcc:	ac460000 	sw	a2,0(v0)
9d00afd0:	8c620000 	lw	v0,0(v1)
9d00afd4:	30420100 	andi	v0,v0,0x100
9d00afd8:	1040fffd 	beqz	v0,9d00afd0 <_mon_putc+0x78>
9d00afdc:	00000000 	nop
9d00afe0:	aca40000 	sw	a0,0(a1)
9d00afe4:	8fbf0014 	lw	ra,20(sp)
9d00afe8:	03e00008 	jr	ra
9d00afec:	27bd0018 	addiu	sp,sp,24
9d00aff0:	24a56020 	addiu	a1,a1,24608
9d00aff4:	3c02bf80 	lui	v0,0xbf80
9d00aff8:	24426018 	addiu	v0,v0,24600
9d00affc:	3c06bf80 	lui	a2,0xbf80
9d00b000:	24c66008 	addiu	a2,a2,24584
9d00b004:	3c03bf80 	lui	v1,0xbf80
9d00b008:	0b402bf0 	j	9d00afc0 <_mon_putc+0x68>
9d00b00c:	24636010 	addiu	v1,v1,24592
9d00b010:	24420000 	addiu	v0,v0,0
9d00b014:	1040ffe3 	beqz	v0,9d00afa4 <_mon_putc+0x4c>
9d00b018:	3c05bf80 	lui	a1,0xbf80
9d00b01c:	0c000000 	jal	90000000 <_bmxdkpba_address+0x8ffe0000>
9d00b020:	00000000 	nop
9d00b024:	0b402be3 	j	9d00af8c <_mon_putc+0x34>
9d00b028:	8fbf0014 	lw	ra,20(sp)

Disassembly of section .text.libm:

9d00b02c <fpmodf>:
9d00b02c:	00043dc2 30e700ff 3c088000 00043200     .=.....0...<.2..
9d00b03c:	00c83025 01044024 240100ff 10e10028     %0..$@.....$(...
9d00b04c:	00000000 00064825 00075025 00085825     ....%H..%P..%X..
9d00b05c:	240c009e 01876023 19800006 00000000     ...$#`..........
9d00b06c:	29810020 1020001c 00000000 01894806      ..).. ......H..
9d00b07c:	01894804                                .H..

9d00b080 <Dlab3>:
9d00b080:	00096040 	sll	t4,t1,0x1
9d00b084:	000c6242 	srl	t4,t4,0x9
9d00b088:	000a6dc0 	sll	t5,t2,0x17
9d00b08c:	018d6025 	or	t4,t4,t5
9d00b090:	018b6825 	or	t5,t4,t3
9d00b094:	acad0000 	sw	t5,0(a1)
9d00b098:	00ea6023 	subu	t4,a3,t2
9d00b09c:	2d810020 	sltiu	at,t4,32
9d00b0a0:	14200002 	bnez	at,9d00b0ac <L2>
9d00b0a4:	00000000 	nop
9d00b0a8:	34090000 	li	t1,0x0

9d00b0ac <L2>:
9d00b0ac:	01894806 	srlv	t1,t1,t4
9d00b0b0:	00c93023 	subu	a2,a2,t1
9d00b0b4:	10c00008 	beqz	a2,9d00b0d8 <Dret2>
9d00b0b8:	00000000 	nop
9d00b0bc:	70cc6020 	clz	t4,a2
9d00b0c0:	00ec3823 	subu	a3,a3,t4
9d00b0c4:	01863004 	sllv	a2,a2,t4

9d00b0c8 <Dret>:
9d00b0c8:	00063040 	sll	a2,a2,0x1
9d00b0cc:	00063242 	srl	a2,a2,0x9
9d00b0d0:	00076dc0 	sll	t5,a3,0x17
9d00b0d4:	00cd3025 	or	a2,a2,t5

9d00b0d8 <Dret2>:
9d00b0d8:	00c81025 	or	v0,a2,t0

9d00b0dc <D999>:
9d00b0dc:	03e00008 	jr	ra
9d00b0e0:	00000000 	nop

9d00b0e4 <Dzer>:
9d00b0e4:	1000fff8 	b	9d00b0c8 <Dret>
9d00b0e8:	aca80000 	sw	t0,0(a1)

9d00b0ec <Dinfnan>:
9d00b0ec:	3c04ffc0 	lui	a0,0xffc0
9d00b0f0:	aca40000 	sw	a0,0(a1)
9d00b0f4:	1000fff9 	b	9d00b0dc <D999>
9d00b0f8:	00041025 	or	v0,zero,a0
9d00b0fc:	00000000 	nop

Disassembly of section .text._sbrk:

9d00b100 <_sbrk>:
9d00b100:	27bdffe0 	addiu	sp,sp,-32
9d00b104:	afbf001c 	sw	ra,28(sp)
9d00b108:	afb00018 	sw	s0,24(sp)
9d00b10c:	3c10a000 	lui	s0,0xa000
9d00b110:	8e0247a0 	lw	v0,18336(s0)
9d00b114:	10400010 	beqz	v0,9d00b158 <_sbrk+0x58>
9d00b118:	00000000 	nop
9d00b11c:	1880001b 	blez	a0,9d00b18c <_sbrk+0x8c>
9d00b120:	00441821 	addu	v1,v0,a0
9d00b124:	0062202b 	sltu	a0,v1,v0
9d00b128:	54800011 	bnezl	a0,9d00b170 <_sbrk+0x70>
9d00b12c:	2403000c 	li	v1,12
9d00b130:	3c04a000 	lui	a0,0xa000
9d00b134:	8c8447a4 	lw	a0,18340(a0)
9d00b138:	0083202b 	sltu	a0,a0,v1
9d00b13c:	5480000c 	bnezl	a0,9d00b170 <_sbrk+0x70>
9d00b140:	2403000c 	li	v1,12
9d00b144:	ae0347a0 	sw	v1,18336(s0)
9d00b148:	8fbf001c 	lw	ra,28(sp)
9d00b14c:	8fb00018 	lw	s0,24(sp)
9d00b150:	03e00008 	jr	ra
9d00b154:	27bd0020 	addiu	sp,sp,32
9d00b158:	0f402837 	jal	9d00a0dc <.LFE23>
9d00b15c:	afa40010 	sw	a0,16(sp)
9d00b160:	8e0247a0 	lw	v0,18336(s0)
9d00b164:	1440ffed 	bnez	v0,9d00b11c <_sbrk+0x1c>
9d00b168:	8fa40010 	lw	a0,16(sp)
9d00b16c:	2403000c 	li	v1,12
9d00b170:	3c02a000 	lui	v0,0xa000
9d00b174:	ac430044 	sw	v1,68(v0)
9d00b178:	2402ffff 	li	v0,-1
9d00b17c:	8fbf001c 	lw	ra,28(sp)
9d00b180:	8fb00018 	lw	s0,24(sp)
9d00b184:	03e00008 	jr	ra
9d00b188:	27bd0020 	addiu	sp,sp,32
9d00b18c:	0043202b 	sltu	a0,v0,v1
9d00b190:	14800005 	bnez	a0,9d00b1a8 <_sbrk+0xa8>
9d00b194:	3c04a000 	lui	a0,0xa000
9d00b198:	8c8447a8 	lw	a0,18344(a0)
9d00b19c:	0064202b 	sltu	a0,v1,a0
9d00b1a0:	5080ffe9 	beqzl	a0,9d00b148 <_sbrk+0x48>
9d00b1a4:	ae0347a0 	sw	v1,18336(s0)
9d00b1a8:	24030016 	li	v1,22
9d00b1ac:	3c02a000 	lui	v0,0xa000
9d00b1b0:	ac430044 	sw	v1,68(v0)
9d00b1b4:	2402ffff 	li	v0,-1
9d00b1b8:	8fbf001c 	lw	ra,28(sp)
9d00b1bc:	8fb00018 	lw	s0,24(sp)
9d00b1c0:	03e00008 	jr	ra
9d00b1c4:	27bd0020 	addiu	sp,sp,32

Disassembly of section .text.fputc:

9d00b1c8 <fputc>:
9d00b1c8:	27bdffe0 	addiu	sp,sp,-32
9d00b1cc:	afbf001c 	sw	ra,28(sp)
9d00b1d0:	afb10018 	sw	s1,24(sp)
9d00b1d4:	afb00014 	sw	s0,20(sp)
9d00b1d8:	00a08021 	move	s0,a1
9d00b1dc:	8ca20018 	lw	v0,24(a1)
9d00b1e0:	00808821 	move	s1,a0
9d00b1e4:	24050001 	li	a1,1
9d00b1e8:	8c420010 	lw	v0,16(v0)
9d00b1ec:	0040f809 	jalr	v0
9d00b1f0:	02002021 	move	a0,s0
9d00b1f4:	1040000e 	beqz	v0,9d00b230 <fputc+0x68>
9d00b1f8:	2402ffff 	li	v0,-1
9d00b1fc:	8e020000 	lw	v0,0(s0)
9d00b200:	2442ffff 	addiu	v0,v0,-1
9d00b204:	04400011 	bltz	v0,9d00b24c <fputc+0x84>
9d00b208:	ae020000 	sw	v0,0(s0)
9d00b20c:	96020010 	lhu	v0,16(s0)
9d00b210:	30420008 	andi	v0,v0,0x8
9d00b214:	1440000b 	bnez	v0,9d00b244 <fputc+0x7c>
9d00b218:	2402000a 	li	v0,10
9d00b21c:	8e030004 	lw	v1,4(s0)
9d00b220:	02201021 	move	v0,s1
9d00b224:	24640001 	addiu	a0,v1,1
9d00b228:	ae040004 	sw	a0,4(s0)
9d00b22c:	a0710000 	sb	s1,0(v1)
9d00b230:	8fbf001c 	lw	ra,28(sp)
9d00b234:	8fb10018 	lw	s1,24(sp)
9d00b238:	8fb00014 	lw	s0,20(sp)
9d00b23c:	03e00008 	jr	ra
9d00b240:	27bd0020 	addiu	sp,sp,32
9d00b244:	5622fff6 	bnel	s1,v0,9d00b220 <fputc+0x58>
9d00b248:	8e030004 	lw	v1,4(s0)
9d00b24c:	8e020018 	lw	v0,24(s0)
9d00b250:	02202021 	move	a0,s1
9d00b254:	8c420004 	lw	v0,4(v0)
9d00b258:	0040f809 	jalr	v0
9d00b25c:	02002821 	move	a1,s0
9d00b260:	8fbf001c 	lw	ra,28(sp)
9d00b264:	8fb10018 	lw	s1,24(sp)
9d00b268:	8fb00014 	lw	s0,20(sp)
9d00b26c:	03e00008 	jr	ra
9d00b270:	27bd0020 	addiu	sp,sp,32

Disassembly of section .text.fptodp:

9d00b274 <__extendsfdf2>:
9d00b274:	00043dc2 30e700ff 3c018000 00813024     .=.....0...<$0..
9d00b284:	24e9ffff 2d2100fe 1020000d 00000000     ...$..!-.. .....

9d00b294 <Glab1>:
9d00b294:	24e70380 	addiu	a3,a3,896
9d00b298:	00044a40 	sll	t1,a0,0x9
9d00b29c:	00094b02 	srl	t1,t1,0xc
9d00b2a0:	00c93025 	or	a2,a2,t1
9d00b2a4:	00042f40 	sll	a1,a0,0x1d

9d00b2a8 <Gret>:
9d00b2a8:	00074d00 	sll	t1,a3,0x14
9d00b2ac:	00c93025 	or	a2,a2,t1
9d00b2b0:	00051025 	or	v0,zero,a1
9d00b2b4:	00061825 	or	v1,zero,a2

9d00b2b8 <G999>:
9d00b2b8:	03e00008 	jr	ra
9d00b2bc:	00000000 	nop
9d00b2c0:	00000000 	nop

9d00b2c4 <Gspec>:
9d00b2c4:	24050000 	li	a1,0
9d00b2c8:	00842021 	addu	a0,a0,a0
9d00b2cc:	1080fff6 	beqz	a0,9d00b2a8 <Gret>
9d00b2d0:	00000000 	nop
9d00b2d4:	14e00009 	bnez	a3,9d00b2fc <i42>
9d00b2d8:	00000000 	nop

9d00b2dc <b43>:
9d00b2dc:	24e7ffff 	addiu	a3,a3,-1
9d00b2e0:	00842021 	addu	a0,a0,a0
9d00b2e4:	3c010080 	lui	at,0x80
9d00b2e8:	0081082b 	sltu	at,a0,at
9d00b2ec:	1420fffb 	bnez	at,9d00b2dc <b43>
9d00b2f0:	00000000 	nop
9d00b2f4:	1000ffe7 	b	9d00b294 <Glab1>
9d00b2f8:	00000000 	nop

9d00b2fc <i42>:
9d00b2fc:	240707ff 	li	a3,2047
9d00b300:	3c01ff00 	lui	at,0xff00
9d00b304:	34210001 	ori	at,at,0x1
9d00b308:	0081082b 	sltu	at,a0,at
9d00b30c:	1420ffe6 	bnez	at,9d00b2a8 <Gret>
9d00b310:	00000000 	nop
9d00b314:	1000ffe4 	b	9d00b2a8 <Gret>
9d00b318:	3c06fff8 	lui	a2,0xfff8
9d00b31c:	00000000 	nop

Disassembly of section .text._fullexit:

9d00b320 <_fullexit>:
9d00b320:	27bdffe0 	addiu	sp,sp,-32
9d00b324:	afbf001c 	sw	ra,28(sp)
9d00b328:	afb20018 	sw	s2,24(sp)
9d00b32c:	afb10014 	sw	s1,20(sp)
9d00b330:	afb00010 	sw	s0,16(sp)
9d00b334:	3c10a000 	lui	s0,0xa000
9d00b338:	3c11a000 	lui	s1,0xa000
9d00b33c:	00809021 	move	s2,a0
9d00b340:	0f403173 	jal	9d00c5cc <_weak_pthread_mutex_lock>
9d00b344:	260447ac 	addiu	a0,s0,18348
9d00b348:	8e220010 	lw	v0,16(s1)
9d00b34c:	260447ac 	addiu	a0,s0,18348
9d00b350:	24030001 	li	v1,1
9d00b354:	0f403177 	jal	9d00c5dc <_weak_pthread_mutex_unlock>
9d00b358:	ac430038 	sw	v1,56(v0)
9d00b35c:	8e220010 	lw	v0,16(s1)
9d00b360:	8c500010 	lw	s0,16(v0)
9d00b364:	5600000a 	bnezl	s0,9d00b390 <_fullexit+0x70>
9d00b368:	8e020004 	lw	v0,4(s0)
9d00b36c:	0b402ceb 	j	9d00b3ac <_fullexit+0x8c>
9d00b370:	8c420034 	lw	v0,52(v0)
9d00b374:	00031880 	sll	v1,v1,0x2
9d00b378:	02031821 	addu	v1,s0,v1
9d00b37c:	8c630000 	lw	v1,0(v1)
9d00b380:	2442ffff 	addiu	v0,v0,-1
9d00b384:	0060f809 	jalr	v1
9d00b388:	ae020004 	sw	v0,4(s0)
9d00b38c:	8e020004 	lw	v0,4(s0)
9d00b390:	1c40fff8 	bgtz	v0,9d00b374 <_fullexit+0x54>
9d00b394:	24430001 	addiu	v1,v0,1
9d00b398:	8e100000 	lw	s0,0(s0)
9d00b39c:	5600fffc 	bnezl	s0,9d00b390 <_fullexit+0x70>
9d00b3a0:	8e020004 	lw	v0,4(s0)
9d00b3a4:	8e220010 	lw	v0,16(s1)
9d00b3a8:	8c420034 	lw	v0,52(v0)
9d00b3ac:	10400003 	beqz	v0,9d00b3bc <_fullexit+0x9c>
9d00b3b0:	00000000 	nop
9d00b3b4:	0040f809 	jalr	v0
9d00b3b8:	00000000 	nop
9d00b3bc:	0f40319b 	jal	9d00c66c <.LFE0>
9d00b3c0:	02402021 	move	a0,s2

Disassembly of section .text._o_init:

9d00b3c4 <_o_init>:
9d00b3c4:	27bdffe8 	addiu	sp,sp,-24
9d00b3c8:	afbf0014 	sw	ra,20(sp)
9d00b3cc:	afb00010 	sw	s0,16(sp)
9d00b3d0:	00808021 	move	s0,a0
9d00b3d4:	3c02a000 	lui	v0,0xa000
9d00b3d8:	8c430010 	lw	v1,16(v0)
9d00b3dc:	8c820008 	lw	v0,8(a0)
9d00b3e0:	3c059d01 	lui	a1,0x9d01
9d00b3e4:	24a5c32c 	addiu	a1,a1,-15572
9d00b3e8:	1040001b 	beqz	v0,9d00b458 <_o_init+0x94>
9d00b3ec:	ac650034 	sw	a1,52(v1)
9d00b3f0:	8e03000c 	lw	v1,12(s0)
9d00b3f4:	50600004 	beqzl	v1,9d00b408 <_o_init+0x44>
9d00b3f8:	96020010 	lhu	v0,16(s0)
9d00b3fc:	8e020008 	lw	v0,8(s0)
9d00b400:	ae020004 	sw	v0,4(s0)
9d00b404:	96020010 	lhu	v0,16(s0)
9d00b408:	ae030000 	sw	v1,0(s0)
9d00b40c:	34430002 	ori	v1,v0,0x2
9d00b410:	30441000 	andi	a0,v0,0x1000
9d00b414:	10800006 	beqz	a0,9d00b430 <_o_init+0x6c>
9d00b418:	a6030010 	sh	v1,16(s0)
9d00b41c:	30420008 	andi	v0,v0,0x8
9d00b420:	14400007 	bnez	v0,9d00b440 <_o_init+0x7c>
9d00b424:	00000000 	nop
9d00b428:	3063efff 	andi	v1,v1,0xefff
9d00b42c:	a6030010 	sh	v1,16(s0)
9d00b430:	8fbf0014 	lw	ra,20(sp)
9d00b434:	8fb00010 	lw	s0,16(sp)
9d00b438:	03e00008 	jr	ra
9d00b43c:	27bd0018 	addiu	sp,sp,24
9d00b440:	0f40319d 	jal	9d00c674 <.LFE0>
9d00b444:	86040012 	lh	a0,18(s0)
9d00b448:	1440fff7 	bnez	v0,9d00b428 <_o_init+0x64>
9d00b44c:	96030010 	lhu	v1,16(s0)
9d00b450:	0b402d0a 	j	9d00b428 <_o_init+0x64>
9d00b454:	3063fff7 	andi	v1,v1,0xfff7
9d00b458:	0f402f26 	jal	9d00bc98 <_bufalloc>
9d00b45c:	00000000 	nop
9d00b460:	0b402cfd 	j	9d00b3f4 <_o_init+0x30>
9d00b464:	8e03000c 	lw	v1,12(s0)

Disassembly of section .text.repl:

9d00b468 <repl>:
9d00b468:	27bdffd8 	addiu	sp,sp,-40
9d00b46c:	afbf0024 	sw	ra,36(sp)
9d00b470:	afb40020 	sw	s4,32(sp)
9d00b474:	afb3001c 	sw	s3,28(sp)
9d00b478:	afb20018 	sw	s2,24(sp)
9d00b47c:	afb10014 	sw	s1,20(sp)
9d00b480:	afb00010 	sw	s0,16(sp)
9d00b484:	00a08021 	move	s0,a1
9d00b488:	0080a021 	move	s4,a0
9d00b48c:	00c09821 	move	s3,a2
9d00b490:	24120020 	li	s2,32
9d00b494:	2411ffff 	li	s1,-1
9d00b498:	12000011 	beqz	s0,9d00b4e0 <repl+0x78>
9d00b49c:	2e020021 	sltiu	v0,s0,33
9d00b4a0:	02401821 	move	v1,s2
9d00b4a4:	0202180b 	movn	v1,s0,v0
9d00b4a8:	02602021 	move	a0,s3
9d00b4ac:	00602821 	move	a1,v1
9d00b4b0:	02803021 	move	a2,s4
9d00b4b4:	0f402ef2 	jal	9d00bbc8 <__sputn>
9d00b4b8:	02038023 	subu	s0,s0,v1
9d00b4bc:	1451fff6 	bne	v0,s1,9d00b498 <repl+0x30>
9d00b4c0:	8fbf0024 	lw	ra,36(sp)
9d00b4c4:	8fb40020 	lw	s4,32(sp)
9d00b4c8:	8fb3001c 	lw	s3,28(sp)
9d00b4cc:	8fb20018 	lw	s2,24(sp)
9d00b4d0:	8fb10014 	lw	s1,20(sp)
9d00b4d4:	8fb00010 	lw	s0,16(sp)
9d00b4d8:	03e00008 	jr	ra
9d00b4dc:	27bd0028 	addiu	sp,sp,40
9d00b4e0:	00001021 	move	v0,zero
9d00b4e4:	8fbf0024 	lw	ra,36(sp)
9d00b4e8:	8fb40020 	lw	s4,32(sp)
9d00b4ec:	8fb3001c 	lw	s3,28(sp)
9d00b4f0:	8fb20018 	lw	s2,24(sp)
9d00b4f4:	8fb10014 	lw	s1,20(sp)
9d00b4f8:	8fb00010 	lw	s0,16(sp)
9d00b4fc:	03e00008 	jr	ra
9d00b500:	27bd0028 	addiu	sp,sp,40

Disassembly of section .text._eat_white:

9d00b504 <_eat_white>:
9d00b504:	27bdffe0 	addiu	sp,sp,-32
9d00b508:	afbf001c 	sw	ra,28(sp)
9d00b50c:	afb20018 	sw	s2,24(sp)
9d00b510:	afb10014 	sw	s1,20(sp)
9d00b514:	afb00010 	sw	s0,16(sp)
9d00b518:	00808021 	move	s0,a0
9d00b51c:	2411ffff 	li	s1,-1
9d00b520:	3c129d01 	lui	s2,0x9d01
9d00b524:	0b402d4f 	j	9d00b53c <_eat_white+0x38>
9d00b528:	2652a9a1 	addiu	s2,s2,-22111
9d00b52c:	80630000 	lb	v1,0(v1)
9d00b530:	30630088 	andi	v1,v1,0x88
9d00b534:	50600010 	beqzl	v1,9d00b578 <_eat_white+0x74>
9d00b538:	8e030010 	lw	v1,16(s0)
9d00b53c:	0f402f40 	jal	9d00bd00 <gsgetc>
9d00b540:	02002021 	move	a0,s0
9d00b544:	1451fff9 	bne	v0,s1,9d00b52c <_eat_white+0x28>
9d00b548:	00521821 	addu	v1,v0,s2
9d00b54c:	8e030010 	lw	v1,16(s0)
9d00b550:	ae110004 	sw	s1,4(s0)
9d00b554:	2402ffff 	li	v0,-1
9d00b558:	2463ffff 	addiu	v1,v1,-1
9d00b55c:	ae030010 	sw	v1,16(s0)
9d00b560:	8fbf001c 	lw	ra,28(sp)
9d00b564:	8fb20018 	lw	s2,24(sp)
9d00b568:	8fb10014 	lw	s1,20(sp)
9d00b56c:	8fb00010 	lw	s0,16(sp)
9d00b570:	03e00008 	jr	ra
9d00b574:	27bd0020 	addiu	sp,sp,32
9d00b578:	ae020004 	sw	v0,4(s0)
9d00b57c:	00001021 	move	v0,zero
9d00b580:	2463ffff 	addiu	v1,v1,-1
9d00b584:	ae030010 	sw	v1,16(s0)
9d00b588:	8fbf001c 	lw	ra,28(sp)
9d00b58c:	8fb20018 	lw	s2,24(sp)
9d00b590:	8fb10014 	lw	s1,20(sp)
9d00b594:	8fb00010 	lw	s0,16(sp)
9d00b598:	03e00008 	jr	ra
9d00b59c:	27bd0020 	addiu	sp,sp,32

Disassembly of section .text.fpcmp:

9d00b5a0 <__eqsf2>:
9d00b5a0:	2408fffe 00043040 00053840 00c74825     ...$@0..@8..%H..
9d00b5b0:	1120001b 00000000 3c01ff00 34210001     .. ........<..!4
9d00b5c0:	00c1082b 1020001a 00000000 3c01ff00     +..... ........<
9d00b5d0:	34210001 00e1082b 10200015 00000000     ..!4+..... .....
9d00b5e0:	04810002 00063042 00063023              ....B0..#0..

9d00b5ec <i48>:
9d00b5ec:	04a10002 	bgez	a1,9d00b5f8 <i49>
9d00b5f0:	00073842 	srl	a3,a3,0x1
9d00b5f4:	00073823 	negu	a3,a3

9d00b5f8 <i49>:
9d00b5f8:	00c7082a 	slt	at,a2,a3
9d00b5fc:	10200003 	beqz	at,9d00b60c <i50>
9d00b600:	00000000 	nop
9d00b604:	10000007 	b	9d00b624 <J999>
9d00b608:	2402ffff 	li	v0,-1

9d00b60c <i50>:
9d00b60c:	00e6082a 	slt	at,a3,a2
9d00b610:	10200003 	beqz	at,9d00b620 <Jequ>
9d00b614:	00000000 	nop
9d00b618:	10000002 	b	9d00b624 <J999>
9d00b61c:	24020001 	li	v0,1

9d00b620 <Jequ>:
9d00b620:	24020000 	li	v0,0

9d00b624 <J999>:
9d00b624:	03e00008 	jr	ra
9d00b628:	00000000 	nop
9d00b62c:	00000000 	nop

9d00b630 <Jnan>:
9d00b630:	1000fffc 	b	9d00b624 <J999>
9d00b634:	00081025 	or	v0,zero,t0
9d00b638:	00000000 	nop

Disassembly of section .text._i_init:

9d00b63c <_i_init>:
9d00b63c:	27bdffe8 	addiu	sp,sp,-24
9d00b640:	afbf0014 	sw	ra,20(sp)
9d00b644:	afb00010 	sw	s0,16(sp)
9d00b648:	8c820008 	lw	v0,8(a0)
9d00b64c:	1040001d 	beqz	v0,9d00b6c4 <_i_init+0x88>
9d00b650:	00808021 	move	s0,a0
9d00b654:	8e02000c 	lw	v0,12(s0)
9d00b658:	54400012 	bnezl	v0,9d00b6a4 <_i_init+0x68>
9d00b65c:	8e020008 	lw	v0,8(s0)
9d00b660:	2402ffff 	li	v0,-1
9d00b664:	ae020004 	sw	v0,4(s0)
9d00b668:	96020010 	lhu	v0,16(s0)
9d00b66c:	ae000000 	sw	zero,0(s0)
9d00b670:	34430001 	ori	v1,v0,0x1
9d00b674:	30441000 	andi	a0,v0,0x1000
9d00b678:	10800006 	beqz	a0,9d00b694 <_i_init+0x58>
9d00b67c:	a6030010 	sh	v1,16(s0)
9d00b680:	30420008 	andi	v0,v0,0x8
9d00b684:	14400009 	bnez	v0,9d00b6ac <_i_init+0x70>
9d00b688:	00000000 	nop
9d00b68c:	3063efff 	andi	v1,v1,0xefff
9d00b690:	a6030010 	sh	v1,16(s0)
9d00b694:	8fbf0014 	lw	ra,20(sp)
9d00b698:	8fb00010 	lw	s0,16(sp)
9d00b69c:	03e00008 	jr	ra
9d00b6a0:	27bd0018 	addiu	sp,sp,24
9d00b6a4:	0b402d9a 	j	9d00b668 <_i_init+0x2c>
9d00b6a8:	ae020004 	sw	v0,4(s0)
9d00b6ac:	0f40319d 	jal	9d00c674 <.LFE0>
9d00b6b0:	86040012 	lh	a0,18(s0)
9d00b6b4:	1440fff5 	bnez	v0,9d00b68c <_i_init+0x50>
9d00b6b8:	96030010 	lhu	v1,16(s0)
9d00b6bc:	0b402da3 	j	9d00b68c <_i_init+0x50>
9d00b6c0:	3063fff7 	andi	v1,v1,0xfff7
9d00b6c4:	0f402f26 	jal	9d00bc98 <_bufalloc>
9d00b6c8:	00000000 	nop
9d00b6cc:	0b402d96 	j	9d00b658 <_i_init+0x1c>
9d00b6d0:	8e02000c 	lw	v0,12(s0)

Disassembly of section .text:

9d00b6d4 <positioncontrol_init>:
#include "positioncontrol.h"

void positioncontrol_init(void){
9d00b6d4:	27bdfff8 	addiu	sp,sp,-8
9d00b6d8:	afbe0004 	sw	s8,4(sp)
9d00b6dc:	03a0f021 	move	s8,sp
  // Initialize Timer4 interrupt for 200 Hz position control loop //
  T4CONbits.TCKPS = 0b110; // Timer4 prescaler N=64 (1:64)
9d00b6e0:	3c03bf80 	lui	v1,0xbf80
9d00b6e4:	94620c00 	lhu	v0,3072(v1)
9d00b6e8:	24040006 	li	a0,6
9d00b6ec:	7c823104 	ins	v0,a0,0x4,0x3
9d00b6f0:	a4620c00 	sh	v0,3072(v1)
  PR4 = 6249;              // period = (PR4+1) * N * 12.5 ns = 0.005 s => 200 Hz
9d00b6f4:	3c02bf80 	lui	v0,0xbf80
9d00b6f8:	24031869 	li	v1,6249
9d00b6fc:	ac430c20 	sw	v1,3104(v0)
  TMR4 = 0;                // initial Timer4 count is 0
9d00b700:	3c02bf80 	lui	v0,0xbf80
9d00b704:	ac400c10 	sw	zero,3088(v0)
  IPC4bits.T4IP = 7;       // priority for Timer4 interrupt
9d00b708:	3c03bf88 	lui	v1,0xbf88
9d00b70c:	8c6210d0 	lw	v0,4304(v1)
9d00b710:	24040007 	li	a0,7
9d00b714:	7c822084 	ins	v0,a0,0x2,0x3
9d00b718:	ac6210d0 	sw	v0,4304(v1)
  IFS0bits.T4IF = 0;       // clear Timer4 interrupt flag
9d00b71c:	3c03bf88 	lui	v1,0xbf88
9d00b720:	8c621030 	lw	v0,4144(v1)
9d00b724:	7c028404 	ins	v0,zero,0x10,0x1
9d00b728:	ac621030 	sw	v0,4144(v1)
  IEC0bits.T4IE = 1;       // enable Timer4 interrupt
9d00b72c:	3c03bf88 	lui	v1,0xbf88
9d00b730:	8c621060 	lw	v0,4192(v1)
9d00b734:	24040001 	li	a0,1
9d00b738:	7c828404 	ins	v0,a0,0x10,0x1
9d00b73c:	ac621060 	sw	v0,4192(v1)
  T4CONbits.ON = 1;        // turn on Timer4    
9d00b740:	3c03bf80 	lui	v1,0xbf80
9d00b744:	94620c00 	lhu	v0,3072(v1)
9d00b748:	24040001 	li	a0,1
9d00b74c:	7c827bc4 	ins	v0,a0,0xf,0x1
9d00b750:	a4620c00 	sh	v0,3072(v1)
9d00b754:	03c0e821 	move	sp,s8
9d00b758:	8fbe0004 	lw	s8,4(sp)
9d00b75c:	27bd0008 	addiu	sp,sp,8
9d00b760:	03e00008 	jr	ra
9d00b764:	00000000 	nop

Disassembly of section .text.strlen:

9d00b768 <strlen>:
9d00b768:	30830003 	andi	v1,a0,0x3
9d00b76c:	1460001e 	bnez	v1,9d00b7e8 <strlen+0x80>
9d00b770:	00801021 	move	v0,a0
9d00b774:	8c820000 	lw	v0,0(a0)
9d00b778:	3c07fefe 	lui	a3,0xfefe
9d00b77c:	34e7feff 	ori	a3,a3,0xfeff
9d00b780:	00471821 	addu	v1,v0,a3
9d00b784:	00021027 	nor	v0,zero,v0
9d00b788:	3c068080 	lui	a2,0x8080
9d00b78c:	34c68080 	ori	a2,a2,0x8080
9d00b790:	00621824 	and	v1,v1,v0
9d00b794:	00661824 	and	v1,v1,a2
9d00b798:	14600013 	bnez	v1,9d00b7e8 <strlen+0x80>
9d00b79c:	00801021 	move	v0,a0
9d00b7a0:	24420004 	addiu	v0,v0,4
9d00b7a4:	8c430000 	lw	v1,0(v0)
9d00b7a8:	00672821 	addu	a1,v1,a3
9d00b7ac:	00031827 	nor	v1,zero,v1
9d00b7b0:	00a31824 	and	v1,a1,v1
9d00b7b4:	00661824 	and	v1,v1,a2
9d00b7b8:	5460000c 	bnezl	v1,9d00b7ec <strlen+0x84>
9d00b7bc:	80430000 	lb	v1,0(v0)
9d00b7c0:	24420004 	addiu	v0,v0,4
9d00b7c4:	8c430000 	lw	v1,0(v0)
9d00b7c8:	00672821 	addu	a1,v1,a3
9d00b7cc:	00031827 	nor	v1,zero,v1
9d00b7d0:	00a31824 	and	v1,a1,v1
9d00b7d4:	00661824 	and	v1,v1,a2
9d00b7d8:	5060fff2 	beqzl	v1,9d00b7a4 <strlen+0x3c>
9d00b7dc:	24420004 	addiu	v0,v0,4
9d00b7e0:	0b402dfb 	j	9d00b7ec <strlen+0x84>
9d00b7e4:	80430000 	lb	v1,0(v0)
9d00b7e8:	80430000 	lb	v1,0(v0)
9d00b7ec:	5460fffe 	bnezl	v1,9d00b7e8 <strlen+0x80>
9d00b7f0:	24420001 	addiu	v0,v0,1
9d00b7f4:	03e00008 	jr	ra
9d00b7f8:	00441023 	subu	v0,v0,a0

Disassembly of section .text.fptoli:

9d00b7fc <__fixsfsi>:
9d00b7fc:	00042a00 3c018000 00a12825 00043dc2     .*.....<%(...=..
9d00b80c:	30e700ff 2406009e 00c73023 18c0000d     ...0...$#0......
9d00b81c:	00000000 28c10020 14200003 00000000     .... ..(.. .....
9d00b82c:	10000005 24020000                       .......$

9d00b834 <i42>:
9d00b834:	04810002 	bgez	a0,9d00b840 <i43>
9d00b838:	00c52806 	srlv	a1,a1,a2
9d00b83c:	00052823 	negu	a1,a1

9d00b840 <i43>:
9d00b840:	00051025 	or	v0,zero,a1

9d00b844 <G999>:
9d00b844:	03e00008 	jr	ra
9d00b848:	00000000 	nop
9d00b84c:	00000000 	nop

9d00b850 <Gspec>:
9d00b850:	3c017f80 	lui	at,0x7f80
9d00b854:	34210001 	ori	at,at,0x1
9d00b858:	0081082b 	sltu	at,a0,at
9d00b85c:	14200003 	bnez	at,9d00b86c <i44>
9d00b860:	00000000 	nop
9d00b864:	1000fff7 	b	9d00b844 <G999>
9d00b868:	3c028000 	lui	v0,0x8000

9d00b86c <i44>:
9d00b86c:	3c027fff 	lui	v0,0x7fff
9d00b870:	1000fff4 	b	9d00b844 <G999>
9d00b874:	3442ffff 	ori	v0,v0,0xffff
9d00b878:	00000000 	nop

Disassembly of section .text._fflush_simple:

9d00b87c <_fflush_simple>:
9d00b87c:	27bdffe8 	addiu	sp,sp,-24
9d00b880:	afbf0014 	sw	ra,20(sp)
9d00b884:	afb00010 	sw	s0,16(sp)
9d00b888:	94820010 	lhu	v0,16(a0)
9d00b88c:	30420002 	andi	v0,v0,0x2
9d00b890:	10400013 	beqz	v0,9d00b8e0 <_fflush_simple+0x64>
9d00b894:	00808021 	move	s0,a0
9d00b898:	8c850000 	lw	a1,0(a0)
9d00b89c:	04a0000c 	bltz	a1,9d00b8d0 <_fflush_simple+0x54>
9d00b8a0:	00001021 	move	v0,zero
9d00b8a4:	8c82000c 	lw	v0,12(a0)
9d00b8a8:	50a20006 	beql	a1,v0,9d00b8c4 <_fflush_simple+0x48>
9d00b8ac:	8e030008 	lw	v1,8(s0)
9d00b8b0:	8c840008 	lw	a0,8(a0)
9d00b8b4:	0f402fef 	jal	9d00bfbc <.LFE0>
9d00b8b8:	00452823 	subu	a1,v0,a1
9d00b8bc:	8e02000c 	lw	v0,12(s0)
9d00b8c0:	8e030008 	lw	v1,8(s0)
9d00b8c4:	ae020000 	sw	v0,0(s0)
9d00b8c8:	ae030004 	sw	v1,4(s0)
9d00b8cc:	00001021 	move	v0,zero
9d00b8d0:	8fbf0014 	lw	ra,20(sp)
9d00b8d4:	8fb00010 	lw	s0,16(sp)
9d00b8d8:	03e00008 	jr	ra
9d00b8dc:	27bd0018 	addiu	sp,sp,24
9d00b8e0:	2402ffff 	li	v0,-1
9d00b8e4:	ac820004 	sw	v0,4(a0)
9d00b8e8:	00001021 	move	v0,zero
9d00b8ec:	8fbf0014 	lw	ra,20(sp)
9d00b8f0:	8fb00010 	lw	s0,16(sp)
9d00b8f4:	03e00008 	jr	ra
9d00b8f8:	27bd0018 	addiu	sp,sp,24

Disassembly of section .text._fwrite_simple:

9d00b8fc <_fwrite_simple>:
9d00b8fc:	27bdffd8 	addiu	sp,sp,-40
9d00b900:	afbf0024 	sw	ra,36(sp)
9d00b904:	afb10020 	sw	s1,32(sp)
9d00b908:	afb0001c 	sw	s0,28(sp)
9d00b90c:	70c58002 	mul	s0,a2,a1
9d00b910:	12000007 	beqz	s0,9d00b930 <_fwrite_simple+0x34>
9d00b914:	00001021 	move	v0,zero
9d00b918:	94e30010 	lhu	v1,16(a3)
9d00b91c:	30630001 	andi	v1,v1,0x1
9d00b920:	10600008 	beqz	v1,9d00b944 <_fwrite_simple+0x48>
9d00b924:	3c03a000 	lui	v1,0xa000
9d00b928:	24040009 	li	a0,9
9d00b92c:	ac640044 	sw	a0,68(v1)
9d00b930:	8fbf0024 	lw	ra,36(sp)
9d00b934:	8fb10020 	lw	s1,32(sp)
9d00b938:	8fb0001c 	lw	s0,28(sp)
9d00b93c:	03e00008 	jr	ra
9d00b940:	27bd0028 	addiu	sp,sp,40
9d00b944:	00808821 	move	s1,a0
9d00b948:	00e02021 	move	a0,a3
9d00b94c:	0f402e1f 	jal	9d00b87c <_fflush_simple>
9d00b950:	afa60010 	sw	a2,16(sp)
9d00b954:	02202021 	move	a0,s1
9d00b958:	0f402fef 	jal	9d00bfbc <.LFE0>
9d00b95c:	02002821 	move	a1,s0
9d00b960:	8fa60010 	lw	a2,16(sp)
9d00b964:	00c01021 	move	v0,a2
9d00b968:	8fbf0024 	lw	ra,36(sp)
9d00b96c:	8fb10020 	lw	s1,32(sp)
9d00b970:	8fb0001c 	lw	s0,28(sp)
9d00b974:	03e00008 	jr	ra
9d00b978:	27bd0028 	addiu	sp,sp,40

Disassembly of section .text.fptoul:

9d00b97c <__fixunssfsi>:
9d00b97c:	00042a00 3c018000 00a12825 00043dc2     .*.....<%(...=..
9d00b98c:	30e700ff 2406009e 00c73023 04c0000d     ...0...$#0......
9d00b99c:	00000000 28c10020 14200003 00000000     .... ..(.. .....
9d00b9ac:	10000005 24020000                       .......$

9d00b9b4 <i45>:
9d00b9b4:	04810002 	bgez	a0,9d00b9c0 <i46>
9d00b9b8:	00c52806 	srlv	a1,a1,a2
9d00b9bc:	00052823 	negu	a1,a1

9d00b9c0 <i46>:
9d00b9c0:	00051025 	or	v0,zero,a1

9d00b9c4 <I999>:
9d00b9c4:	03e00008 	jr	ra
9d00b9c8:	00000000 	nop
9d00b9cc:	00000000 	nop

9d00b9d0 <Ispec>:
9d00b9d0:	3c017f80 	lui	at,0x7f80
9d00b9d4:	34210001 	ori	at,at,0x1
9d00b9d8:	0081082b 	sltu	at,a0,at
9d00b9dc:	14200003 	bnez	at,9d00b9ec <i47>
9d00b9e0:	00000000 	nop
9d00b9e4:	1000fff7 	b	9d00b9c4 <I999>
9d00b9e8:	3c028000 	lui	v0,0x8000

9d00b9ec <i47>:
9d00b9ec:	1000fff5 	b	9d00b9c4 <I999>
9d00b9f0:	2402ffff 	li	v0,-1
9d00b9f4:	00000000 	nop

Disassembly of section .text.fgetc:

9d00b9f8 <fgetc>:
9d00b9f8:	27bdffe8 	addiu	sp,sp,-24
9d00b9fc:	afbf0014 	sw	ra,20(sp)
9d00ba00:	afb00010 	sw	s0,16(sp)
9d00ba04:	00808021 	move	s0,a0
9d00ba08:	8c820018 	lw	v0,24(a0)
9d00ba0c:	8c420010 	lw	v0,16(v0)
9d00ba10:	0040f809 	jalr	v0
9d00ba14:	24050002 	li	a1,2
9d00ba18:	10400009 	beqz	v0,9d00ba40 <fgetc+0x48>
9d00ba1c:	2402ffff 	li	v0,-1
9d00ba20:	8e020000 	lw	v0,0(s0)
9d00ba24:	2442ffff 	addiu	v0,v0,-1
9d00ba28:	04400009 	bltz	v0,9d00ba50 <fgetc+0x58>
9d00ba2c:	ae020000 	sw	v0,0(s0)
9d00ba30:	8e020004 	lw	v0,4(s0)
9d00ba34:	24430001 	addiu	v1,v0,1
9d00ba38:	ae030004 	sw	v1,4(s0)
9d00ba3c:	90420000 	lbu	v0,0(v0)
9d00ba40:	8fbf0014 	lw	ra,20(sp)
9d00ba44:	8fb00010 	lw	s0,16(sp)
9d00ba48:	03e00008 	jr	ra
9d00ba4c:	27bd0018 	addiu	sp,sp,24
9d00ba50:	8e020018 	lw	v0,24(s0)
9d00ba54:	8c420000 	lw	v0,0(v0)
9d00ba58:	0040f809 	jalr	v0
9d00ba5c:	02002021 	move	a0,s0
9d00ba60:	8fbf0014 	lw	ra,20(sp)
9d00ba64:	8fb00010 	lw	s0,16(sp)
9d00ba68:	03e00008 	jr	ra
9d00ba6c:	27bd0018 	addiu	sp,sp,24

Disassembly of section .text.litodp:

9d00ba70 <__floatsidf>:
9d00ba70:	24050000 00054825 00053825 00043025     ...$%H..%8..%0..
9d00ba80:	10c0000c 00000000 04c10006 00000000     ................
9d00ba90:	3c098000 0005502b 00052823 00063023     ...<+P..#(..#0..
9d00baa0:	00ca3023                                #0..

9d00baa4 <i40>:
9d00baa4:	2407041e 	li	a3,1054
9d00baa8:	70c84020 	clz	t0,a2
9d00baac:	00e83823 	subu	a3,a3,t0
9d00bab0:	01063004 	sllv	a2,a2,t0

9d00bab4 <i39>:
9d00bab4:	000542c2 	srl	t0,a1,0xb
9d00bab8:	00065540 	sll	t2,a2,0x15
9d00babc:	010a4025 	or	t0,t0,t2
9d00bac0:	00065040 	sll	t2,a2,0x1
9d00bac4:	000a5302 	srl	t2,t2,0xc
9d00bac8:	012a4825 	or	t1,t1,t2
9d00bacc:	00075500 	sll	t2,a3,0x14
9d00bad0:	012a4825 	or	t1,t1,t2
9d00bad4:	00081025 	or	v0,zero,t0
9d00bad8:	00091825 	or	v1,zero,t1

9d00badc <E999>:
9d00badc:	03e00008 	jr	ra
9d00bae0:	00000000 	nop
9d00bae4:	00000000 	nop

Disassembly of section .text._sscanf_cdfFnopuxX:

9d00bae8 <_sscanf_cdfFnopuxX>:
9d00bae8:	27bdffc0 	addiu	sp,sp,-64
9d00baec:	afbf003c 	sw	ra,60(sp)
9d00baf0:	afb00038 	sw	s0,56(sp)
9d00baf4:	00808021 	move	s0,a0
9d00baf8:	afa60048 	sw	a2,72(sp)
9d00bafc:	afa7004c 	sw	a3,76(sp)
9d00bb00:	2402ffff 	li	v0,-1
9d00bb04:	a7a20022 	sh	v0,34(sp)
9d00bb08:	24020081 	li	v0,129
9d00bb0c:	a7a20020 	sh	v0,32(sp)
9d00bb10:	0f402dda 	jal	9d00b768 <.LFE2>
9d00bb14:	afa50030 	sw	a1,48(sp)
9d00bb18:	27a30048 	addiu	v1,sp,72
9d00bb1c:	27a40010 	addiu	a0,sp,16
9d00bb20:	8fa50030 	lw	a1,48(sp)
9d00bb24:	00603021 	move	a2,v1
9d00bb28:	afa20010 	sw	v0,16(sp)
9d00bb2c:	afa2001c 	sw	v0,28(sp)
9d00bb30:	afb00018 	sw	s0,24(sp)
9d00bb34:	afb00014 	sw	s0,20(sp)
9d00bb38:	3c029d01 	lui	v0,0x9d01
9d00bb3c:	2442c554 	addiu	v0,v0,-15020
9d00bb40:	afa20028 	sw	v0,40(sp)
9d00bb44:	0f400ca2 	jal	9d003288 <.LFE4>
9d00bb48:	afa3002c 	sw	v1,44(sp)
9d00bb4c:	8fbf003c 	lw	ra,60(sp)
9d00bb50:	8fb00038 	lw	s0,56(sp)
9d00bb54:	03e00008 	jr	ra
9d00bb58:	27bd0040 	addiu	sp,sp,64

Disassembly of section .text._sprintf_cdfFnopuxX:

9d00bb5c <_sprintf_cdfFnopuxX>:
9d00bb5c:	27bdffc8 	addiu	sp,sp,-56
9d00bb60:	afbf0034 	sw	ra,52(sp)
9d00bb64:	27a20040 	addiu	v0,sp,64
9d00bb68:	00801821 	move	v1,a0
9d00bb6c:	afa60040 	sw	a2,64(sp)
9d00bb70:	27a40010 	addiu	a0,sp,16
9d00bb74:	00403021 	move	a2,v0
9d00bb78:	afa70044 	sw	a3,68(sp)
9d00bb7c:	2407ffff 	li	a3,-1
9d00bb80:	a7a70022 	sh	a3,34(sp)
9d00bb84:	24070082 	li	a3,130
9d00bb88:	a7a70020 	sh	a3,32(sp)
9d00bb8c:	3c077fff 	lui	a3,0x7fff
9d00bb90:	34e7fffe 	ori	a3,a3,0xfffe
9d00bb94:	afa70010 	sw	a3,16(sp)
9d00bb98:	afa30018 	sw	v1,24(sp)
9d00bb9c:	afa30014 	sw	v1,20(sp)
9d00bba0:	3c039d01 	lui	v1,0x9d01
9d00bba4:	2463c554 	addiu	v1,v1,-15020
9d00bba8:	afa30028 	sw	v1,40(sp)
9d00bbac:	0f400fa9 	jal	9d003ea4 <_do_print_cdfFnopuxX>
9d00bbb0:	afa2002c 	sw	v0,44(sp)
9d00bbb4:	8fa30014 	lw	v1,20(sp)
9d00bbb8:	a0600000 	sb	zero,0(v1)
9d00bbbc:	8fbf0034 	lw	ra,52(sp)
9d00bbc0:	03e00008 	jr	ra
9d00bbc4:	27bd0038 	addiu	sp,sp,56

Disassembly of section .text.__sputn:

9d00bbc8 <__sputn>:
9d00bbc8:	27bdffd8 	addiu	sp,sp,-40
9d00bbcc:	afbf0024 	sw	ra,36(sp)
9d00bbd0:	afb30020 	sw	s3,32(sp)
9d00bbd4:	afb2001c 	sw	s2,28(sp)
9d00bbd8:	afb10018 	sw	s1,24(sp)
9d00bbdc:	afb00014 	sw	s0,20(sp)
9d00bbe0:	00808021 	move	s0,a0
9d00bbe4:	00c09021 	move	s2,a2
9d00bbe8:	00858821 	addu	s1,a0,a1
9d00bbec:	0b402f02 	j	9d00bc08 <__sputn+0x40>
9d00bbf0:	2413ffff 	li	s3,-1
9d00bbf4:	26100001 	addiu	s0,s0,1
9d00bbf8:	0f402c72 	jal	9d00b1c8 <.LFE3>
9d00bbfc:	8204ffff 	lb	a0,-1(s0)
9d00bc00:	10530005 	beq	v0,s3,9d00bc18 <__sputn+0x50>
9d00bc04:	8fbf0024 	lw	ra,36(sp)
9d00bc08:	1611fffa 	bne	s0,s1,9d00bbf4 <__sputn+0x2c>
9d00bc0c:	02402821 	move	a1,s2
9d00bc10:	00001021 	move	v0,zero
9d00bc14:	8fbf0024 	lw	ra,36(sp)
9d00bc18:	8fb30020 	lw	s3,32(sp)
9d00bc1c:	8fb2001c 	lw	s2,28(sp)
9d00bc20:	8fb10018 	lw	s1,24(sp)
9d00bc24:	8fb00014 	lw	s0,20(sp)
9d00bc28:	03e00008 	jr	ra
9d00bc2c:	27bd0028 	addiu	sp,sp,40

Disassembly of section .text.memmove:

9d00bc30 <memmove>:
9d00bc30:	27bdffe8 	addiu	sp,sp,-24
9d00bc34:	0085102b 	sltu	v0,a0,a1
9d00bc38:	14400012 	bnez	v0,9d00bc84 <memmove+0x54>
9d00bc3c:	afbf0014 	sw	ra,20(sp)
9d00bc40:	00a61021 	addu	v0,a1,a2
9d00bc44:	0082102b 	sltu	v0,a0,v0
9d00bc48:	1040000e 	beqz	v0,9d00bc84 <memmove+0x54>
9d00bc4c:	24c2ffff 	addiu	v0,a2,-1
9d00bc50:	00821821 	addu	v1,a0,v0
9d00bc54:	00a22821 	addu	a1,a1,v0
9d00bc58:	10c00006 	beqz	a2,9d00bc74 <memmove+0x44>
9d00bc5c:	00663823 	subu	a3,v1,a2
9d00bc60:	24a5ffff 	addiu	a1,a1,-1
9d00bc64:	90a60001 	lbu	a2,1(a1)
9d00bc68:	2463ffff 	addiu	v1,v1,-1
9d00bc6c:	1467fffc 	bne	v1,a3,9d00bc60 <memmove+0x30>
9d00bc70:	a0660001 	sb	a2,1(v1)
9d00bc74:	00801021 	move	v0,a0
9d00bc78:	8fbf0014 	lw	ra,20(sp)
9d00bc7c:	03e00008 	jr	ra
9d00bc80:	27bd0018 	addiu	sp,sp,24
9d00bc84:	0f4030d7 	jal	9d00c35c <memcpy>
9d00bc88:	00000000 	nop
9d00bc8c:	8fbf0014 	lw	ra,20(sp)
9d00bc90:	03e00008 	jr	ra
9d00bc94:	27bd0018 	addiu	sp,sp,24

Disassembly of section .text._bufalloc:

9d00bc98 <_bufalloc>:
9d00bc98:	27bdffe8 	addiu	sp,sp,-24
9d00bc9c:	afbf0014 	sw	ra,20(sp)
9d00bca0:	afb00010 	sw	s0,16(sp)
9d00bca4:	00808021 	move	s0,a0
9d00bca8:	8c84000c 	lw	a0,12(a0)
9d00bcac:	5880000e 	blezl	a0,9d00bce8 <_bufalloc+0x50>
9d00bcb0:	ae00000c 	sw	zero,12(s0)
9d00bcb4:	0f401259 	jal	9d004964 <malloc>
9d00bcb8:	00000000 	nop
9d00bcbc:	10400009 	beqz	v0,9d00bce4 <_bufalloc+0x4c>
9d00bcc0:	ae020008 	sw	v0,8(s0)
9d00bcc4:	96030010 	lhu	v1,16(s0)
9d00bcc8:	ae020004 	sw	v0,4(s0)
9d00bccc:	34620010 	ori	v0,v1,0x10
9d00bcd0:	a6020010 	sh	v0,16(s0)
9d00bcd4:	8fbf0014 	lw	ra,20(sp)
9d00bcd8:	8fb00010 	lw	s0,16(sp)
9d00bcdc:	03e00008 	jr	ra
9d00bce0:	27bd0018 	addiu	sp,sp,24
9d00bce4:	ae00000c 	sw	zero,12(s0)
9d00bce8:	2402ffff 	li	v0,-1
9d00bcec:	ae020004 	sw	v0,4(s0)
9d00bcf0:	8fbf0014 	lw	ra,20(sp)
9d00bcf4:	8fb00010 	lw	s0,16(sp)
9d00bcf8:	03e00008 	jr	ra
9d00bcfc:	27bd0018 	addiu	sp,sp,24

Disassembly of section .text.gsgetc:

9d00bd00 <gsgetc>:
9d00bd00:	27bdffe0 	addiu	sp,sp,-32
9d00bd04:	afbf001c 	sw	ra,28(sp)
9d00bd08:	afb10018 	sw	s1,24(sp)
9d00bd0c:	afb00014 	sw	s0,20(sp)
9d00bd10:	8c820004 	lw	v0,4(a0)
9d00bd14:	2411ffff 	li	s1,-1
9d00bd18:	1051000a 	beq	v0,s1,9d00bd44 <gsgetc+0x44>
9d00bd1c:	00808021 	move	s0,a0
9d00bd20:	ac910004 	sw	s1,4(a0)
9d00bd24:	8e030010 	lw	v1,16(s0)
9d00bd28:	24630001 	addiu	v1,v1,1
9d00bd2c:	ae030010 	sw	v1,16(s0)
9d00bd30:	8fbf001c 	lw	ra,28(sp)
9d00bd34:	8fb10018 	lw	s1,24(sp)
9d00bd38:	8fb00014 	lw	s0,20(sp)
9d00bd3c:	03e00008 	jr	ra
9d00bd40:	27bd0020 	addiu	sp,sp,32
9d00bd44:	0f402e7e 	jal	9d00b9f8 <fgetc>
9d00bd48:	8c840000 	lw	a0,0(a0)
9d00bd4c:	1451fff5 	bne	v0,s1,9d00bd24 <gsgetc+0x24>
9d00bd50:	8fbf001c 	lw	ra,28(sp)
9d00bd54:	8fb10018 	lw	s1,24(sp)
9d00bd58:	8fb00014 	lw	s0,20(sp)
9d00bd5c:	03e00008 	jr	ra
9d00bd60:	27bd0020 	addiu	sp,sp,32

Disassembly of section .text._buffree:

9d00bd64 <_buffree>:
9d00bd64:	27bdffe8 	addiu	sp,sp,-24
9d00bd68:	afbf0014 	sw	ra,20(sp)
9d00bd6c:	afb00010 	sw	s0,16(sp)
9d00bd70:	00808021 	move	s0,a0
9d00bd74:	8c840008 	lw	a0,8(a0)
9d00bd78:	10800010 	beqz	a0,9d00bdbc <_buffree+0x58>
9d00bd7c:	8fbf0014 	lw	ra,20(sp)
9d00bd80:	96020010 	lhu	v0,16(s0)
9d00bd84:	30420010 	andi	v0,v0,0x10
9d00bd88:	5040000d 	beqzl	v0,9d00bdc0 <_buffree+0x5c>
9d00bd8c:	8fb00010 	lw	s0,16(sp)
9d00bd90:	0f4023b9 	jal	9d008ee4 <free>
9d00bd94:	00000000 	nop
9d00bd98:	96020010 	lhu	v0,16(s0)
9d00bd9c:	ae000008 	sw	zero,8(s0)
9d00bda0:	3042ffe7 	andi	v0,v0,0xffe7
9d00bda4:	ae00000c 	sw	zero,12(s0)
9d00bda8:	ae000000 	sw	zero,0(s0)
9d00bdac:	2403ffff 	li	v1,-1
9d00bdb0:	ae030004 	sw	v1,4(s0)
9d00bdb4:	a6020010 	sh	v0,16(s0)
9d00bdb8:	8fbf0014 	lw	ra,20(sp)
9d00bdbc:	8fb00010 	lw	s0,16(sp)
9d00bdc0:	03e00008 	jr	ra
9d00bdc4:	27bd0018 	addiu	sp,sp,24

Disassembly of section .text.sitofp:

9d00bdc8 <__floatsisf>:
9d00bdc8:	3c018000 10800012 00813024 04810002     ...<....$0......
9d00bdd8:	00000000 00042023                       ....# ..

9d00bde0 <i40>:
9d00bde0:	2405009e 	li	a1,158
9d00bde4:	70873820 	clz	a3,a0
9d00bde8:	00a72823 	subu	a1,a1,a3
9d00bdec:	00e42004 	sllv	a0,a0,a3
9d00bdf0:	24840080 	addiu	a0,a0,128
9d00bdf4:	2c880080 	sltiu	t0,a0,128
9d00bdf8:	00a82821 	addu	a1,a1,t0
9d00bdfc:	00044203 	sra	t0,a0,0x8
9d00be00:	31080001 	andi	t0,t0,0x1
9d00be04:	00882023 	subu	a0,a0,t0
9d00be08:	00042040 	sll	a0,a0,0x1
9d00be0c:	00042242 	srl	a0,a0,0x9
9d00be10:	000545c0 	sll	t0,a1,0x17
9d00be14:	00882025 	or	a0,a0,t0

9d00be18 <i39>:
9d00be18:	00861025 	or	v0,a0,a2

9d00be1c <E999>:
9d00be1c:	03e00008 	jr	ra
9d00be20:	00000000 	nop
9d00be24:	00000000 	nop

Disassembly of section .text.main_entry:

9d00be28 <_main_entry>:
9d00be28:	3c040000 	lui	a0,0x0
9d00be2c:	27bdffe8 	addiu	sp,sp,-24
9d00be30:	24840000 	addiu	a0,a0,0
9d00be34:	10800003 	beqz	a0,9d00be44 <_main_entry+0x1c>
9d00be38:	afbf0014 	sw	ra,20(sp)
9d00be3c:	0080f809 	jalr	a0
9d00be40:	00000000 	nop
9d00be44:	30840000 	andi	a0,a0,0x0
9d00be48:	30a50000 	andi	a1,a1,0x0
9d00be4c:	3c089d00 	lui	t0,0x9d00
9d00be50:	250829d4 	addiu	t0,t0,10708
9d00be54:	0100f809 	jalr	t0
9d00be58:	00000000 	nop

9d00be5c <__crt0_exit>:
9d00be5c:	3c020000 24420000 10400003 00000000     ...<..B$..@.....
9d00be6c:	0040f809 00000000 1000fff9 00000000     ..@.............

Disassembly of section .rodata:

9d00be7c <zeroData-0x8>:
9d00be7c:	6c756e28 	0x6c756e28
9d00be80:	0000296c 	0x296c

9d00be84 <zeroData>:
9d00be84:	30303030 30303030 30303030 30303030     0000000000000000
9d00be94:	30303030 30303030 30303030 30303030     0000000000000000

9d00bea4 <spaceData>:
9d00bea4:	20202020 20202020 20202020 20202020                     
9d00beb4:	20202020 20202020 20202020 20202020                     
9d00bec4:	41200000 3c23d70a 40800000              .. A..#<...@

Disassembly of section .text:

9d00bed0 <set_mode>:
#include "utilities.h"

static volatile Mode_datatype mode;		// declare global var which is the current mode

void set_mode(Mode_datatype m){
9d00bed0:	27bdfff8 	addiu	sp,sp,-8
9d00bed4:	afbe0004 	sw	s8,4(sp)
9d00bed8:	03a0f021 	move	s8,sp
9d00bedc:	afc40008 	sw	a0,8(s8)
	mode = m;
9d00bee0:	8fc20008 	lw	v0,8(s8)
9d00bee4:	af828050 	sw	v0,-32688(gp)
}
9d00bee8:	03c0e821 	move	sp,s8
9d00beec:	8fbe0004 	lw	s8,4(sp)
9d00bef0:	27bd0008 	addiu	sp,sp,8
9d00bef4:	03e00008 	jr	ra
9d00bef8:	00000000 	nop

9d00befc <get_mode>:

Mode_datatype get_mode(void){
9d00befc:	27bdfff8 	addiu	sp,sp,-8
9d00bf00:	afbe0004 	sw	s8,4(sp)
9d00bf04:	03a0f021 	move	s8,sp
	return mode;
9d00bf08:	8f828050 	lw	v0,-32688(gp)
9d00bf0c:	03c0e821 	move	sp,s8
9d00bf10:	8fbe0004 	lw	s8,4(sp)
9d00bf14:	27bd0008 	addiu	sp,sp,8
9d00bf18:	03e00008 	jr	ra
9d00bf1c:	00000000 	nop

Disassembly of section .text.sbrk:

9d00bf20 <sbrk>:
9d00bf20:	27bdffe0 	addiu	sp,sp,-32
9d00bf24:	afbf001c 	sw	ra,28(sp)
9d00bf28:	afb10018 	sw	s1,24(sp)
9d00bf2c:	afb00014 	sw	s0,20(sp)
9d00bf30:	0f402c40 	jal	9d00b100 <_sbrk>
9d00bf34:	00808821 	move	s1,a0
9d00bf38:	1a200007 	blez	s1,9d00bf58 <sbrk+0x38>
9d00bf3c:	00408021 	move	s0,v0
9d00bf40:	2402ffff 	li	v0,-1
9d00bf44:	12020004 	beq	s0,v0,9d00bf58 <sbrk+0x38>
9d00bf48:	02002021 	move	a0,s0
9d00bf4c:	00002821 	move	a1,zero
9d00bf50:	0f4030ed 	jal	9d00c3b4 <.LFE1>
9d00bf54:	02203021 	move	a2,s1
9d00bf58:	02001021 	move	v0,s0
9d00bf5c:	8fbf001c 	lw	ra,28(sp)
9d00bf60:	8fb10018 	lw	s1,24(sp)
9d00bf64:	8fb00014 	lw	s0,20(sp)
9d00bf68:	03e00008 	jr	ra
9d00bf6c:	27bd0020 	addiu	sp,sp,32

Disassembly of section .text:

9d00bf70 <__floatunsisf>:
9d00bf70:	27bdffe8 	addiu	sp,sp,-24
9d00bf74:	afbf0014 	sw	ra,20(sp)
9d00bf78:	04800006 	bltz	a0,9d00bf94 <__floatunsisf+0x24>
9d00bf7c:	00801021 	move	v0,a0
9d00bf80:	0f402f72 	jal	9d00bdc8 <__floatsisf>
9d00bf84:	00000000 	nop
9d00bf88:	8fbf0014 	lw	ra,20(sp)
9d00bf8c:	03e00008 	jr	ra
9d00bf90:	27bd0018 	addiu	sp,sp,24
9d00bf94:	00042042 	srl	a0,a0,0x1
9d00bf98:	30420001 	andi	v0,v0,0x1
9d00bf9c:	0f402f72 	jal	9d00bdc8 <__floatsisf>
9d00bfa0:	00822025 	or	a0,a0,v0
9d00bfa4:	00402021 	move	a0,v0
9d00bfa8:	0f40259b 	jal	9d00966c <__addsf3>
9d00bfac:	00402821 	move	a1,v0
9d00bfb0:	8fbf0014 	lw	ra,20(sp)
9d00bfb4:	03e00008 	jr	ra
9d00bfb8:	27bd0018 	addiu	sp,sp,24

Disassembly of section .text._mon_write:

9d00bfbc <_mon_write>:
9d00bfbc:	27bdffe0 	addiu	sp,sp,-32
9d00bfc0:	afbf001c 	sw	ra,28(sp)
9d00bfc4:	afb10018 	sw	s1,24(sp)
9d00bfc8:	afb00014 	sw	s0,20(sp)
9d00bfcc:	10800009 	beqz	a0,9d00bff4 <_mon_write+0x38>
9d00bfd0:	00808021 	move	s0,a0
9d00bfd4:	10a00007 	beqz	a1,9d00bff4 <_mon_write+0x38>
9d00bfd8:	00a08821 	move	s1,a1
9d00bfdc:	82040000 	lb	a0,0(s0)
9d00bfe0:	2631ffff 	addiu	s1,s1,-1
9d00bfe4:	0f402bd6 	jal	9d00af58 <_mon_putc>
9d00bfe8:	26100001 	addiu	s0,s0,1
9d00bfec:	5620fffc 	bnezl	s1,9d00bfe0 <_mon_write+0x24>
9d00bff0:	82040000 	lb	a0,0(s0)
9d00bff4:	8fbf001c 	lw	ra,28(sp)
9d00bff8:	8fb10018 	lw	s1,24(sp)
9d00bffc:	8fb00014 	lw	s0,20(sp)
9d00c000:	03e00008 	jr	ra
9d00c004:	27bd0020 	addiu	sp,sp,32

Disassembly of section .text._bootstrap_exception_handler:

9d00c008 <_bootstrap_exception_handler>:
9d00c008:	3c020000 	lui	v0,0x0
9d00c00c:	24420000 	addiu	v0,v0,0
9d00c010:	10400005 	beqz	v0,9d00c028 <_bootstrap_exception_handler+0x20>
9d00c014:	3c020000 	lui	v0,0x0
9d00c018:	24420000 	addiu	v0,v0,0
9d00c01c:	10400003 	beqz	v0,9d00c02c <_bootstrap_exception_handler+0x24>
9d00c020:	3c029d01 	lui	v0,0x9d01
9d00c024:	7000003f 	sdbbp
9d00c028:	3c029d01 	lui	v0,0x9d01
9d00c02c:	2442c128 	addiu	v0,v0,-16088
9d00c030:	10400005 	beqz	v0,9d00c048 <_bootstrap_exception_handler+0x40>
9d00c034:	00000000 	nop
9d00c038:	27bdffe8 	addiu	sp,sp,-24
9d00c03c:	afbf0014 	sw	ra,20(sp)
9d00c040:	0040f809 	jalr	v0
9d00c044:	00000000 	nop
9d00c048:	0b403012 	j	9d00c048 <_bootstrap_exception_handler+0x40>
9d00c04c:	00000000 	nop

Disassembly of section .text._general_exception_handler:

9d00c050 <_general_exception_handler>:
9d00c050:	3c020000 	lui	v0,0x0
9d00c054:	24420000 	addiu	v0,v0,0
9d00c058:	10400005 	beqz	v0,9d00c070 <_general_exception_handler+0x20>
9d00c05c:	3c020000 	lui	v0,0x0
9d00c060:	24420000 	addiu	v0,v0,0
9d00c064:	10400003 	beqz	v0,9d00c074 <_general_exception_handler+0x24>
9d00c068:	3c029d01 	lui	v0,0x9d01
9d00c06c:	7000003f 	sdbbp
9d00c070:	3c029d01 	lui	v0,0x9d01
9d00c074:	2442c128 	addiu	v0,v0,-16088
9d00c078:	10400005 	beqz	v0,9d00c090 <_general_exception_handler+0x40>
9d00c07c:	00000000 	nop
9d00c080:	27bdffe8 	addiu	sp,sp,-24
9d00c084:	afbf0014 	sw	ra,20(sp)
9d00c088:	0040f809 	jalr	v0
9d00c08c:	00000000 	nop
9d00c090:	0b403024 	j	9d00c090 <_general_exception_handler+0x40>
9d00c094:	00000000 	nop

Disassembly of section .vector_default:

9d00c098 <_DefaultInterrupt>:
9d00c098:	3c020000 	lui	v0,0x0
9d00c09c:	24420000 	addiu	v0,v0,0
9d00c0a0:	10400007 	beqz	v0,9d00c0c0 <_DefaultInterrupt+0x28>
9d00c0a4:	3c020000 	lui	v0,0x0
9d00c0a8:	24420000 	addiu	v0,v0,0
9d00c0ac:	50400005 	beqzl	v0,9d00c0c4 <_DefaultInterrupt+0x2c>
9d00c0b0:	3c029d01 	lui	v0,0x9d01
9d00c0b4:	7000003f 	sdbbp
9d00c0b8:	03e00008 	jr	ra
9d00c0bc:	00000000 	nop
9d00c0c0:	3c029d01 	lui	v0,0x9d01
9d00c0c4:	2442c128 	addiu	v0,v0,-16088
9d00c0c8:	10400003 	beqz	v0,9d00c0d8 <_DefaultInterrupt+0x40>
9d00c0cc:	00000000 	nop
9d00c0d0:	0040f809 	jalr	v0
9d00c0d4:	00000000 	nop
9d00c0d8:	03e00008 	jr	ra
9d00c0dc:	00000000 	nop

Disassembly of section .rodata:

9d00c0e0 <f5pow>:
9d00c0e0:	00000000 40140000 00000000 40390000     .......@......9@
9d00c0f0:	00000000 40838800 00000000 4117d784     .......@.......A
9d00c100:	37e08000 4241c379 b5056e17 4493b8b5     ...7y.AB.n.....D
9d00c110:	e93ff9f5 49384f03 f9301d32 52827748     ..?..O8I2.0.Hw.R
9d00c120:	7f73bf3c 65154fdd                       <.s..O.e

Disassembly of section .text:

9d00c128 <__pic32_software_reset>:
9d00c128:	41606000 	di
9d00c12c:	000000c0 	ehb
9d00c130:	3c03aa99 	lui	v1,0xaa99
9d00c134:	3c02bf81 	lui	v0,0xbf81
9d00c138:	24636655 	addiu	v1,v1,26197
9d00c13c:	ac40f230 	sw	zero,-3536(v0)
9d00c140:	ac43f230 	sw	v1,-3536(v0)
9d00c144:	3c035566 	lui	v1,0x5566
9d00c148:	346399aa 	ori	v1,v1,0x99aa
9d00c14c:	ac43f230 	sw	v1,-3536(v0)
9d00c150:	3c02bf81 	lui	v0,0xbf81
9d00c154:	24030001 	li	v1,1
9d00c158:	ac43f618 	sw	v1,-2536(v0)
9d00c15c:	3c02bf81 	lui	v0,0xbf81
9d00c160:	8c42f610 	lw	v0,-2544(v0)
9d00c164:	0b40304c 	j	9d00c130 <__pic32_software_reset+0x8>
9d00c168:	00000000 	nop

Disassembly of section .text._io_exit:

9d00c16c <.text._io_exit>:
9d00c16c:	27bdffe8 	addiu	sp,sp,-24
9d00c170:	afbf0014 	sw	ra,20(sp)
9d00c174:	afb00010 	sw	s0,16(sp)
9d00c178:	3c10a000 	lui	s0,0xa000
9d00c17c:	0f403173 	jal	9d00c5cc <_weak_pthread_mutex_lock>
9d00c180:	260447ac 	addiu	a0,s0,18348
9d00c184:	3c02a000 	lui	v0,0xa000
9d00c188:	8c420010 	lw	v0,16(v0)
9d00c18c:	260447ac 	addiu	a0,s0,18348
9d00c190:	24030001 	li	v1,1
9d00c194:	0f403177 	jal	9d00c5dc <_weak_pthread_mutex_unlock>
9d00c198:	ac430038 	sw	v1,56(v0)
9d00c19c:	8fbf0014 	lw	ra,20(sp)
9d00c1a0:	8fb00010 	lw	s0,16(sp)
9d00c1a4:	03e00008 	jr	ra
9d00c1a8:	27bd0018 	addiu	sp,sp,24

Disassembly of section .text:

9d00c1ac <__lshrdi3>:
9d00c1ac:	10c00009 	beqz	a2,9d00c1d4 <__lshrdi3+0x28>
9d00c1b0:	00801021 	move	v0,a0
9d00c1b4:	24020020 	li	v0,32
9d00c1b8:	00461023 	subu	v0,v0,a2
9d00c1bc:	18400007 	blez	v0,9d00c1dc <__lshrdi3+0x30>
9d00c1c0:	00c42006 	srlv	a0,a0,a2
9d00c1c4:	00451004 	sllv	v0,a1,v0
9d00c1c8:	00c51806 	srlv	v1,a1,a2
9d00c1cc:	03e00008 	jr	ra
9d00c1d0:	00441025 	or	v0,v0,a0
9d00c1d4:	03e00008 	jr	ra
9d00c1d8:	00a01821 	move	v1,a1
9d00c1dc:	00021023 	negu	v0,v0
9d00c1e0:	00001821 	move	v1,zero
9d00c1e4:	03e00008 	jr	ra
9d00c1e8:	00451006 	srlv	v0,a1,v0

9d00c1ec <__ashldi3>:
9d00c1ec:	10c00009 	beqz	a2,9d00c214 <__ashldi3+0x28>
9d00c1f0:	00801021 	move	v0,a0
9d00c1f4:	24030020 	li	v1,32
9d00c1f8:	00661823 	subu	v1,v1,a2
9d00c1fc:	18600007 	blez	v1,9d00c21c <__ashldi3+0x30>
9d00c200:	00c52804 	sllv	a1,a1,a2
9d00c204:	00641806 	srlv	v1,a0,v1
9d00c208:	00c41004 	sllv	v0,a0,a2
9d00c20c:	03e00008 	jr	ra
9d00c210:	00651825 	or	v1,v1,a1
9d00c214:	03e00008 	jr	ra
9d00c218:	00a01821 	move	v1,a1
9d00c21c:	00031823 	negu	v1,v1
9d00c220:	00001021 	move	v0,zero
9d00c224:	03e00008 	jr	ra
9d00c228:	00641804 	sllv	v1,a0,v1

Disassembly of section .text._weak_pthread_once:

9d00c22c <_weak_pthread_once>:
9d00c22c:	8c820000 	lw	v0,0(a0)
9d00c230:	10400003 	beqz	v0,9d00c240 <_weak_pthread_once+0x14>
9d00c234:	00001021 	move	v0,zero
9d00c238:	03e00008 	jr	ra
9d00c23c:	00000000 	nop
9d00c240:	27bdffe8 	addiu	sp,sp,-24
9d00c244:	afbf0014 	sw	ra,20(sp)
9d00c248:	24020002 	li	v0,2
9d00c24c:	00a0f809 	jalr	a1
9d00c250:	ac820000 	sw	v0,0(a0)
9d00c254:	00001021 	move	v0,zero
9d00c258:	8fbf0014 	lw	ra,20(sp)
9d00c25c:	03e00008 	jr	ra
9d00c260:	27bd0018 	addiu	sp,sp,24

Disassembly of section .rodata:

9d00c264 <.rodata>:
9d00c264:	0a0d6425 	j	98359094 <_bmxdkpba_address+0x98339094>
9d00c268:	00000000 	nop
9d00c26c:	00006425 	0x6425
9d00c270:	25206625 	addiu	zero,t1,26149
9d00c274:	00000066 	0x66
9d00c278:	0a0d6625 	j	98359894 <_bmxdkpba_address+0x98339894>
9d00c27c:	00000000 	nop
9d00c280:	25206625 	addiu	zero,t1,26149
9d00c284:	66252066 	0x66252066
9d00c288:	00000000 	nop
9d00c28c:	25206425 	addiu	zero,t1,25637
9d00c290:	000a0d64 	0xa0d64
9d00c294:	42c80000 	c0	0xc80000

Disassembly of section .text._filbuf_simple:

9d00c298 <_filbuf_simple>:
9d00c298:	8c820004 	lw	v0,4(a0)
9d00c29c:	2403ffff 	li	v1,-1
9d00c2a0:	10430003 	beq	v0,v1,9d00c2b0 <_filbuf_simple+0x18>
9d00c2a4:	ac800000 	sw	zero,0(a0)
9d00c2a8:	03e00008 	jr	ra
9d00c2ac:	ac830004 	sw	v1,4(a0)
9d00c2b0:	27bdffe8 	addiu	sp,sp,-24
9d00c2b4:	afbf0014 	sw	ra,20(sp)
9d00c2b8:	0f402b66 	jal	9d00ad98 <_mon_getc>
9d00c2bc:	24040001 	li	a0,1
9d00c2c0:	8fbf0014 	lw	ra,20(sp)
9d00c2c4:	03e00008 	jr	ra
9d00c2c8:	27bd0018 	addiu	sp,sp,24

Disassembly of section .text._fsync_simple:

9d00c2cc <_fsync_simple>:
9d00c2cc:	94830010 	lhu	v1,16(a0)
9d00c2d0:	00a32824 	and	a1,a1,v1
9d00c2d4:	10a00007 	beqz	a1,9d00c2f4 <_fsync_simple+0x28>
9d00c2d8:	24020001 	li	v0,1
9d00c2dc:	34630040 	ori	v1,v1,0x40
9d00c2e0:	a4830010 	sh	v1,16(a0)
9d00c2e4:	24030009 	li	v1,9
9d00c2e8:	3c02a000 	lui	v0,0xa000
9d00c2ec:	ac430044 	sw	v1,68(v0)
9d00c2f0:	00001021 	move	v0,zero
9d00c2f4:	03e00008 	jr	ra
9d00c2f8:	00000000 	nop

Disassembly of section .rodata:

9d00c2fc <.rodata>:
9d00c2fc:	33323130 	andi	s2,t9,0x3130
9d00c300:	37363534 	ori	s6,t9,0x3534
9d00c304:	00000000 	nop
9d00c308:	33323130 	andi	s2,t9,0x3130
9d00c30c:	37363534 	ori	s6,t9,0x3534
9d00c310:	42413938 	c0	0x413938
9d00c314:	46454443 	c1	0x454443
9d00c318:	64636261 	0x64636261
9d00c31c:	00006665 	0x6665
9d00c320:	33323130 	andi	s2,t9,0x3130
9d00c324:	37363534 	ori	s6,t9,0x3534
9d00c328:	00003938 	0x3938

Disassembly of section .text._cleanup:

9d00c32c <_cleanup>:
9d00c32c:	3c02a000 	lui	v0,0xa000
9d00c330:	8c4247d0 	lw	v0,18384(v0)
9d00c334:	10400007 	beqz	v0,9d00c354 <_cleanup+0x28>
9d00c338:	00000000 	nop
9d00c33c:	27bdffe8 	addiu	sp,sp,-24
9d00c340:	afbf0014 	sw	ra,20(sp)
9d00c344:	0040f809 	jalr	v0
9d00c348:	00000000 	nop
9d00c34c:	8fbf0014 	lw	ra,20(sp)
9d00c350:	27bd0018 	addiu	sp,sp,24
9d00c354:	03e00008 	jr	ra
9d00c358:	00000000 	nop

Disassembly of section .text.memcpy:

9d00c35c <memcpy>:
9d00c35c:	00801021 	move	v0,a0
9d00c360:	00863821 	addu	a3,a0,a2
9d00c364:	10c00006 	beqz	a2,9d00c380 <memcpy+0x24>
9d00c368:	00801821 	move	v1,a0
9d00c36c:	24a50001 	addiu	a1,a1,1
9d00c370:	90a6ffff 	lbu	a2,-1(a1)
9d00c374:	24630001 	addiu	v1,v1,1
9d00c378:	1467fffc 	bne	v1,a3,9d00c36c <memcpy+0x10>
9d00c37c:	a066ffff 	sb	a2,-1(v1)
9d00c380:	03e00008 	jr	ra
9d00c384:	00000000 	nop

Disassembly of section .text._stub_sbd_memlayout:

9d00c388 <_stub_sbd_memlayout>:
9d00c388:	3c03a000 	lui	v1,0xa000
9d00c38c:	24624788 	addiu	v0,v1,18312
9d00c390:	24040001 	li	a0,1
9d00c394:	ac440008 	sw	a0,8(v0)
9d00c398:	3c04a000 	lui	a0,0xa000
9d00c39c:	248447d8 	addiu	a0,a0,18392
9d00c3a0:	ac644788 	sw	a0,18312(v1)
9d00c3a4:	3c030000 	lui	v1,0x0
9d00c3a8:	24630000 	addiu	v1,v1,0
9d00c3ac:	03e00008 	jr	ra
9d00c3b0:	ac430004 	sw	v1,4(v0)

Disassembly of section .text.memset:

9d00c3b4 <memset>:
9d00c3b4:	10c00007 	beqz	a2,9d00c3d4 <memset+0x20>
9d00c3b8:	00801021 	move	v0,a0
9d00c3bc:	30a500ff 	andi	a1,a1,0xff
9d00c3c0:	00863021 	addu	a2,a0,a2
9d00c3c4:	00801821 	move	v1,a0
9d00c3c8:	24630001 	addiu	v1,v1,1
9d00c3cc:	1466fffe 	bne	v1,a2,9d00c3c8 <memset+0x14>
9d00c3d0:	a065ffff 	sb	a1,-1(v1)
9d00c3d4:	03e00008 	jr	ra
9d00c3d8:	00000000 	nop

Disassembly of section .text.putchar:

9d00c3dc <putchar>:
9d00c3dc:	27bdffe8 	addiu	sp,sp,-24
9d00c3e0:	afbf0014 	sw	ra,20(sp)
9d00c3e4:	3c02a000 	lui	v0,0xa000
9d00c3e8:	8c420010 	lw	v0,16(v0)
9d00c3ec:	0f402c72 	jal	9d00b1c8 <.LFE3>
9d00c3f0:	8c450004 	lw	a1,4(v0)
9d00c3f4:	8fbf0014 	lw	ra,20(sp)
9d00c3f8:	03e00008 	jr	ra
9d00c3fc:	27bd0018 	addiu	sp,sp,24

Disassembly of section .text.getchar:

9d00c400 <getchar>:
9d00c400:	27bdffe8 	addiu	sp,sp,-24
9d00c404:	afbf0014 	sw	ra,20(sp)
9d00c408:	3c02a000 	lui	v0,0xa000
9d00c40c:	8c420010 	lw	v0,16(v0)
9d00c410:	0f402e7e 	jal	9d00b9f8 <fgetc>
9d00c414:	8c440000 	lw	a0,0(v0)
9d00c418:	8fbf0014 	lw	ra,20(sp)
9d00c41c:	03e00008 	jr	ra
9d00c420:	27bd0018 	addiu	sp,sp,24

Disassembly of section .text._vfprintf_cdfFnopuxX:

9d00c424 <_vfprintf_cdfFnopuxX>:
9d00c424:	27bdffe8 	addiu	sp,sp,-24
9d00c428:	afbf0014 	sw	ra,20(sp)
9d00c42c:	0f400fa9 	jal	9d003ea4 <_do_print_cdfFnopuxX>
9d00c430:	00000000 	nop
9d00c434:	8fbf0014 	lw	ra,20(sp)
9d00c438:	03e00008 	jr	ra
9d00c43c:	27bd0018 	addiu	sp,sp,24

Disassembly of section .text.putc:

9d00c440 <putc>:
9d00c440:	27bdffe8 	addiu	sp,sp,-24
9d00c444:	afbf0014 	sw	ra,20(sp)
9d00c448:	0f402c72 	jal	9d00b1c8 <.LFE3>
9d00c44c:	00000000 	nop
9d00c450:	8fbf0014 	lw	ra,20(sp)
9d00c454:	03e00008 	jr	ra
9d00c458:	27bd0018 	addiu	sp,sp,24

Disassembly of section .text.vfscanf:

9d00c45c <vfscanf>:
9d00c45c:	27bdffe8 	addiu	sp,sp,-24
9d00c460:	afbf0014 	sw	ra,20(sp)
9d00c464:	0f400ca2 	jal	9d003288 <.LFE4>
9d00c468:	00000000 	nop
9d00c46c:	8fbf0014 	lw	ra,20(sp)
9d00c470:	03e00008 	jr	ra
9d00c474:	27bd0018 	addiu	sp,sp,24

Disassembly of section .text.strtod:

9d00c478 <strtod>:
9d00c478:	27bdffe8 	addiu	sp,sp,-24
9d00c47c:	afbf0014 	sw	ra,20(sp)
9d00c480:	0f401e31 	jal	9d0078c4 <__strtod>
9d00c484:	00000000 	nop
9d00c488:	8fbf0014 	lw	ra,20(sp)
9d00c48c:	03e00008 	jr	ra
9d00c490:	27bd0018 	addiu	sp,sp,24

Disassembly of section .text.strtof:

9d00c494 <strtof>:
9d00c494:	27bdffe8 	addiu	sp,sp,-24
9d00c498:	afbf0014 	sw	ra,20(sp)
9d00c49c:	0f402007 	jal	9d00801c <__strtof>
9d00c4a0:	00000000 	nop
9d00c4a4:	8fbf0014 	lw	ra,20(sp)
9d00c4a8:	03e00008 	jr	ra
9d00c4ac:	27bd0018 	addiu	sp,sp,24

Disassembly of section .text.getc:

9d00c4b0 <getc>:
9d00c4b0:	27bdffe8 	addiu	sp,sp,-24
9d00c4b4:	afbf0014 	sw	ra,20(sp)
9d00c4b8:	0f402e7e 	jal	9d00b9f8 <fgetc>
9d00c4bc:	00000000 	nop
9d00c4c0:	8fbf0014 	lw	ra,20(sp)
9d00c4c4:	03e00008 	jr	ra
9d00c4c8:	27bd0018 	addiu	sp,sp,24

Disassembly of section .text.negdf2:

9d00c4cc <__negdf2>:
9d00c4cc:	3c018000 00a12826 00041025 00051825     ...<&(..%...%...

9d00c4dc <M999>:
9d00c4dc:	03e00008 	jr	ra
9d00c4e0:	00000000 	nop
9d00c4e4:	00000000 	nop

Disassembly of section .text:

9d00c4e8 <_nmi_handler>:
9d00c4e8:	401a6000 	mfc0	k0,c0_status
9d00c4ec:	3c1bffbf 	lui	k1,0xffbf
9d00c4f0:	377bffff 	ori	k1,k1,0xffff
9d00c4f4:	035bd024 	and	k0,k0,k1
9d00c4f8:	409a6000 	mtc0	k0,c0_status
9d00c4fc:	42000018 	eret

Disassembly of section .rodata:

9d00c500 <f5pow>:
9d00c500:	40a00000 41c80000 441c4000 48bebc20     ...@...A.@.D ..H
9d00c510:	520e1bca 649dc5ae                       ...R...d

Disassembly of section .text._io_exit:

9d00c518 <_io_exit>:
9d00c518:	3c02a000 	lui	v0,0xa000
9d00c51c:	8c420010 	lw	v0,16(v0)
9d00c520:	24030001 	li	v1,1
9d00c524:	03e00008 	jr	ra
9d00c528:	ac430038 	sw	v1,56(v0)

Disassembly of section .rodata:

9d00c52c <_io_funcs>:
9d00c52c:	9d00c298 9d00aba8 9d00b87c 9d00b8fc     ........|.......
9d00c53c:	9d00c2cc                                ....

Disassembly of section .text._io_exit:

9d00c540 <.text._io_exit>:
9d00c540:	3c02a000 	lui	v0,0xa000
9d00c544:	8c420010 	lw	v0,16(v0)
9d00c548:	24030001 	li	v1,1
9d00c54c:	03e00008 	jr	ra
9d00c550:	ac430038 	sw	v1,56(v0)

Disassembly of section .rodata:

9d00c554 <_io_strfuncs>:
9d00c554:	9d00c594 9d00c59c 9d00c5a4 9d00c5ac     ................
9d00c564:	9d00c5b4                                ....

Disassembly of section .text.negsf2:

9d00c568 <__negsf2>:
9d00c568:	3c018000 00811026                       ...<&...

9d00c570 <L999>:
9d00c570:	03e00008 	jr	ra
9d00c574:	00000000 	nop
9d00c578:	00000000 	nop

Disassembly of section .rodata:

9d00c57c <.rodata>:
9d00c57c:	40028f5c 	0x40028f5c
9d00c580:	44800000 	mtc1	zero,$f0

Disassembly of section .text._on_reset:

9d00c584 <_on_reset>:
9d00c584:	03e00008 	jr	ra
9d00c588:	00000000 	nop

Disassembly of section .text._on_bootstrap:

9d00c58c <_on_bootstrap>:
9d00c58c:	03e00008 	jr	ra
9d00c590:	00000000 	nop

Disassembly of section .text._filbuf_string:

9d00c594 <_filbuf_string>:
9d00c594:	03e00008 	jr	ra
9d00c598:	2402ffff 	li	v0,-1

Disassembly of section .text._flsbuf_string:

9d00c59c <_flsbuf_string>:
9d00c59c:	03e00008 	jr	ra
9d00c5a0:	00801021 	move	v0,a0

Disassembly of section .text._fflush_string:

9d00c5a4 <_fflush_string>:
9d00c5a4:	03e00008 	jr	ra
9d00c5a8:	00001021 	move	v0,zero

Disassembly of section .text._fwrite_string:

9d00c5ac <_fwrite_string>:
9d00c5ac:	03e00008 	jr	ra
9d00c5b0:	00001021 	move	v0,zero

Disassembly of section .text._fsync_string:

9d00c5b4 <_fsync_string>:
9d00c5b4:	03e00008 	jr	ra
9d00c5b8:	24020001 	li	v0,1

Disassembly of section .text._weak_pthread_mutex_init:

9d00c5bc <_weak_pthread_mutex_init>:
9d00c5bc:	03e00008 	jr	ra
9d00c5c0:	00001021 	move	v0,zero

Disassembly of section .text._weak_pthread_mutex_destroy:

9d00c5c4 <_weak_pthread_mutex_destroy>:
9d00c5c4:	03e00008 	jr	ra
9d00c5c8:	00001021 	move	v0,zero

Disassembly of section .text._weak_pthread_mutex_lock:

9d00c5cc <_weak_pthread_mutex_lock>:
9d00c5cc:	03e00008 	jr	ra
9d00c5d0:	00001021 	move	v0,zero

Disassembly of section .text._weak_pthread_mutex_trylock:

9d00c5d4 <_weak_pthread_mutex_trylock>:
9d00c5d4:	03e00008 	jr	ra
9d00c5d8:	00001021 	move	v0,zero

Disassembly of section .text._weak_pthread_mutex_unlock:

9d00c5dc <_weak_pthread_mutex_unlock>:
9d00c5dc:	03e00008 	jr	ra
9d00c5e0:	00001021 	move	v0,zero

Disassembly of section .text._weak_pthread_mutex_setname_np:

9d00c5e4 <_weak_pthread_mutex_setname_np>:
9d00c5e4:	03e00008 	jr	ra
9d00c5e8:	00001021 	move	v0,zero

Disassembly of section .text._weak_pthread_mutexattr_init:

9d00c5ec <_weak_pthread_mutexattr_init>:
9d00c5ec:	03e00008 	jr	ra
9d00c5f0:	00001021 	move	v0,zero

Disassembly of section .text._weak_pthread_mutexattr_destroy:

9d00c5f4 <_weak_pthread_mutexattr_destroy>:
9d00c5f4:	03e00008 	jr	ra
9d00c5f8:	00001021 	move	v0,zero

Disassembly of section .text._weak_pthread_mutexattr_setname_np:

9d00c5fc <_weak_pthread_mutexattr_setname_np>:
9d00c5fc:	03e00008 	jr	ra
9d00c600:	00001021 	move	v0,zero

Disassembly of section .text._weak_pthread_mutexattr_settype_np:

9d00c604 <_weak_pthread_mutexattr_settype_np>:
9d00c604:	03e00008 	jr	ra
9d00c608:	00001021 	move	v0,zero

Disassembly of section .text._weak_pthread_sysconf_np:

9d00c60c <_weak_pthread_sysconf_np>:
9d00c60c:	03e00008 	jr	ra
9d00c610:	2402ffff 	li	v0,-1

Disassembly of section .text._weak_pthread_sigdisable_np:

9d00c614 <_weak_pthread_sigdisable_np>:
9d00c614:	03e00008 	jr	ra
9d00c618:	00000000 	nop

Disassembly of section .text._weak_pthread_sigrestore_np:

9d00c61c <_weak_pthread_sigrestore_np>:
9d00c61c:	03e00008 	jr	ra
9d00c620:	00000000 	nop

Disassembly of section .text._weak__pthread_cleanup_push:

9d00c624 <_weak__pthread_cleanup_push>:
9d00c624:	03e00008 	jr	ra
9d00c628:	00000000 	nop

Disassembly of section .text._weak__pthread_cleanup_pop:

9d00c62c <_weak__pthread_cleanup_pop>:
9d00c62c:	03e00008 	jr	ra
9d00c630:	00000000 	nop

Disassembly of section .text._weak__pthread_cleanup_push_defer:

9d00c634 <_weak__pthread_cleanup_push_defer>:
9d00c634:	03e00008 	jr	ra
9d00c638:	00000000 	nop

Disassembly of section .text._weak__pthread_cleanup_pop_restore:

9d00c63c <_weak__pthread_cleanup_pop_restore>:
9d00c63c:	03e00008 	jr	ra
9d00c640:	00000000 	nop

Disassembly of section .text._weak_pthread_key_create:

9d00c644 <_weak_pthread_key_create>:
9d00c644:	03e00008 	jr	ra
9d00c648:	2402ffff 	li	v0,-1

Disassembly of section .text._weak_pthread_setspecific:

9d00c64c <_weak_pthread_setspecific>:
9d00c64c:	03e00008 	jr	ra
9d00c650:	2402ffff 	li	v0,-1

Disassembly of section .text._weak_pthread_getspecific:

9d00c654 <_weak_pthread_getspecific>:
9d00c654:	03e00008 	jr	ra
9d00c658:	00001021 	move	v0,zero

Disassembly of section .text._weak__libc_private_storage:

9d00c65c <_weak__libc_private_storage>:
9d00c65c:	03e00008 	jr	ra
9d00c660:	00a01021 	move	v0,a1

Disassembly of section .text.getpagesize:

9d00c664 <getpagesize>:
9d00c664:	03e00008 	jr	ra
9d00c668:	24020080 	li	v0,128

Disassembly of section .text._exit:

9d00c66c <_exit>:
9d00c66c:	0b40319b 	j	9d00c66c <_exit>
9d00c670:	00000000 	nop

Disassembly of section .text.isatty:

9d00c674 <isatty>:
9d00c674:	03e00008 	jr	ra
9d00c678:	00001021 	move	v0,zero
